(lp0
(S'beaver energy high'
p1
S'marsh energy high'
p2
S'has lumber'
p3
S'at tree'
p4
S'at marsh'
p5
S'none wolf'
p6
tp7
a(g1
g2
g3
g4
g5
S'see wolf'
p8
tp9
a(g1
g2
g3
g4
S'none marsh'
p10
g6
tp11
a(g1
g2
g3
g4
g10
g8
tp12
a(g1
g2
g3
g4
S'see marsh'
p13
g6
tp14
a(g1
g2
g3
g4
g13
g8
tp15
a(g1
g2
g3
S'none tree'
p16
g5
g6
tp17
a(g1
g2
g3
g16
g5
g8
tp18
a(g1
g2
g3
g16
g10
g6
tp19
a(g1
g2
g3
g16
g10
g8
tp20
a(g1
g2
g3
g16
g13
g6
tp21
a(g1
g2
g3
g16
g13
g8
tp22
a(g1
g2
g3
S'see tree'
p23
g5
g6
tp24
a(g1
g2
g3
g23
g5
g8
tp25
a(g1
g2
g3
g23
g10
g6
tp26
a(g1
g2
g3
g23
g10
g8
tp27
a(g1
g2
g3
g23
g13
g6
tp28
a(g1
g2
g3
g23
g13
g8
tp29
a(g1
g2
S'no lumber'
p30
g4
g5
g6
tp31
a(g1
g2
g30
g4
g5
g8
tp32
a(g1
g2
g30
g4
g10
g6
tp33
a(g1
g2
g30
g4
g10
g8
tp34
a(g1
g2
g30
g4
g13
g6
tp35
a(g1
g2
g30
g4
g13
g8
tp36
a(g1
g2
g30
g16
g5
g6
tp37
a(g1
g2
g30
g16
g5
g8
tp38
a(g1
g2
g30
g16
g10
g6
tp39
a(g1
g2
g30
g16
g10
g8
tp40
a(g1
g2
g30
g16
g13
g6
tp41
a(g1
g2
g30
g16
g13
g8
tp42
a(g1
g2
g30
g23
g5
g6
tp43
a(g1
g2
g30
g23
g5
g8
tp44
a(g1
g2
g30
g23
g10
g6
tp45
a(g1
g2
g30
g23
g10
g8
tp46
a(g1
g2
g30
g23
g13
g6
tp47
a(g1
g2
g30
g23
g13
g8
tp48
a(g1
S'marsh energy low'
p49
g3
g4
g5
g6
tp50
a(g1
g49
g3
g4
g5
g8
tp51
a(g1
g49
g3
g4
g10
g6
tp52
a(g1
g49
g3
g4
g10
g8
tp53
a(g1
g49
g3
g4
g13
g6
tp54
a(g1
g49
g3
g4
g13
g8
tp55
a(g1
g49
g3
g16
g5
g6
tp56
a(g1
g49
g3
g16
g5
g8
tp57
a(g1
g49
g3
g16
g10
g6
tp58
a(g1
g49
g3
g16
g10
g8
tp59
a(g1
g49
g3
g16
g13
g6
tp60
a(g1
g49
g3
g16
g13
g8
tp61
a(g1
g49
g3
g23
g5
g6
tp62
a(g1
g49
g3
g23
g5
g8
tp63
a(g1
g49
g3
g23
g10
g6
tp64
a(g1
g49
g3
g23
g10
g8
tp65
a(g1
g49
g3
g23
g13
g6
tp66
a(g1
g49
g3
g23
g13
g8
tp67
a(g1
g49
g30
g4
g5
g6
tp68
a(g1
g49
g30
g4
g5
g8
tp69
a(g1
g49
g30
g4
g10
g6
tp70
a(g1
g49
g30
g4
g10
g8
tp71
a(g1
g49
g30
g4
g13
g6
tp72
a(g1
g49
g30
g4
g13
g8
tp73
a(g1
g49
g30
g16
g5
g6
tp74
a(g1
g49
g30
g16
g5
g8
tp75
a(g1
g49
g30
g16
g10
g6
tp76
a(g1
g49
g30
g16
g10
g8
tp77
a(g1
g49
g30
g16
g13
g6
tp78
a(g1
g49
g30
g16
g13
g8
tp79
a(g1
g49
g30
g23
g5
g6
tp80
a(g1
g49
g30
g23
g5
g8
tp81
a(g1
g49
g30
g23
g10
g6
tp82
a(g1
g49
g30
g23
g10
g8
tp83
a(g1
g49
g30
g23
g13
g6
tp84
a(g1
g49
g30
g23
g13
g8
tp85
a(g1
S'marsh energy med'
p86
g3
g4
g5
g6
tp87
a(g1
g86
g3
g4
g5
g8
tp88
a(g1
g86
g3
g4
g10
g6
tp89
a(g1
g86
g3
g4
g10
g8
tp90
a(g1
g86
g3
g4
g13
g6
tp91
a(g1
g86
g3
g4
g13
g8
tp92
a(g1
g86
g3
g16
g5
g6
tp93
a(g1
g86
g3
g16
g5
g8
tp94
a(g1
g86
g3
g16
g10
g6
tp95
a(g1
g86
g3
g16
g10
g8
tp96
a(g1
g86
g3
g16
g13
g6
tp97
a(g1
g86
g3
g16
g13
g8
tp98
a(g1
g86
g3
g23
g5
g6
tp99
a(g1
g86
g3
g23
g5
g8
tp100
a(g1
g86
g3
g23
g10
g6
tp101
a(g1
g86
g3
g23
g10
g8
tp102
a(g1
g86
g3
g23
g13
g6
tp103
a(g1
g86
g3
g23
g13
g8
tp104
a(g1
g86
g30
g4
g5
g6
tp105
a(g1
g86
g30
g4
g5
g8
tp106
a(g1
g86
g30
g4
g10
g6
tp107
a(g1
g86
g30
g4
g10
g8
tp108
a(g1
g86
g30
g4
g13
g6
tp109
a(g1
g86
g30
g4
g13
g8
tp110
a(g1
g86
g30
g16
g5
g6
tp111
a(g1
g86
g30
g16
g5
g8
tp112
a(g1
g86
g30
g16
g10
g6
tp113
a(g1
g86
g30
g16
g10
g8
tp114
a(g1
g86
g30
g16
g13
g6
tp115
a(g1
g86
g30
g16
g13
g8
tp116
a(g1
g86
g30
g23
g5
g6
tp117
a(g1
g86
g30
g23
g5
g8
tp118
a(g1
g86
g30
g23
g10
g6
tp119
a(g1
g86
g30
g23
g10
g8
tp120
a(g1
g86
g30
g23
g13
g6
tp121
a(g1
g86
g30
g23
g13
g8
tp122
a(S'beaver energy low'
p123
g2
g3
g4
g5
g6
tp124
a(g123
g2
g3
g4
g5
g8
tp125
a(g123
g2
g3
g4
g10
g6
tp126
a(g123
g2
g3
g4
g10
g8
tp127
a(g123
g2
g3
g4
g13
g6
tp128
a(g123
g2
g3
g4
g13
g8
tp129
a(g123
g2
g3
g16
g5
g6
tp130
a(g123
g2
g3
g16
g5
g8
tp131
a(g123
g2
g3
g16
g10
g6
tp132
a(g123
g2
g3
g16
g10
g8
tp133
a(g123
g2
g3
g16
g13
g6
tp134
a(g123
g2
g3
g16
g13
g8
tp135
a(g123
g2
g3
g23
g5
g6
tp136
a(g123
g2
g3
g23
g5
g8
tp137
a(g123
g2
g3
g23
g10
g6
tp138
a(g123
g2
g3
g23
g10
g8
tp139
a(g123
g2
g3
g23
g13
g6
tp140
a(g123
g2
g3
g23
g13
g8
tp141
a(g123
g2
g30
g4
g5
g6
tp142
a(g123
g2
g30
g4
g5
g8
tp143
a(g123
g2
g30
g4
g10
g6
tp144
a(g123
g2
g30
g4
g10
g8
tp145
a(g123
g2
g30
g4
g13
g6
tp146
a(g123
g2
g30
g4
g13
g8
tp147
a(g123
g2
g30
g16
g5
g6
tp148
a(g123
g2
g30
g16
g5
g8
tp149
a(g123
g2
g30
g16
g10
g6
tp150
a(g123
g2
g30
g16
g10
g8
tp151
a(g123
g2
g30
g16
g13
g6
tp152
a(g123
g2
g30
g16
g13
g8
tp153
a(g123
g2
g30
g23
g5
g6
tp154
a(g123
g2
g30
g23
g5
g8
tp155
a(g123
g2
g30
g23
g10
g6
tp156
a(g123
g2
g30
g23
g10
g8
tp157
a(g123
g2
g30
g23
g13
g6
tp158
a(g123
g2
g30
g23
g13
g8
tp159
a(g123
g49
g3
g4
g5
g6
tp160
a(g123
g49
g3
g4
g5
g8
tp161
a(g123
g49
g3
g4
g10
g6
tp162
a(g123
g49
g3
g4
g10
g8
tp163
a(g123
g49
g3
g4
g13
g6
tp164
a(g123
g49
g3
g4
g13
g8
tp165
a(g123
g49
g3
g16
g5
g6
tp166
a(g123
g49
g3
g16
g5
g8
tp167
a(g123
g49
g3
g16
g10
g6
tp168
a(g123
g49
g3
g16
g10
g8
tp169
a(g123
g49
g3
g16
g13
g6
tp170
a(g123
g49
g3
g16
g13
g8
tp171
a(g123
g49
g3
g23
g5
g6
tp172
a(g123
g49
g3
g23
g5
g8
tp173
a(g123
g49
g3
g23
g10
g6
tp174
a(g123
g49
g3
g23
g10
g8
tp175
a(g123
g49
g3
g23
g13
g6
tp176
a(g123
g49
g3
g23
g13
g8
tp177
a(g123
g49
g30
g4
g5
g6
tp178
a(g123
g49
g30
g4
g5
g8
tp179
a(g123
g49
g30
g4
g10
g6
tp180
a(g123
g49
g30
g4
g10
g8
tp181
a(g123
g49
g30
g4
g13
g6
tp182
a(g123
g49
g30
g4
g13
g8
tp183
a(g123
g49
g30
g16
g5
g6
tp184
a(g123
g49
g30
g16
g5
g8
tp185
a(g123
g49
g30
g16
g10
g6
tp186
a(g123
g49
g30
g16
g10
g8
tp187
a(g123
g49
g30
g16
g13
g6
tp188
a(g123
g49
g30
g16
g13
g8
tp189
a(g123
g49
g30
g23
g5
g6
tp190
a(g123
g49
g30
g23
g5
g8
tp191
a(g123
g49
g30
g23
g10
g6
tp192
a(g123
g49
g30
g23
g10
g8
tp193
a(g123
g49
g30
g23
g13
g6
tp194
a(g123
g49
g30
g23
g13
g8
tp195
a(g123
g86
g3
g4
g5
g6
tp196
a(g123
g86
g3
g4
g5
g8
tp197
a(g123
g86
g3
g4
g10
g6
tp198
a(g123
g86
g3
g4
g10
g8
tp199
a(g123
g86
g3
g4
g13
g6
tp200
a(g123
g86
g3
g4
g13
g8
tp201
a(g123
g86
g3
g16
g5
g6
tp202
a(g123
g86
g3
g16
g5
g8
tp203
a(g123
g86
g3
g16
g10
g6
tp204
a(g123
g86
g3
g16
g10
g8
tp205
a(g123
g86
g3
g16
g13
g6
tp206
a(g123
g86
g3
g16
g13
g8
tp207
a(g123
g86
g3
g23
g5
g6
tp208
a(g123
g86
g3
g23
g5
g8
tp209
a(g123
g86
g3
g23
g10
g6
tp210
a(g123
g86
g3
g23
g10
g8
tp211
a(g123
g86
g3
g23
g13
g6
tp212
a(g123
g86
g3
g23
g13
g8
tp213
a(g123
g86
g30
g4
g5
g6
tp214
a(g123
g86
g30
g4
g5
g8
tp215
a(g123
g86
g30
g4
g10
g6
tp216
a(g123
g86
g30
g4
g10
g8
tp217
a(g123
g86
g30
g4
g13
g6
tp218
a(g123
g86
g30
g4
g13
g8
tp219
a(g123
g86
g30
g16
g5
g6
tp220
a(g123
g86
g30
g16
g5
g8
tp221
a(g123
g86
g30
g16
g10
g6
tp222
a(g123
g86
g30
g16
g10
g8
tp223
a(g123
g86
g30
g16
g13
g6
tp224
a(g123
g86
g30
g16
g13
g8
tp225
a(g123
g86
g30
g23
g5
g6
tp226
a(g123
g86
g30
g23
g5
g8
tp227
a(g123
g86
g30
g23
g10
g6
tp228
a(g123
g86
g30
g23
g10
g8
tp229
a(g123
g86
g30
g23
g13
g6
tp230
a(g123
g86
g30
g23
g13
g8
tp231
a(S'beaver energy med'
p232
g2
g3
g4
g5
g6
tp233
a(g232
g2
g3
g4
g5
g8
tp234
a(g232
g2
g3
g4
g10
g6
tp235
a(g232
g2
g3
g4
g10
g8
tp236
a(g232
g2
g3
g4
g13
g6
tp237
a(g232
g2
g3
g4
g13
g8
tp238
a(g232
g2
g3
g16
g5
g6
tp239
a(g232
g2
g3
g16
g5
g8
tp240
a(g232
g2
g3
g16
g10
g6
tp241
a(g232
g2
g3
g16
g10
g8
tp242
a(g232
g2
g3
g16
g13
g6
tp243
a(g232
g2
g3
g16
g13
g8
tp244
a(g232
g2
g3
g23
g5
g6
tp245
a(g232
g2
g3
g23
g5
g8
tp246
a(g232
g2
g3
g23
g10
g6
tp247
a(g232
g2
g3
g23
g10
g8
tp248
a(g232
g2
g3
g23
g13
g6
tp249
a(g232
g2
g3
g23
g13
g8
tp250
a(g232
g2
g30
g4
g5
g6
tp251
a(g232
g2
g30
g4
g5
g8
tp252
a(g232
g2
g30
g4
g10
g6
tp253
a(g232
g2
g30
g4
g10
g8
tp254
a(g232
g2
g30
g4
g13
g6
tp255
a(g232
g2
g30
g4
g13
g8
tp256
a(g232
g2
g30
g16
g5
g6
tp257
a(g232
g2
g30
g16
g5
g8
tp258
a(g232
g2
g30
g16
g10
g6
tp259
a(g232
g2
g30
g16
g10
g8
tp260
a(g232
g2
g30
g16
g13
g6
tp261
a(g232
g2
g30
g16
g13
g8
tp262
a(g232
g2
g30
g23
g5
g6
tp263
a(g232
g2
g30
g23
g5
g8
tp264
a(g232
g2
g30
g23
g10
g6
tp265
a(g232
g2
g30
g23
g10
g8
tp266
a(g232
g2
g30
g23
g13
g6
tp267
a(g232
g2
g30
g23
g13
g8
tp268
a(g232
g49
g3
g4
g5
g6
tp269
a(g232
g49
g3
g4
g5
g8
tp270
a(g232
g49
g3
g4
g10
g6
tp271
a(g232
g49
g3
g4
g10
g8
tp272
a(g232
g49
g3
g4
g13
g6
tp273
a(g232
g49
g3
g4
g13
g8
tp274
a(g232
g49
g3
g16
g5
g6
tp275
a(g232
g49
g3
g16
g5
g8
tp276
a(g232
g49
g3
g16
g10
g6
tp277
a(g232
g49
g3
g16
g10
g8
tp278
a(g232
g49
g3
g16
g13
g6
tp279
a(g232
g49
g3
g16
g13
g8
tp280
a(g232
g49
g3
g23
g5
g6
tp281
a(g232
g49
g3
g23
g5
g8
tp282
a(g232
g49
g3
g23
g10
g6
tp283
a(g232
g49
g3
g23
g10
g8
tp284
a(g232
g49
g3
g23
g13
g6
tp285
a(g232
g49
g3
g23
g13
g8
tp286
a(g232
g49
g30
g4
g5
g6
tp287
a(g232
g49
g30
g4
g5
g8
tp288
a(g232
g49
g30
g4
g10
g6
tp289
a(g232
g49
g30
g4
g10
g8
tp290
a(g232
g49
g30
g4
g13
g6
tp291
a(g232
g49
g30
g4
g13
g8
tp292
a(g232
g49
g30
g16
g5
g6
tp293
a(g232
g49
g30
g16
g5
g8
tp294
a(g232
g49
g30
g16
g10
g6
tp295
a(g232
g49
g30
g16
g10
g8
tp296
a(g232
g49
g30
g16
g13
g6
tp297
a(g232
g49
g30
g16
g13
g8
tp298
a(g232
g49
g30
g23
g5
g6
tp299
a(g232
g49
g30
g23
g5
g8
tp300
a(g232
g49
g30
g23
g10
g6
tp301
a(g232
g49
g30
g23
g10
g8
tp302
a(g232
g49
g30
g23
g13
g6
tp303
a(g232
g49
g30
g23
g13
g8
tp304
a(g232
g86
g3
g4
g5
g6
tp305
a(g232
g86
g3
g4
g5
g8
tp306
a(g232
g86
g3
g4
g10
g6
tp307
a(g232
g86
g3
g4
g10
g8
tp308
a(g232
g86
g3
g4
g13
g6
tp309
a(g232
g86
g3
g4
g13
g8
tp310
a(g232
g86
g3
g16
g5
g6
tp311
a(g232
g86
g3
g16
g5
g8
tp312
a(g232
g86
g3
g16
g10
g6
tp313
a(g232
g86
g3
g16
g10
g8
tp314
a(g232
g86
g3
g16
g13
g6
tp315
a(g232
g86
g3
g16
g13
g8
tp316
a(g232
g86
g3
g23
g5
g6
tp317
a(g232
g86
g3
g23
g5
g8
tp318
a(g232
g86
g3
g23
g10
g6
tp319
a(g232
g86
g3
g23
g10
g8
tp320
a(g232
g86
g3
g23
g13
g6
tp321
a(g232
g86
g3
g23
g13
g8
tp322
a(g232
g86
g30
g4
g5
g6
tp323
a(g232
g86
g30
g4
g5
g8
tp324
a(g232
g86
g30
g4
g10
g6
tp325
a(g232
g86
g30
g4
g10
g8
tp326
a(g232
g86
g30
g4
g13
g6
tp327
a(g232
g86
g30
g4
g13
g8
tp328
a(g232
g86
g30
g16
g5
g6
tp329
a(g232
g86
g30
g16
g5
g8
tp330
a(g232
g86
g30
g16
g10
g6
tp331
a(g232
g86
g30
g16
g10
g8
tp332
a(g232
g86
g30
g16
g13
g6
tp333
a(g232
g86
g30
g16
g13
g8
tp334
a(g232
g86
g30
g23
g5
g6
tp335
a(g232
g86
g30
g23
g5
g8
tp336
a(g232
g86
g30
g23
g10
g6
tp337
a(g232
g86
g30
g23
g10
g8
tp338
a(g232
g86
g30
g23
g13
g6
tp339
a(g232
g86
g30
g23
g13
g8
tp340
a(S'beaver energy zero'
p341
g2
g3
g4
g5
g6
tp342
a(g341
g2
g3
g4
g5
g8
tp343
a(g341
g2
g3
g4
g10
g6
tp344
a(g341
g2
g3
g4
g10
g8
tp345
a(g341
g2
g3
g4
g13
g6
tp346
a(g341
g2
g3
g4
g13
g8
tp347
a(g341
g2
g3
g16
g5
g6
tp348
a(g341
g2
g3
g16
g5
g8
tp349
a(g341
g2
g3
g16
g10
g6
tp350
a(g341
g2
g3
g16
g10
g8
tp351
a(g341
g2
g3
g16
g13
g6
tp352
a(g341
g2
g3
g16
g13
g8
tp353
a(g341
g2
g3
g23
g5
g6
tp354
a(g341
g2
g3
g23
g5
g8
tp355
a(g341
g2
g3
g23
g10
g6
tp356
a(g341
g2
g3
g23
g10
g8
tp357
a(g341
g2
g3
g23
g13
g6
tp358
a(g341
g2
g3
g23
g13
g8
tp359
a(g341
g2
g30
g4
g5
g6
tp360
a(g341
g2
g30
g4
g5
g8
tp361
a(g341
g2
g30
g4
g10
g6
tp362
a(g341
g2
g30
g4
g10
g8
tp363
a(g341
g2
g30
g4
g13
g6
tp364
a(g341
g2
g30
g4
g13
g8
tp365
a(g341
g2
g30
g16
g5
g6
tp366
a(g341
g2
g30
g16
g5
g8
tp367
a(g341
g2
g30
g16
g10
g6
tp368
a(g341
g2
g30
g16
g10
g8
tp369
a(g341
g2
g30
g16
g13
g6
tp370
a(g341
g2
g30
g16
g13
g8
tp371
a(g341
g2
g30
g23
g5
g6
tp372
a(g341
g2
g30
g23
g5
g8
tp373
a(g341
g2
g30
g23
g10
g6
tp374
a(g341
g2
g30
g23
g10
g8
tp375
a(g341
g2
g30
g23
g13
g6
tp376
a(g341
g2
g30
g23
g13
g8
tp377
a(g341
g49
g3
g4
g5
g6
tp378
a(g341
g49
g3
g4
g5
g8
tp379
a(g341
g49
g3
g4
g10
g6
tp380
a(g341
g49
g3
g4
g10
g8
tp381
a(g341
g49
g3
g4
g13
g6
tp382
a(g341
g49
g3
g4
g13
g8
tp383
a(g341
g49
g3
g16
g5
g6
tp384
a(g341
g49
g3
g16
g5
g8
tp385
a(g341
g49
g3
g16
g10
g6
tp386
a(g341
g49
g3
g16
g10
g8
tp387
a(g341
g49
g3
g16
g13
g6
tp388
a(g341
g49
g3
g16
g13
g8
tp389
a(g341
g49
g3
g23
g5
g6
tp390
a(g341
g49
g3
g23
g5
g8
tp391
a(g341
g49
g3
g23
g10
g6
tp392
a(g341
g49
g3
g23
g10
g8
tp393
a(g341
g49
g3
g23
g13
g6
tp394
a(g341
g49
g3
g23
g13
g8
tp395
a(g341
g49
g30
g4
g5
g6
tp396
a(g341
g49
g30
g4
g5
g8
tp397
a(g341
g49
g30
g4
g10
g6
tp398
a(g341
g49
g30
g4
g10
g8
tp399
a(g341
g49
g30
g4
g13
g6
tp400
a(g341
g49
g30
g4
g13
g8
tp401
a(g341
g49
g30
g16
g5
g6
tp402
a(g341
g49
g30
g16
g5
g8
tp403
a(g341
g49
g30
g16
g10
g6
tp404
a(g341
g49
g30
g16
g10
g8
tp405
a(g341
g49
g30
g16
g13
g6
tp406
a(g341
g49
g30
g16
g13
g8
tp407
a(g341
g49
g30
g23
g5
g6
tp408
a(g341
g49
g30
g23
g5
g8
tp409
a(g341
g49
g30
g23
g10
g6
tp410
a(g341
g49
g30
g23
g10
g8
tp411
a(g341
g49
g30
g23
g13
g6
tp412
a(g341
g49
g30
g23
g13
g8
tp413
a(g341
g86
g3
g4
g5
g6
tp414
a(g341
g86
g3
g4
g5
g8
tp415
a(g341
g86
g3
g4
g10
g6
tp416
a(g341
g86
g3
g4
g10
g8
tp417
a(g341
g86
g3
g4
g13
g6
tp418
a(g341
g86
g3
g4
g13
g8
tp419
a(g341
g86
g3
g16
g5
g6
tp420
a(g341
g86
g3
g16
g5
g8
tp421
a(g341
g86
g3
g16
g10
g6
tp422
a(g341
g86
g3
g16
g10
g8
tp423
a(g341
g86
g3
g16
g13
g6
tp424
a(g341
g86
g3
g16
g13
g8
tp425
a(g341
g86
g3
g23
g5
g6
tp426
a(g341
g86
g3
g23
g5
g8
tp427
a(g341
g86
g3
g23
g10
g6
tp428
a(g341
g86
g3
g23
g10
g8
tp429
a(g341
g86
g3
g23
g13
g6
tp430
a(g341
g86
g3
g23
g13
g8
tp431
a(g341
g86
g30
g4
g5
g6
tp432
a(g341
g86
g30
g4
g5
g8
tp433
a(g341
g86
g30
g4
g10
g6
tp434
a(g341
g86
g30
g4
g10
g8
tp435
a(g341
g86
g30
g4
g13
g6
tp436
a(g341
g86
g30
g4
g13
g8
tp437
a(g341
g86
g30
g16
g5
g6
tp438
a(g341
g86
g30
g16
g5
g8
tp439
a(g341
g86
g30
g16
g10
g6
tp440
a(g341
g86
g30
g16
g10
g8
tp441
a(g341
g86
g30
g16
g13
g6
tp442
a(g341
g86
g30
g16
g13
g8
tp443
a(g341
g86
g30
g23
g5
g6
tp444
a(g341
g86
g30
g23
g5
g8
tp445
a(g341
g86
g30
g23
g10
g6
tp446
a(g341
g86
g30
g23
g10
g8
tp447
a(g341
g86
g30
g23
g13
g6
tp448
a(g341
g86
g30
g23
g13
g8
tp449
a.