(dp0
(S'beaver energy high'
p1
S'marsh energy high'
p2
S'no lumber'
p3
S'see tree'
p4
S'at marsh'
p5
S'none wolf'
p6
S'pick up lumber'
p7
tp8
I0
s(S'beaver energy med'
p9
g2
S'has lumber'
p10
S'at tree'
p11
S'none marsh'
p12
S'see wolf'
p13
S'eat'
p14
tp15
F0.003
s(g1
S'marsh energy low'
p16
g3
g11
g12
g13
S'drop lumber'
p17
tp18
I0
s(S'beaver energy low'
p19
g16
g10
g11
g5
g6
g7
tp20
F0.0026249999999999997
s(g9
g2
g10
g4
g5
g6
g14
tp21
I0
s(S'beaver energy zero'
p22
g16
g3
g4
g12
g13
g14
tp23
I0
s(g9
g16
g10
S'none tree'
p24
S'see marsh'
p25
g6
S'move to tree'
p26
tp27
F0.002835
s(g1
g2
g3
g24
g25
g6
g17
tp28
I0
s(g9
S'marsh energy med'
p29
g3
g11
g12
g13
g7
tp30
I0
s(g19
g29
g3
g24
g12
g6
S'move to marsh'
p31
tp32
F0.0015749999999999998
s(g22
g16
g10
g24
g5
g13
g14
tp33
I0
s(g9
g16
g10
g4
g25
g6
g14
tp34
I0
s(g1
g16
g3
g11
g5
g6
g7
tp35
I0
s(g22
g29
g10
g24
g5
g13
g7
tp36
I0
s(g1
g2
g3
g4
g5
g13
g26
tp37
F0.00675
s(g9
g29
g3
g11
g25
g6
g14
tp38
F0.0525
s(g1
g16
g10
g4
g5
g6
g31
tp39
F0.0052499999999999995
s(g19
g29
g10
g24
g12
g6
g14
tp40
I0
s(g22
g2
g3
g11
g5
g6
g17
tp41
I0
s(g9
g2
g10
g11
g25
g13
g7
tp42
F0.00375
s(g1
g2
g10
g24
g5
g13
g31
tp43
F0.001875
s(g22
g29
g10
g11
g12
g13
g14
tp44
F0.0
s(g1
g2
g3
g11
g5
g6
g17
tp45
I0
s(g1
g2
g10
g4
g5
g6
g31
tp46
F0.0525
s(g22
g29
g10
g11
g25
g13
g14
tp47
F0.0
s(g22
g16
g10
g24
g12
g13
g7
tp48
I0
s(g19
g16
g3
g24
g5
g6
g26
tp49
F0.0014175
s(g19
g16
g3
g11
g25
g13
g14
tp50
F0.000375
s(g22
g29
g3
g11
g25
g6
g14
tp51
F0.0
s(g19
g29
g3
g24
g12
g13
g31
tp52
F0.0001125
s(g9
g2
g3
g4
g25
g13
g7
tp53
I0
s(g1
g29
g10
g24
g12
g6
g14
tp54
I0
s(g22
g16
g3
g4
g25
g6
g14
tp55
I0
s(g1
g16
g3
g11
g12
g6
g7
tp56
I0
s(g19
g2
g10
g24
g25
g6
g7
tp57
I0
s(g1
g29
g10
g11
g12
g13
g7
tp58
F0.0012500000000000002
s(g1
g2
g10
g4
g12
g6
g7
tp59
I0
s(g19
g16
g3
g11
g25
g13
g17
tp60
I0
s(g1
g2
g3
g11
g25
g6
g14
tp61
F0.175
s(g9
g2
g3
g4
g25
g6
g31
tp62
F0.0315
s(g19
g16
g10
g11
g5
g13
g26
tp63
F0.0003375
s(g9
g2
g10
g24
g12
g13
g14
tp64
I0
s(g19
g2
g3
g11
g5
g6
g7
tp65
I0
s(g19
g16
g3
g4
g12
g13
g14
tp66
I0
s(g9
g16
g3
g24
g5
g6
g17
tp67
I0
s(g19
g29
g3
g24
g5
g6
g14
tp68
I0
s(g22
g29
g10
g24
g12
g13
g14
tp69
I0
s(g22
g2
g3
g11
g5
g13
g31
tp70
F0.0
s(g9
g29
g3
g11
g5
g13
g14
tp71
F0.00375
s(g19
g2
g10
g24
g25
g6
g17
tp72
F0.007875
s(g9
g2
g10
g4
g5
g13
g31
tp73
F0.00225
s(g22
g29
g3
g4
g12
g6
g7
tp74
I0
s(g22
g2
g3
g24
g12
g6
g17
tp75
I0
s(g22
g29
g3
g11
g5
g6
g31
tp76
F0.0
s(g19
g2
g3
g11
g25
g13
g31
tp77
F0.001875
s(g22
g2
g10
g11
g25
g6
g7
tp78
F0.0
s(g9
g29
g3
g11
g5
g6
g17
tp79
I0
s(g19
g29
g10
g11
g5
g6
g26
tp80
F0.023625
s(g1
g16
g10
g24
g25
g6
g31
tp81
F0.0026249999999999997
s(g9
g29
g10
g24
g5
g6
g17
tp82
F0.007875
s(g1
g16
g10
g11
g12
g6
g7
tp83
F0.0035000000000000005
s(g9
g16
g3
g11
g5
g6
g31
tp84
F0.0052499999999999995
s(g1
g16
g10
g24
g5
g6
g14
tp85
I0
s(g9
g16
g3
g4
g5
g6
g31
tp86
F0.0031499999999999996
s(g22
g16
g10
g4
g12
g13
g17
tp87
F0.0
s(g22
g29
g10
g4
g12
g13
g26
tp88
F0.0
s(g9
g29
g10
g24
g25
g13
g14
tp89
I0
s(g1
g29
g10
g24
g25
g6
g17
tp90
F0.013125
s(g22
g16
g10
g24
g25
g6
g17
tp91
F0.0
s(g22
g16
g3
g24
g25
g6
g17
tp92
I0
s(g9
g16
g10
g11
g5
g13
g17
tp93
F0.000375
s(g9
g29
g3
g24
g5
g13
g14
tp94
I0
s(g1
g29
g3
g11
g12
g13
g26
tp95
F0.0022500000000000007
s(g1
g29
g3
g11
g12
g13
g7
tp96
I0
s(g9
g16
g3
g24
g5
g13
g31
tp97
F0.0001125
s(g9
g16
g3
g24
g12
g13
g14
tp98
I0
s(g1
g29
g10
g11
g25
g13
g26
tp99
F0.005625000000000001
s(g22
g2
g10
g24
g25
g13
g17
tp100
F0.0
s(g22
g2
g3
g24
g25
g6
g31
tp101
F0.0
s(g1
g29
g10
g4
g25
g13
g14
tp102
I0
s(g22
g29
g3
g24
g25
g13
g14
tp103
I0
s(g19
g2
g10
g4
g25
g13
g14
tp104
I0
s(g9
g2
g10
g24
g12
g6
g26
tp105
F0.01134
s(g22
g2
g10
g4
g25
g6
g14
tp106
I0
s(g9
g2
g3
g24
g12
g13
g26
tp107
F0.00081
s(g19
g2
g3
g24
g25
g13
g14
tp108
I0
s(g9
g16
g10
g24
g5
g13
g14
tp109
I0
s(g19
g29
g10
g4
g12
g6
g7
tp110
I0
s(g22
g2
g3
g4
g25
g13
g26
tp111
F0.0
s(g22
g16
g10
g11
g12
g13
g31
tp112
F0.0
s(g1
g29
g10
g4
g5
g6
g17
tp113
F0.02625
s(g22
g29
g3
g4
g25
g6
g31
tp114
F0.0
s(g19
g2
g3
g11
g25
g6
g7
tp115
I0
s(g1
g2
g3
g4
g5
g13
g7
tp116
I0
s(g9
g16
g10
g11
g12
g13
g26
tp117
F0.00027000000000000006
s(g1
g2
g10
g24
g5
g6
g26
tp118
F0.04725
s(g19
g2
g3
g4
g12
g13
g31
tp119
F0.00045
s(g22
g29
g3
g24
g12
g6
g7
tp120
I0
s(g1
g2
g10
g11
g25
g13
g17
tp121
F0.00625
s(g22
g16
g3
g24
g12
g6
g14
tp122
I0
s(g19
g2
g3
g4
g25
g6
g14
tp123
I0
s(g1
g29
g3
g11
g5
g13
g17
tp124
I0
s(g19
g2
g3
g11
g25
g6
g26
tp125
F0.04725
s(g1
g16
g10
g24
g12
g6
g7
tp126
I0
s(g19
g16
g10
g11
g12
g6
g31
tp127
F0.00105
s(g19
g2
g3
g4
g12
g6
g17
tp128
I0
s(g9
g2
g3
g11
g5
g13
g31
tp129
F0.00375
s(g9
g16
g10
g24
g12
g13
g14
tp130
I0
s(g9
g2
g3
g11
g5
g6
g26
tp131
F0.0945
s(g9
g29
g3
g11
g25
g6
g17
tp132
I0
s(g22
g29
g3
g24
g25
g6
g14
tp133
I0
s(g1
g29
g10
g4
g25
g6
g26
tp134
F0.04725
s(g19
g2
g10
g11
g12
g6
g31
tp135
F0.010499999999999999
s(g1
g29
g3
g24
g5
g6
g17
tp136
I0
s(g1
g16
g3
g4
g25
g13
g14
tp137
I0
s(g22
g16
g3
g4
g5
g13
g31
tp138
F0.0
s(g22
g29
g10
g4
g5
g6
g17
tp139
F0.0
s(g19
g2
g3
g24
g25
g6
g14
tp140
I0
s(g1
g16
g3
g11
g5
g13
g26
tp141
F0.0011250000000000003
s(g19
g2
g10
g11
g5
g6
g26
tp142
F0.04725
s(g9
g29
g10
g11
g12
g6
g31
tp143
F0.010499999999999999
s(g1
g16
g10
g24
g5
g6
g17
tp144
F0.0026249999999999997
s(g22
g29
g3
g4
g25
g6
g14
tp145
I0
s(g9
g16
g3
g11
g5
g6
g14
tp146
F0.010499999999999999
s(g9
g16
g10
g11
g25
g13
g14
tp147
F0.00075
s(g22
g29
g10
g4
g25
g13
g17
tp148
F0.0
s(g19
g2
g10
g24
g12
g13
g17
tp149
F0.000225
s(g19
g16
g3
g11
g5
g6
g14
tp150
F0.0052499999999999995
s(g22
g16
g10
g24
g25
g13
g7
tp151
I0
s(g1
g2
g3
g4
g25
g6
g7
tp152
I0
s(g1
g16
g3
g24
g25
g6
g17
tp153
I0
s(g22
g16
g10
g11
g25
g6
g7
tp154
F0.0
s(g19
g29
g3
g24
g25
g13
g7
tp155
I0
s(g22
g29
g3
g24
g5
g13
g17
tp156
I0
s(g22
g16
g3
g4
g25
g13
g7
tp157
I0
s(g22
g16
g10
g11
g5
g6
g7
tp158
F0.0
s(g9
g2
g10
g4
g25
g13
g31
tp159
F0.00225
s(g9
g29
g3
g11
g12
g6
g31
tp160
F0.010499999999999999
s(g22
g29
g10
g24
g12
g13
g31
tp161
F0.0
s(g22
g2
g3
g4
g5
g6
g7
tp162
I0
s(g1
g2
g10
g11
g5
g6
g17
tp163
F0.0875
s(g1
g16
g10
g24
g25
g6
g14
tp164
I0
s(g19
g29
g10
g11
g12
g6
g26
tp165
F0.00945
s(g9
g16
g10
g24
g12
g6
g31
tp166
F0.0006299999999999999
s(g19
g29
g10
g4
g5
g13
g31
tp167
F0.0005625
s(g19
g2
g3
g11
g25
g6
g31
tp168
F0.02625
s(g22
g16
g10
g4
g25
g6
g31
tp169
F0.0
s(g19
g2
g3
g24
g12
g13
g14
tp170
I0
s(g19
g16
g3
g4
g12
g6
g7
tp171
I0
s(g19
g2
g3
g4
g12
g13
g14
tp172
I0
s(g1
g16
g3
g11
g12
g6
g31
tp173
F0.0035000000000000005
s(g19
g29
g10
g4
g5
g13
g7
tp174
I0
s(g9
g16
g3
g4
g5
g13
g26
tp175
F0.000405
s(g9
g16
g10
g11
g5
g6
g7
tp176
F0.0052499999999999995
s(g1
g29
g10
g4
g5
g13
g31
tp177
F0.001875
s(g19
g16
g3
g11
g12
g13
g26
tp178
F0.00013500000000000003
s(g19
g29
g3
g24
g25
g6
g31
tp179
F0.0039375
s(g1
g29
g3
g11
g25
g13
g26
tp180
F0.005625000000000001
s(g9
g16
g3
g11
g25
g6
g14
tp181
F0.010499999999999999
s(g1
g2
g10
g24
g12
g6
g26
tp182
F0.0189
s(g19
g29
g3
g4
g25
g13
g7
tp183
I0
s(g19
g2
g10
g11
g25
g13
g26
tp184
F0.003375
s(g19
g16
g3
g4
g5
g13
g7
tp185
I0
s(g1
g2
g10
g4
g5
g13
g14
tp186
I0
s(g1
g16
g10
g24
g5
g13
g7
tp187
I0
s(g22
g29
g3
g4
g25
g13
g14
tp188
I0
s(g9
g16
g3
g11
g12
g6
g7
tp189
I0
s(g9
g2
g3
g11
g12
g6
g31
tp190
F0.020999999999999998
s(g19
g16
g10
g24
g12
g6
g31
tp191
F0.00031499999999999996
s(g9
g29
g10
g4
g25
g13
g26
tp192
F0.002025
s(g19
g2
g10
g4
g12
g6
g17
tp193
F0.006299999999999999
s(g9
g29
g10
g24
g25
g6
g26
tp194
F0.014175
s(g1
g16
g3
g24
g5
g13
g17
tp195
I0
s(g9
g16
g3
g4
g25
g13
g7
tp196
I0
s(g19
g2
g10
g24
g25
g13
g14
tp197
I0
s(g9
g29
g3
g11
g25
g13
g17
tp198
I0
s(g9
g29
g3
g24
g12
g6
g31
tp199
F0.0031499999999999996
s(g19
g29
g3
g4
g5
g6
g14
tp200
I0
s(g22
g16
g10
g4
g5
g6
g31
tp201
F0.0
s(g1
g16
g3
g4
g12
g6
g14
tp202
I0
s(g19
g29
g10
g11
g25
g13
g14
tp203
F0.001875
s(g1
g16
g3
g11
g25
g6
g14
tp204
F0.017499999999999998
s(g1
g16
g3
g4
g5
g13
g7
tp205
I0
s(g19
g29
g10
g11
g5
g13
g7
tp206
F0.0009375
s(g1
g2
g10
g11
g12
g6
g14
tp207
F0.06999999999999999
s(g22
g16
g3
g24
g25
g6
g31
tp208
F0.0
s(g19
g2
g3
g11
g5
g13
g26
tp209
F0.003375
s(g22
g29
g10
g11
g5
g6
g31
tp210
F0.0
s(g9
g2
g3
g24
g25
g6
g7
tp211
I0
s(g19
g16
g10
g24
g5
g13
g17
tp212
F5.625e-05
s(g22
g2
g3
g24
g12
g13
g26
tp213
F0.0
s(g1
g16
g3
g11
g5
g13
g14
tp214
F0.0012500000000000002
s(g19
g2
g10
g24
g5
g6
g14
tp215
I0
s(g22
g2
g10
g24
g5
g6
g7
tp216
I0
s(g22
g16
g10
g4
g25
g6
g7
tp217
I0
s(g22
g29
g10
g11
g12
g13
g31
tp218
F0.0
s(g22
g29
g3
g11
g12
g6
g7
tp219
I0
s(g9
g16
g3
g24
g25
g6
g17
tp220
I0
s(g19
g2
g3
g24
g12
g13
g31
tp221
F0.000225
s(g9
g29
g10
g24
g12
g13
g17
tp222
F0.000225
s(g1
g16
g10
g4
g12
g6
g7
tp223
I0
s(g19
g2
g10
g4
g5
g13
g31
tp224
F0.001125
s(g19
g29
g3
g11
g12
g6
g17
tp225
I0
s(g9
g29
g3
g24
g25
g6
g7
tp226
I0
s(g9
g29
g10
g24
g5
g13
g7
tp227
I0
s(g9
g2
g10
g11
g25
g13
g17
tp228
F0.00375
s(g9
g2
g3
g11
g25
g6
g7
tp229
I0
s(g19
g2
g3
g24
g5
g6
g17
tp230
I0
s(g22
g16
g10
g24
g5
g6
g17
tp231
F0.0
s(g19
g2
g3
g4
g12
g13
g26
tp232
F0.00081
s(g1
g29
g3
g24
g25
g13
g14
tp233
I0
s(g9
g29
g3
g11
g25
g6
g31
tp234
F0.02625
s(g22
g2
g10
g11
g12
g6
g26
tp235
F0.0
s(g9
g29
g3
g11
g12
g13
g31
tp236
F0.00075
s(g22
g2
g10
g11
g5
g6
g26
tp237
F0.0
s(g19
g29
g3
g4
g5
g13
g26
tp238
F0.0010125
s(g22
g2
g3
g4
g12
g13
g17
tp239
I0
s(g19
g29
g3
g11
g25
g6
g26
tp240
F0.023625
s(g22
g2
g3
g4
g25
g6
g7
tp241
I0
s(g9
g2
g10
g11
g25
g6
g7
tp242
F0.0525
s(g1
g2
g10
g24
g5
g6
g31
tp243
F0.02625
s(g9
g2
g10
g24
g12
g6
g31
tp244
F0.006299999999999999
s(g19
g16
g3
g4
g5
g6
g14
tp245
I0
s(g22
g29
g3
g24
g25
g13
g17
tp246
I0
s(g19
g2
g10
g11
g12
g6
g7
tp247
F0.010499999999999999
s(g22
g16
g10
g4
g5
g6
g14
tp248
I0
s(g9
g29
g10
g4
g12
g6
g7
tp249
I0
s(g22
g16
g10
g11
g5
g13
g7
tp250
F0.0
s(g22
g16
g3
g11
g5
g6
g14
tp251
F0.0
s(g22
g16
g10
g4
g25
g13
g14
tp252
I0
s(g9
g29
g10
g24
g12
g6
g14
tp253
I0
s(g9
g16
g3
g24
g12
g13
g17
tp254
I0
s(g1
g16
g3
g4
g12
g6
g26
tp255
F0.00378
s(g1
g29
g3
g24
g12
g13
g26
tp256
F0.000675
s(g1
g2
g10
g4
g12
g13
g7
tp257
I0
s(g19
g29
g10
g11
g12
g13
g14
tp258
F0.00075
s(g9
g29
g3
g4
g25
g13
g31
tp259
F0.001125
s(g9
g16
g3
g4
g12
g6
g14
tp260
I0
s(g22
g16
g3
g24
g12
g6
g31
tp261
F0.0
s(g22
g29
g3
g11
g12
g6
g31
tp262
F0.0
s(g1
g2
g3
g24
g25
g6
g14
tp263
I0
s(g1
g16
g3
g4
g25
g13
g26
tp264
F0.000675
s(g9
g29
g10
g4
g5
g13
g31
tp265
F0.001125
s(g1
g16
g3
g4
g5
g13
g26
tp266
F0.000675
s(g19
g29
g10
g24
g5
g6
g31
tp267
F0.0039375
s(g1
g29
g10
g4
g25
g6
g14
tp268
I0
s(g9
g2
g10
g4
g12
g6
g7
tp269
I0
s(g19
g16
g3
g4
g12
g13
g31
tp270
F4.5e-05
s(g9
g16
g3
g4
g25
g6
g7
tp271
I0
s(g22
g29
g10
g4
g25
g13
g14
tp272
I0
s(g22
g29
g10
g11
g25
g6
g7
tp273
F0.0
s(g22
g29
g10
g24
g12
g13
g26
tp274
F0.0
s(g19
g29
g10
g4
g25
g6
g14
tp275
I0
s(g9
g2
g3
g24
g25
g13
g14
tp276
I0
s(g22
g16
g3
g11
g5
g6
g26
tp277
F0.0
s(g9
g16
g10
g4
g12
g13
g31
tp278
F9e-05
s(g9
g29
g3
g4
g25
g13
g14
tp279
I0
s(g1
g16
g3
g4
g5
g6
g7
tp280
I0
s(g9
g16
g3
g11
g25
g13
g26
tp281
F0.000675
s(g9
g16
g3
g24
g5
g13
g7
tp282
I0
s(g22
g16
g3
g11
g12
g13
g7
tp283
I0
s(g9
g16
g3
g4
g5
g13
g31
tp284
F0.000225
s(g22
g16
g10
g24
g5
g6
g14
tp285
I0
s(g19
g29
g3
g11
g12
g13
g17
tp286
I0
s(g1
g2
g3
g24
g5
g6
g17
tp287
I0
s(g22
g2
g3
g11
g5
g13
g17
tp288
I0
s(g1
g16
g10
g24
g12
g13
g17
tp289
F7.500000000000001e-05
s(g22
g29
g3
g24
g12
g13
g17
tp290
I0
s(g19
g29
g10
g11
g12
g6
g14
tp291
F0.010499999999999999
s(g1
g16
g3
g24
g5
g6
g17
tp292
I0
s(g19
g29
g3
g11
g5
g13
g26
tp293
F0.0016875
s(g1
g29
g3
g4
g12
g6
g31
tp294
F0.010499999999999999
s(g19
g16
g3
g24
g5
g6
g7
tp295
I0
s(g22
g29
g10
g24
g5
g13
g14
tp296
I0
s(g1
g16
g3
g11
g5
g13
g31
tp297
F0.0006250000000000001
s(g22
g29
g10
g11
g5
g13
g31
tp298
F0.0
s(g19
g2
g10
g11
g25
g6
g17
tp299
F0.02625
s(g22
g29
g10
g11
g12
g6
g17
tp300
F0.0
s(g19
g29
g10
g24
g25
g13
g7
tp301
I0
s(g9
g16
g3
g24
g12
g13
g26
tp302
F8.1e-05
s(g22
g29
g10
g24
g25
g13
g31
tp303
F0.0
s(g1
g2
g3
g11
g12
g6
g7
tp304
I0
s(g9
g16
g3
g4
g5
g13
g7
tp305
I0
s(g19
g29
g10
g4
g5
g13
g26
tp306
F0.0010125
s(g22
g29
g10
g4
g5
g13
g7
tp307
I0
s(g19
g2
g10
g11
g25
g13
g31
tp308
F0.001875
s(g22
g16
g3
g4
g12
g6
g14
tp309
I0
s(g9
g16
g10
g24
g25
g6
g14
tp310
I0
s(g9
g2
g10
g11
g5
g6
g26
tp311
F0.0945
s(g19
g2
g10
g4
g5
g6
g7
tp312
I0
s(g9
g16
g10
g4
g5
g13
g14
tp313
I0
s(g22
g2
g3
g24
g5
g13
g31
tp314
F0.0
s(g19
g2
g3
g4
g25
g13
g14
tp315
I0
s(g1
g29
g3
g4
g5
g6
g7
tp316
I0
s(g19
g29
g3
g4
g25
g13
g17
tp317
I0
s(g1
g2
g3
g24
g5
g13
g17
tp318
I0
s(g19
g16
g3
g4
g12
g6
g31
tp319
F0.0006299999999999999
s(g19
g2
g10
g24
g12
g6
g7
tp320
I0
s(g9
g2
g10
g11
g12
g13
g17
tp321
F0.0015
s(g19
g16
g3
g24
g25
g6
g17
tp322
I0
s(g1
g2
g10
g4
g12
g13
g31
tp323
F0.0015
s(g22
g2
g10
g24
g25
g13
g26
tp324
F0.0
s(g1
g29
g3
g4
g25
g13
g7
tp325
I0
s(g9
g2
g10
g24
g5
g13
g14
tp326
I0
s(g19
g16
g3
g24
g25
g13
g17
tp327
I0
s(g19
g16
g10
g4
g12
g6
g14
tp328
I0
s(g19
g16
g10
g24
g25
g6
g7
tp329
I0
s(g9
g2
g10
g24
g5
g13
g26
tp330
F0.002025
s(g9
g2
g3
g24
g25
g13
g31
tp331
F0.001125
s(g1
g29
g3
g24
g25
g6
g7
tp332
I0
s(g1
g29
g3
g24
g12
g6
g7
tp333
I0
s(g19
g16
g3
g24
g25
g13
g7
tp334
I0
s(g1
g16
g10
g11
g5
g13
g7
tp335
F0.0006250000000000001
s(g9
g29
g10
g24
g12
g6
g17
tp336
F0.0031499999999999996
s(g19
g2
g3
g11
g5
g6
g26
tp337
F0.04725
s(g22
g29
g3
g11
g5
g13
g17
tp338
I0
s(g19
g29
g3
g11
g25
g6
g17
tp339
I0
s(g19
g16
g10
g4
g25
g13
g7
tp340
I0
s(g19
g2
g10
g11
g25
g6
g26
tp341
F0.04725
s(g1
g29
g3
g24
g5
g13
g17
tp342
I0
s(g9
g16
g10
g4
g5
g6
g14
tp343
I0
s(g19
g2
g10
g24
g25
g6
g26
tp344
F0.014175
s(g19
g2
g10
g4
g12
g6
g14
tp345
I0
s(g19
g29
g10
g4
g25
g6
g17
tp346
F0.007875
s(g19
g2
g3
g24
g5
g13
g7
tp347
I0
s(g19
g29
g10
g11
g5
g6
g7
tp348
F0.013125
s(g22
g29
g3
g11
g12
g13
g26
tp349
F0.0
s(g22
g29
g10
g11
g5
g6
g26
tp350
F0.0
s(g9
g2
g3
g4
g5
g6
g14
tp351
I0
s(g19
g16
g3
g11
g25
g6
g31
tp352
F0.0026249999999999997
s(g19
g2
g10
g4
g25
g6
g7
tp353
I0
s(g22
g29
g3
g11
g25
g13
g26
tp354
F0.0
s(g9
g29
g10
g24
g25
g13
g26
tp355
F0.0010125
s(g22
g29
g10
g24
g25
g6
g26
tp356
F0.0
s(g19
g2
g3
g24
g12
g6
g14
tp357
I0
s(g1
g2
g3
g11
g25
g13
g17
tp358
I0
s(g1
g29
g10
g24
g5
g6
g7
tp359
I0
s(g19
g2
g3
g24
g5
g13
g26
tp360
F0.0010125
s(g9
g2
g10
g24
g25
g6
g14
tp361
I0
s(g19
g29
g10
g11
g25
g6
g7
tp362
F0.013125
s(g9
g16
g10
g4
g12
g6
g7
tp363
I0
s(g22
g29
g3
g24
g12
g6
g31
tp364
F0.0
s(g1
g16
g3
g24
g12
g6
g26
tp365
F0.00189
s(g9
g2
g10
g11
g12
g13
g26
tp366
F0.0027
s(g19
g29
g10
g11
g5
g6
g14
tp367
F0.02625
s(g1
g29
g10
g11
g25
g13
g7
tp368
F0.003125
s(g1
g2
g10
g24
g25
g13
g26
tp369
F0.003375
s(g22
g16
g10
g11
g12
g6
g26
tp370
F0.0
s(g22
g16
g3
g24
g5
g13
g14
tp371
I0
s(g22
g2
g10
g11
g5
g6
g7
tp372
F0.0
s(g9
g2
g3
g24
g5
g13
g31
tp373
F0.001125
s(g22
g29
g3
g4
g12
g13
g14
tp374
I0
s(g22
g16
g3
g11
g12
g13
g17
tp375
I0
s(g9
g16
g10
g24
g12
g13
g31
tp376
F4.5e-05
s(g19
g16
g3
g24
g12
g6
g31
tp377
F0.00031499999999999996
s(g22
g2
g3
g24
g25
g6
g7
tp378
I0
s(g9
g16
g10
g24
g5
g6
g17
tp379
F0.0015749999999999998
s(g22
g16
g3
g24
g12
g6
g26
tp380
F0.0
s(g19
g16
g10
g4
g5
g13
g7
tp381
I0
s(g1
g16
g10
g11
g5
g6
g26
tp382
F0.01575
s(g1
g16
g3
g4
g5
g13
g31
tp383
F0.000375
s(g1
g29
g10
g11
g12
g6
g17
tp384
F0.017499999999999998
s(g9
g29
g3
g24
g12
g6
g7
tp385
I0
s(g9
g16
g3
g4
g25
g13
g31
tp386
F0.000225
s(g19
g29
g10
g24
g12
g6
g17
tp387
F0.0015749999999999998
s(g9
g2
g3
g11
g12
g13
g31
tp388
F0.0015
s(g1
g29
g3
g24
g12
g13
g31
tp389
F0.000375
s(g1
g2
g10
g4
g12
g6
g26
tp390
F0.0378
s(g9
g29
g3
g4
g25
g13
g26
tp391
F0.002025
s(g19
g2
g10
g24
g12
g13
g31
tp392
F0.000225
s(g1
g2
g10
g4
g5
g13
g17
tp393
F0.00375
s(g1
g2
g10
g11
g12
g13
g26
tp394
F0.004500000000000001
s(g9
g29
g3
g24
g5
g6
g17
tp395
I0
s(g19
g29
g3
g24
g25
g6
g17
tp396
I0
s(g9
g2
g3
g4
g12
g6
g17
tp397
I0
s(g19
g29
g10
g4
g5
g6
g17
tp398
F0.007875
s(g1
g2
g3
g4
g12
g6
g14
tp399
I0
s(g1
g16
g3
g4
g12
g6
g31
tp400
F0.0021
s(g22
g29
g10
g11
g5
g13
g26
tp401
F0.0
s(g9
g29
g10
g11
g25
g13
g7
tp402
F0.001875
s(g9
g16
g10
g4
g25
g13
g7
tp403
I0
s(g9
g2
g10
g24
g5
g6
g14
tp404
I0
s(g9
g16
g10
g24
g25
g13
g7
tp405
I0
s(g9
g29
g3
g4
g5
g6
g7
tp406
I0
s(g1
g29
g3
g11
g25
g6
g17
tp407
I0
s(g19
g16
g10
g11
g25
g6
g17
tp408
F0.0026249999999999997
s(g9
g29
g10
g24
g12
g13
g31
tp409
F0.000225
s(g1
g2
g10
g11
g12
g6
g26
tp410
F0.063
s(g9
g2
g10
g4
g25
g6
g7
tp411
I0
s(g22
g16
g3
g4
g5
g13
g14
tp412
I0
s(g9
g16
g10
g4
g12
g13
g26
tp413
F0.000162
s(g1
g16
g10
g11
g5
g13
g17
tp414
F0.0006250000000000001
s(g9
g29
g10
g4
g25
g6
g31
tp415
F0.01575
s(g9
g2
g10
g11
g5
g6
g31
tp416
F0.0525
s(g9
g29
g3
g11
g12
g6
g7
tp417
I0
s(g19
g29
g3
g4
g25
g6
g17
tp418
I0
s(g19
g29
g10
g4
g25
g13
g7
tp419
I0
s(g22
g29
g10
g11
g25
g13
g7
tp420
F0.0
s(g19
g29
g3
g11
g5
g13
g31
tp421
F0.0009375
s(g22
g16
g3
g24
g5
g6
g14
tp422
I0
s(g19
g2
g10
g4
g12
g13
g14
tp423
I0
s(g19
g16
g3
g24
g12
g6
g14
tp424
I0
s(g9
g2
g3
g24
g5
g6
g31
tp425
F0.01575
s(g22
g29
g3
g4
g12
g13
g26
tp426
F0.0
s(g22
g2
g3
g4
g5
g13
g14
tp427
I0
s(g1
g29
g10
g24
g12
g13
g26
tp428
F0.000675
s(g1
g29
g3
g11
g12
g6
g14
tp429
F0.034999999999999996
s(g22
g29
g10
g24
g5
g13
g17
tp430
F0.0
s(g1
g16
g10
g11
g25
g13
g14
tp431
F0.0012500000000000002
s(g1
g2
g10
g4
g5
g6
g26
tp432
F0.0945
s(g19
g16
g3
g4
g12
g6
g26
tp433
F0.0011339999999999998
s(g22
g2
g3
g4
g12
g6
g17
tp434
I0
s(g22
g16
g3
g4
g5
g6
g14
tp435
I0
s(g1
g16
g3
g11
g12
g13
g7
tp436
I0
s(g19
g2
g10
g24
g25
g13
g7
tp437
I0
s(g19
g29
g10
g24
g5
g13
g17
tp438
F0.00028125
s(g9
g16
g3
g24
g12
g13
g31
tp439
F4.5e-05
s(g22
g16
g3
g24
g5
g6
g17
tp440
I0
s(g19
g2
g3
g11
g12
g6
g14
tp441
F0.020999999999999998
s(g19
g29
g3
g24
g12
g6
g26
tp442
F0.002835
s(g19
g16
g10
g11
g5
g13
g31
tp443
F0.0001875
s(g22
g16
g10
g4
g12
g6
g17
tp444
F0.0
s(g19
g2
g3
g24
g5
g6
g7
tp445
I0
s(g22
g2
g3
g11
g25
g13
g31
tp446
F0.0
s(g19
g29
g3
g24
g12
g6
g14
tp447
I0
s(g19
g29
g3
g4
g5
g13
g14
tp448
I0
s(g19
g2
g10
g11
g12
g13
g14
tp449
F0.0015
s(g22
g2
g10
g11
g5
g6
g17
tp450
F0.0
s(g9
g2
g10
g24
g25
g13
g26
tp451
F0.002025
s(g9
g2
g10
g4
g5
g13
g26
tp452
F0.00405
s(g1
g29
g3
g11
g25
g6
g14
tp453
F0.0875
s(g22
g29
g3
g24
g12
g13
g7
tp454
I0
s(g22
g16
g10
g4
g12
g6
g7
tp455
I0
s(g22
g2
g3
g24
g12
g6
g14
tp456
I0
s(g1
g16
g10
g4
g25
g13
g17
tp457
F0.000375
s(g22
g2
g3
g11
g25
g13
g7
tp458
I0
s(g22
g2
g10
g24
g12
g13
g7
tp459
I0
s(g9
g2
g3
g11
g5
g13
g14
tp460
F0.0075
s(g19
g2
g3
g11
g5
g6
g17
tp461
I0
s(g9
g2
g3
g4
g25
g6
g26
tp462
F0.0567
s(g9
g2
g10
g24
g5
g13
g31
tp463
F0.001125
s(g9
g29
g3
g24
g5
g6
g26
tp464
F0.014175
s(g19
g2
g3
g11
g25
g13
g26
tp465
F0.003375
s(g19
g16
g10
g24
g5
g13
g31
tp466
F5.625e-05
s(g9
g29
g3
g24
g5
g13
g17
tp467
I0
s(g22
g2
g10
g11
g25
g13
g7
tp468
F0.0
s(g22
g2
g3
g11
g12
g13
g7
tp469
I0
s(g22
g16
g3
g4
g25
g6
g31
tp470
F0.0
s(g1
g29
g3
g4
g25
g6
g17
tp471
I0
s(g9
g16
g3
g4
g5
g6
g7
tp472
I0
s(g22
g29
g3
g11
g5
g13
g14
tp473
F0.0
s(g1
g16
g10
g11
g12
g13
g17
tp474
F0.00025000000000000006
s(g19
g29
g10
g24
g12
g13
g17
tp475
F0.0001125
s(g1
g16
g3
g24
g12
g6
g31
tp476
F0.00105
s(g19
g2
g10
g11
g25
g6
g31
tp477
F0.02625
s(g19
g16
g3
g11
g25
g6
g26
tp478
F0.004725
s(g1
g16
g10
g11
g25
g6
g17
tp479
F0.008749999999999999
s(g22
g16
g10
g11
g12
g6
g31
tp480
F0.0
s(g1
g29
g10
g11
g25
g13
g17
tp481
F0.003125
s(g22
g16
g10
g11
g12
g13
g26
tp482
F0.0
s(g9
g16
g3
g4
g25
g13
g17
tp483
I0
s(g22
g2
g10
g4
g12
g6
g14
tp484
I0
s(g22
g16
g10
g4
g12
g13
g31
tp485
F0.0
s(g1
g29
g10
g24
g5
g6
g17
tp486
F0.013125
s(g19
g16
g3
g11
g5
g6
g31
tp487
F0.0026249999999999997
s(g1
g29
g10
g24
g5
g13
g7
tp488
I0
s(g9
g29
g10
g24
g12
g6
g31
tp489
F0.0031499999999999996
s(g9
g29
g10
g24
g25
g13
g31
tp490
F0.0005625
s(g22
g2
g3
g4
g25
g13
g31
tp491
F0.0
s(g22
g2
g3
g24
g12
g13
g31
tp492
F0.0
s(g19
g16
g10
g11
g12
g6
g26
tp493
F0.00189
s(g19
g2
g3
g4
g5
g6
g26
tp494
F0.02835
s(g19
g29
g3
g4
g12
g6
g14
tp495
I0
s(g9
g29
g10
g11
g5
g13
g7
tp496
F0.001875
s(g1
g2
g10
g4
g12
g6
g31
tp497
F0.020999999999999998
s(g9
g2
g3
g11
g25
g13
g17
tp498
I0
s(g9
g2
g10
g11
g12
g13
g31
tp499
F0.0015
s(g22
g2
g10
g4
g5
g13
g31
tp500
F0.0
s(g1
g16
g10
g4
g5
g13
g7
tp501
I0
s(g1
g16
g3
g4
g25
g13
g17
tp502
I0
s(g9
g16
g3
g4
g25
g13
g26
tp503
F0.000405
s(g1
g29
g3
g24
g5
g13
g7
tp504
I0
s(g19
g2
g10
g11
g5
g6
g31
tp505
F0.02625
s(g19
g16
g3
g4
g12
g6
g17
tp506
I0
s(g22
g29
g10
g11
g12
g13
g17
tp507
F0.0
s(g22
g2
g3
g24
g25
g6
g26
tp508
F0.0
s(g9
g2
g10
g11
g25
g13
g31
tp509
F0.00375
s(g9
g16
g3
g24
g12
g6
g17
tp510
I0
s(g19
g16
g10
g24
g25
g13
g17
tp511
F5.625e-05
s(g22
g29
g10
g24
g5
g6
g14
tp512
I0
s(g19
g16
g10
g4
g12
g13
g14
tp513
I0
s(g1
g29
g10
g11
g5
g13
g7
tp514
F0.003125
s(g9
g2
g3
g24
g12
g6
g14
tp515
I0
s(g19
g16
g3
g4
g5
g6
g31
tp516
F0.0015749999999999998
s(g22
g29
g10
g24
g5
g6
g26
tp517
F0.0
s(g9
g16
g3
g24
g12
g6
g7
tp518
I0
s(g22
g16
g10
g4
g12
g6
g26
tp519
F0.0
s(g1
g2
g3
g24
g12
g6
g14
tp520
I0
s(g1
g16
g10
g24
g12
g13
g14
tp521
I0
s(g1
g2
g3
g11
g25
g13
g14
tp522
F0.0125
s(g9
g16
g3
g11
g12
g6
g17
tp523
I0
s(g19
g16
g3
g11
g5
g13
g7
tp524
I0
s(g1
g2
g10
g24
g5
g6
g17
tp525
F0.02625
s(g19
g16
g10
g11
g5
g6
g14
tp526
F0.0052499999999999995
s(g9
g2
g3
g11
g12
g13
g7
tp527
I0
s(g22
g16
g3
g4
g5
g13
g26
tp528
F0.0
s(g9
g29
g10
g24
g12
g13
g26
tp529
F0.000405
s(g9
g2
g3
g24
g12
g6
g31
tp530
F0.006299999999999999
s(g9
g16
g10
g24
g12
g6
g26
tp531
F0.0011339999999999998
s(g19
g16
g10
g24
g5
g13
g7
tp532
I0
s(g22
g16
g10
g4
g12
g13
g7
tp533
I0
s(g22
g2
g3
g24
g12
g13
g14
tp534
I0
s(g9
g2
g3
g24
g12
g13
g17
tp535
I0
s(g9
g29
g3
g4
g5
g13
g14
tp536
I0
s(g9
g29
g3
g11
g5
g6
g31
tp537
F0.02625
s(g1
g2
g10
g24
g12
g6
g17
tp538
F0.010499999999999999
s(g22
g16
g3
g24
g25
g6
g14
tp539
I0
s(g1
g29
g3
g11
g25
g13
g31
tp540
F0.003125
s(g19
g29
g3
g11
g25
g6
g14
tp541
F0.02625
s(g1
g29
g3
g11
g5
g13
g7
tp542
I0
s(g22
g29
g10
g4
g5
g6
g31
tp543
F0.0
s(g22
g29
g3
g11
g25
g13
g31
tp544
F0.0
s(g1
g16
g3
g11
g5
g13
g17
tp545
I0
s(g9
g2
g3
g4
g25
g6
g14
tp546
I0
s(g22
g2
g3
g4
g5
g6
g17
tp547
I0
s(g1
g16
g3
g4
g25
g6
g14
tp548
I0
s(g19
g2
g3
g4
g5
g13
g17
tp549
I0
s(g22
g16
g3
g4
g25
g13
g17
tp550
I0
s(g19
g29
g10
g11
g12
g6
g31
tp551
F0.0052499999999999995
s(g9
g16
g3
g11
g5
g13
g7
tp552
I0
s(g9
g29
g10
g24
g5
g13
g26
tp553
F0.0010125
s(g19
g29
g3
g4
g12
g13
g14
tp554
I0
s(g22
g2
g10
g11
g5
g13
g31
tp555
F0.0
s(g1
g16
g10
g4
g25
g13
g31
tp556
F0.000375
s(g1
g29
g10
g24
g12
g13
g31
tp557
F0.000375
s(g22
g29
g10
g4
g5
g13
g17
tp558
F0.0
s(g1
g16
g3
g4
g12
g6
g17
tp559
I0
s(g22
g16
g10
g24
g5
g13
g7
tp560
I0
s(g19
g2
g3
g4
g25
g6
g17
tp561
I0
s(g19
g29
g3
g4
g5
g13
g7
tp562
I0
s(g1
g2
g10
g24
g5
g6
g7
tp563
I0
s(g9
g29
g3
g4
g12
g6
g7
tp564
I0
s(g19
g29
g3
g24
g25
g6
g14
tp565
I0
s(g19
g2
g3
g11
g5
g13
g31
tp566
F0.001875
s(g9
g2
g3
g11
g12
g6
g26
tp567
F0.0378
s(g22
g29
g10
g11
g12
g6
g31
tp568
F0.0
s(g22
g29
g3
g4
g12
g13
g17
tp569
I0
s(g19
g16
g10
g24
g12
g13
g14
tp570
I0
s(g19
g2
g3
g24
g25
g13
g17
tp571
I0
s(g9
g2
g3
g11
g25
g13
g14
tp572
F0.0075
s(g1
g16
g3
g11
g12
g13
g26
tp573
F0.0004500000000000001
s(g19
g2
g3
g4
g25
g13
g31
tp574
F0.001125
s(g9
g2
g10
g24
g25
g13
g14
tp575
I0
s(g1
g29
g3
g4
g25
g13
g17
tp576
I0
s(g22
g16
g10
g24
g12
g6
g31
tp577
F0.0
s(g9
g16
g3
g11
g12
g13
g17
tp578
I0
s(g22
g2
g3
g11
g5
g6
g7
tp579
I0
s(g1
g29
g3
g4
g12
g6
g17
tp580
I0
s(g22
g2
g10
g11
g12
g6
g7
tp581
F0.0
s(g19
g16
g3
g11
g5
g6
g17
tp582
I0
s(g1
g2
g3
g4
g5
g13
g17
tp583
I0
s(g1
g2
g3
g11
g5
g13
g14
tp584
F0.0125
s(g9
g29
g10
g4
g25
g13
g31
tp585
F0.001125
s(g9
g2
g3
g4
g25
g13
g14
tp586
I0
s(g9
g29
g10
g24
g25
g13
g17
tp587
F0.0005625
s(g9
g16
g10
g11
g25
g6
g7
tp588
F0.0052499999999999995
s(g22
g29
g10
g24
g25
g6
g17
tp589
F0.0
s(g9
g2
g10
g4
g25
g6
g31
tp590
F0.0315
s(g22
g16
g10
g4
g5
g13
g14
tp591
I0
s(g22
g29
g3
g11
g25
g13
g17
tp592
I0
s(g9
g29
g3
g4
g5
g6
g31
tp593
F0.01575
s(g9
g2
g10
g24
g12
g13
g7
tp594
I0
s(g1
g29
g10
g11
g12
g13
g17
tp595
F0.0012500000000000002
s(g1
g2
g3
g4
g12
g13
g7
tp596
I0
s(g22
g2
g3
g24
g5
g6
g17
tp597
I0
s(g1
g2
g10
g24
g25
g13
g7
tp598
I0
s(g19
g16
g3
g24
g5
g6
g17
tp599
I0
s(g19
g2
g10
g4
g5
g13
g26
tp600
F0.002025
s(g1
g2
g3
g24
g5
g6
g31
tp601
F0.02625
s(g9
g16
g3
g11
g12
g13
g14
tp602
F0.00030000000000000003
s(g22
g16
g10
g11
g12
g6
g17
tp603
F0.0
s(g19
g16
g3
g4
g25
g6
g14
tp604
I0
s(g1
g29
g10
g24
g25
g6
g7
tp605
I0
s(g1
g16
g3
g24
g5
g13
g14
tp606
I0
s(g22
g2
g3
g24
g5
g6
g7
tp607
I0
s(g19
g16
g10
g24
g5
g6
g7
tp608
I0
s(g9
g2
g3
g11
g25
g6
g17
tp609
I0
s(g9
g2
g3
g4
g12
g13
g7
tp610
I0
s(g9
g2
g10
g24
g12
g13
g17
tp611
F0.00045
s(g9
g2
g10
g11
g5
g13
g14
tp612
F0.0075
s(g1
g2
g3
g11
g12
g6
g31
tp613
F0.034999999999999996
s(g9
g29
g3
g24
g5
g6
g31
tp614
F0.007875
s(g22
g2
g10
g4
g12
g13
g14
tp615
I0
s(g22
g2
g3
g4
g25
g13
g14
tp616
I0
s(g1
g29
g3
g4
g12
g13
g7
tp617
I0
s(g22
g16
g10
g11
g12
g6
g7
tp618
F0.0
s(g1
g2
g3
g24
g5
g6
g7
tp619
I0
s(g1
g2
g10
g24
g12
g13
g7
tp620
I0
s(g19
g29
g3
g11
g5
g6
g31
tp621
F0.013125
s(g1
g29
g10
g4
g12
g6
g7
tp622
I0
s(g22
g16
g3
g24
g5
g6
g31
tp623
F0.0
s(g22
g29
g10
g24
g5
g6
g31
tp624
F0.0
s(g1
g16
g3
g24
g5
g13
g26
tp625
F0.0003375
s(g9
g29
g10
g4
g5
g13
g26
tp626
F0.002025
s(g1
g29
g10
g11
g25
g6
g17
tp627
F0.04375
s(g9
g29
g10
g11
g5
g6
g14
tp628
F0.0525
s(g19
g2
g3
g4
g5
g6
g31
tp629
F0.01575
s(g19
g2
g10
g4
g25
g13
g31
tp630
F0.001125
s(g22
g2
g3
g11
g25
g13
g17
tp631
I0
s(g9
g2
g10
g11
g25
g13
g26
tp632
F0.00675
s(g9
g16
g10
g24
g5
g13
g7
tp633
I0
s(g9
g2
g3
g11
g12
g6
g7
tp634
I0
s(g9
g29
g10
g24
g12
g6
g26
tp635
F0.00567
s(g9
g29
g3
g11
g12
g13
g26
tp636
F0.00135
s(g1
g29
g10
g11
g12
g6
g31
tp637
F0.017499999999999998
s(g22
g2
g10
g11
g5
g6
g31
tp638
F0.0
s(g22
g16
g10
g4
g5
g6
g26
tp639
F0.0
s(g22
g16
g10
g4
g12
g6
g31
tp640
F0.0
s(g9
g16
g10
g11
g12
g13
g17
tp641
F0.00015000000000000001
s(g9
g16
g3
g11
g25
g13
g31
tp642
F0.000375
s(g9
g29
g10
g4
g5
g13
g7
tp643
I0
s(g1
g2
g10
g4
g12
g6
g14
tp644
I0
s(g9
g2
g3
g24
g5
g6
g17
tp645
I0
s(g22
g16
g3
g24
g12
g6
g7
tp646
I0
s(g19
g2
g3
g4
g25
g6
g7
tp647
I0
s(g1
g2
g3
g4
g25
g13
g14
tp648
I0
s(g19
g29
g3
g11
g12
g6
g26
tp649
F0.00945
s(g22
g2
g10
g11
g5
g13
g17
tp650
F0.0
s(g19
g2
g10
g4
g12
g6
g26
tp651
F0.01134
s(g9
g16
g3
g4
g12
g13
g17
tp652
I0
s(g1
g29
g3
g24
g25
g6
g26
tp653
F0.023625
s(g22
g16
g3
g4
g25
g13
g31
tp654
F0.0
s(g9
g29
g3
g4
g5
g13
g17
tp655
I0
s(g1
g16
g3
g11
g5
g6
g17
tp656
I0
s(g22
g16
g10
g24
g5
g6
g26
tp657
F0.0
s(g22
g29
g3
g24
g12
g13
g26
tp658
F0.0
s(g1
g29
g3
g24
g5
g6
g26
tp659
F0.023625
s(g1
g2
g3
g24
g5
g13
g31
tp660
F0.001875
s(g22
g16
g3
g11
g12
g6
g26
tp661
F0.0
s(g22
g29
g3
g11
g12
g6
g26
tp662
F0.0
s(g9
g2
g3
g11
g5
g6
g17
tp663
I0
s(g22
g16
g3
g11
g5
g6
g31
tp664
F0.0
s(g9
g2
g10
g24
g5
g13
g17
tp665
F0.001125
s(g19
g2
g3
g11
g12
g13
g17
tp666
I0
s(g19
g16
g3
g4
g5
g13
g14
tp667
I0
s(g1
g16
g10
g4
g12
g13
g14
tp668
I0
s(g22
g2
g10
g11
g12
g13
g31
tp669
F0.0
s(g22
g2
g10
g11
g25
g13
g17
tp670
F0.0
s(g22
g16
g10
g24
g12
g13
g17
tp671
F0.0
s(g1
g16
g3
g4
g12
g13
g17
tp672
I0
s(g22
g29
g10
g4
g12
g6
g14
tp673
I0
s(g9
g2
g3
g24
g12
g13
g7
tp674
I0
s(g22
g2
g3
g11
g12
g6
g14
tp675
F0.0
s(g1
g2
g3
g24
g25
g13
g14
tp676
I0
s(g1
g29
g10
g4
g25
g13
g7
tp677
I0
s(g19
g2
g10
g4
g25
g13
g7
tp678
I0
s(g1
g29
g10
g4
g12
g13
g14
tp679
I0
s(g22
g2
g3
g4
g25
g6
g26
tp680
F0.0
s(g9
g2
g10
g11
g5
g6
g14
tp681
F0.105
s(g19
g16
g10
g11
g12
g6
g7
tp682
F0.00105
s(g22
g2
g10
g24
g12
g13
g17
tp683
F0.0
s(g1
g2
g10
g24
g5
g13
g26
tp684
F0.003375
s(g22
g2
g10
g4
g5
g13
g17
tp685
F0.0
s(g1
g2
g3
g4
g5
g13
g31
tp686
F0.00375
s(g22
g29
g3
g24
g12
g6
g14
tp687
I0
s(g22
g16
g10
g11
g25
g13
g17
tp688
F0.0
s(g9
g16
g10
g11
g5
g6
g14
tp689
F0.010499999999999999
s(g22
g2
g10
g24
g12
g13
g14
tp690
I0
s(g22
g16
g10
g11
g12
g13
g7
tp691
F0.0
s(g9
g16
g10
g24
g25
g6
g31
tp692
F0.0015749999999999998
s(g1
g16
g10
g24
g12
g6
g14
tp693
I0
s(g22
g29
g10
g11
g12
g6
g26
tp694
F0.0
s(g1
g2
g10
g11
g5
g13
g7
tp695
F0.00625
s(g19
g16
g10
g11
g25
g13
g17
tp696
F0.0001875
s(g19
g16
g3
g11
g5
g13
g17
tp697
I0
s(g22
g16
g3
g4
g12
g6
g31
tp698
F0.0
s(g1
g29
g3
g11
g12
g6
g17
tp699
I0
s(g9
g2
g3
g4
g12
g13
g31
tp700
F0.0009
s(g1
g2
g3
g24
g25
g13
g31
tp701
F0.001875
s(g9
g29
g10
g4
g12
g13
g17
tp702
F0.00045
s(g19
g16
g10
g11
g25
g13
g7
tp703
F0.0001875
s(g22
g29
g3
g4
g25
g13
g26
tp704
F0.0
s(g19
g16
g3
g4
g5
g6
g17
tp705
I0
s(g9
g2
g3
g24
g25
g6
g31
tp706
F0.01575
s(g22
g2
g3
g11
g5
g13
g26
tp707
F0.0
s(g1
g2
g10
g11
g25
g6
g26
tp708
F0.1575
s(g19
g16
g10
g24
g25
g6
g17
tp709
F0.0007874999999999999
s(g1
g16
g3
g4
g12
g13
g14
tp710
I0
s(g1
g2
g10
g24
g25
g6
g7
tp711
I0
s(g22
g29
g10
g11
g5
g13
g7
tp712
F0.0
s(g9
g2
g3
g24
g25
g13
g26
tp713
F0.002025
s(g1
g29
g3
g11
g5
g13
g26
tp714
F0.005625000000000001
s(g1
g29
g3
g4
g25
g6
g14
tp715
I0
s(g19
g29
g10
g4
g12
g13
g14
tp716
I0
s(g22
g29
g10
g4
g5
g6
g14
tp717
I0
s(g19
g29
g10
g11
g5
g6
g17
tp718
F0.013125
s(g22
g29
g10
g4
g12
g13
g31
tp719
F0.0
s(g1
g2
g3
g11
g12
g13
g17
tp720
I0
s(g22
g2
g10
g4
g5
g6
g7
tp721
I0
s(g22
g29
g10
g4
g5
g13
g31
tp722
F0.0
s(g9
g29
g3
g4
g25
g6
g7
tp723
I0
s(g19
g16
g3
g24
g5
g6
g31
tp724
F0.0007874999999999999
s(g19
g29
g3
g4
g5
g6
g17
tp725
I0
s(g22
g16
g3
g4
g25
g6
g17
tp726
I0
s(g1
g16
g10
g4
g12
g13
g26
tp727
F0.00027000000000000006
s(g9
g2
g3
g24
g12
g13
g31
tp728
F0.00045
s(g19
g16
g3
g24
g12
g13
g31
tp729
F2.25e-05
s(g9
g16
g3
g4
g5
g6
g26
tp730
F0.00567
s(g1
g29
g3
g11
g12
g13
g17
tp731
I0
s(g19
g29
g10
g24
g25
g6
g14
tp732
I0
s(g9
g2
g3
g4
g5
g6
g17
tp733
I0
s(g19
g29
g10
g4
g5
g13
g14
tp734
I0
s(g1
g2
g3
g4
g12
g13
g17
tp735
I0
s(g9
g16
g3
g24
g5
g13
g26
tp736
F0.0002025
s(g22
g2
g3
g11
g12
g13
g17
tp737
I0
s(g1
g16
g10
g11
g5
g6
g31
tp738
F0.008749999999999999
s(g22
g16
g3
g11
g5
g13
g31
tp739
F0.0
s(g1
g29
g10
g11
g25
g13
g31
tp740
F0.003125
s(g19
g2
g3
g11
g12
g13
g14
tp741
F0.0015
s(g9
g16
g10
g24
g12
g6
g7
tp742
I0
s(g9
g16
g10
g11
g12
g13
g31
tp743
F0.00015000000000000001
s(g9
g16
g10
g24
g25
g13
g17
tp744
F0.0001125
s(g1
g2
g10
g4
g5
g6
g7
tp745
I0
s(g19
g16
g10
g4
g12
g13
g31
tp746
F4.5e-05
s(g19
g29
g10
g24
g12
g13
g7
tp747
I0
s(g9
g16
g10
g4
g25
g13
g17
tp748
F0.000225
s(g19
g29
g3
g11
g25
g13
g7
tp749
I0
s(g19
g2
g10
g24
g12
g13
g7
tp750
I0
s(g9
g2
g10
g4
g25
g13
g7
tp751
I0
s(g1
g16
g10
g4
g25
g13
g7
tp752
I0
s(g1
g16
g10
g24
g25
g6
g26
tp753
F0.004725
s(g22
g29
g10
g11
g12
g13
g7
tp754
F0.0
s(g22
g29
g3
g4
g25
g13
g7
tp755
I0
s(g22
g16
g10
g24
g25
g13
g31
tp756
F0.0
s(g1
g16
g10
g24
g12
g6
g26
tp757
F0.00189
s(g9
g16
g3
g11
g5
g6
g26
tp758
F0.00945
s(g1
g2
g3
g24
g25
g13
g7
tp759
I0
s(g19
g29
g3
g24
g5
g13
g26
tp760
F0.00050625
s(g9
g16
g3
g11
g5
g13
g31
tp761
F0.000375
s(g1
g2
g3
g4
g5
g6
g14
tp762
I0
s(g1
g16
g3
g11
g5
g6
g31
tp763
F0.008749999999999999
s(g19
g29
g3
g4
g12
g13
g31
tp764
F0.000225
s(g22
g29
g3
g24
g12
g6
g26
tp765
F0.0
s(g1
g29
g3
g11
g5
g6
g17
tp766
I0
s(g1
g16
g10
g4
g25
g6
g26
tp767
F0.00945
s(g9
g16
g10
g24
g12
g13
g26
tp768
F8.1e-05
s(g9
g16
g10
g11
g12
g13
g7
tp769
F0.00015000000000000001
s(g1
g29
g10
g24
g25
g13
g17
tp770
F0.0009375
s(g9
g29
g3
g4
g12
g13
g31
tp771
F0.00045
s(g9
g29
g3
g11
g12
g13
g14
tp772
F0.0015
s(g9
g29
g10
g11
g25
g6
g26
tp773
F0.04725
s(g9
g29
g10
g11
g12
g6
g26
tp774
F0.0189
s(g1
g2
g3
g4
g5
g6
g31
tp775
F0.0525
s(g1
g29
g10
g11
g25
g6
g26
tp776
F0.07875
s(g1
g29
g10
g11
g12
g6
g7
tp777
F0.017499999999999998
s(g9
g16
g10
g4
g5
g13
g17
tp778
F0.000225
s(g1
g16
g10
g4
g5
g13
g26
tp779
F0.000675
s(g1
g16
g3
g4
g5
g13
g14
tp780
I0
s(g9
g29
g3
g11
g25
g6
g7
tp781
I0
s(g19
g2
g10
g11
g12
g6
g26
tp782
F0.0189
s(g22
g29
g10
g24
g25
g13
g26
tp783
F0.0
s(g22
g2
g10
g24
g12
g13
g31
tp784
F0.0
s(g9
g16
g10
g24
g5
g13
g31
tp785
F0.0001125
s(g1
g16
g3
g24
g12
g6
g14
tp786
I0
s(g19
g2
g3
g4
g12
g6
g7
tp787
I0
s(g1
g16
g3
g24
g25
g13
g26
tp788
F0.0003375
s(g19
g29
g10
g11
g12
g13
g7
tp789
F0.000375
s(g19
g29
g10
g11
g12
g13
g26
tp790
F0.000675
s(g19
g29
g10
g4
g12
g13
g26
tp791
F0.000405
s(g1
g16
g10
g24
g25
g13
g26
tp792
F0.0003375
s(g9
g2
g10
g4
g25
g13
g26
tp793
F0.00405
s(g1
g2
g10
g11
g12
g13
g7
tp794
F0.0025000000000000005
s(g1
g29
g3
g4
g12
g13
g17
tp795
I0
s(g1
g29
g10
g4
g25
g6
g7
tp796
I0
s(g22
g29
g3
g11
g12
g6
g14
tp797
F0.0
s(g9
g2
g3
g11
g25
g13
g31
tp798
F0.00375
s(g19
g2
g10
g24
g12
g6
g31
tp799
F0.0031499999999999996
s(g22
g29
g10
g24
g25
g13
g7
tp800
I0
s(g9
g2
g3
g24
g12
g6
g17
tp801
I0
s(g9
g2
g10
g24
g25
g6
g17
tp802
F0.01575
s(g9
g2
g3
g11
g5
g6
g31
tp803
F0.0525
s(g9
g29
g3
g24
g25
g6
g26
tp804
F0.014175
s(g22
g2
g10
g4
g12
g13
g17
tp805
F0.0
s(g19
g16
g3
g11
g12
g13
g31
tp806
F7.500000000000001e-05
s(g1
g16
g3
g4
g5
g6
g14
tp807
I0
s(g1
g2
g10
g24
g12
g6
g31
tp808
F0.010499999999999999
s(g1
g2
g10
g4
g25
g13
g14
tp809
I0
s(g1
g2
g3
g11
g12
g13
g26
tp810
F0.004500000000000001
s(g19
g2
g10
g24
g5
g6
g17
tp811
F0.007875
s(g1
g2
g3
g11
g12
g6
g17
tp812
I0
s(g1
g2
g10
g24
g12
g6
g7
tp813
I0
s(g22
g16
g10
g4
g25
g6
g26
tp814
F0.0
s(g19
g2
g3
g11
g12
g13
g26
tp815
F0.00135
s(g22
g2
g10
g11
g25
g6
g14
tp816
F0.0
s(g19
g16
g3
g4
g25
g6
g31
tp817
F0.0015749999999999998
s(g22
g2
g10
g24
g25
g6
g31
tp818
F0.0
s(g22
g29
g10
g11
g25
g13
g17
tp819
F0.0
s(g9
g29
g10
g11
g25
g6
g17
tp820
F0.02625
s(g9
g16
g10
g4
g25
g6
g17
tp821
F0.0031499999999999996
s(g9
g16
g3
g24
g5
g6
g26
tp822
F0.002835
s(g22
g16
g10
g11
g5
g13
g31
tp823
F0.0
s(g19
g2
g10
g11
g25
g13
g7
tp824
F0.001875
s(g1
g29
g10
g24
g25
g13
g14
tp825
I0
s(g19
g29
g3
g24
g12
g13
g17
tp826
I0
s(g22
g2
g10
g11
g25
g6
g31
tp827
F0.0
s(g1
g16
g3
g24
g25
g13
g17
tp828
I0
s(g9
g29
g3
g24
g5
g13
g7
tp829
I0
s(g19
g29
g3
g11
g12
g6
g31
tp830
F0.0052499999999999995
s(g22
g2
g3
g24
g5
g13
g7
tp831
I0
s(g19
g29
g10
g11
g12
g13
g17
tp832
F0.000375
s(g1
g29
g10
g4
g12
g13
g26
tp833
F0.00135
s(g9
g2
g3
g24
g5
g6
g14
tp834
I0
s(g19
g29
g3
g11
g25
g6
g7
tp835
I0
s(g1
g2
g3
g24
g12
g13
g14
tp836
I0
s(g9
g16
g10
g11
g12
g6
g26
tp837
F0.00378
s(g22
g16
g3
g11
g25
g6
g14
tp838
F0.0
s(g9
g29
g10
g24
g25
g6
g17
tp839
F0.007875
s(g9
g16
g3
g11
g25
g6
g31
tp840
F0.0052499999999999995
s(g19
g2
g3
g24
g25
g13
g7
tp841
I0
s(g19
g2
g3
g4
g25
g13
g7
tp842
I0
s(g9
g29
g3
g24
g12
g6
g26
tp843
F0.00567
s(g19
g16
g3
g11
g25
g13
g7
tp844
I0
s(g1
g2
g3
g4
g5
g13
g14
tp845
I0
s(g19
g2
g10
g24
g12
g6
g14
tp846
I0
s(g1
g29
g10
g24
g12
g6
g7
tp847
I0
s(g9
g2
g10
g4
g12
g13
g26
tp848
F0.00162
s(g19
g29
g3
g4
g5
g13
g17
tp849
I0
s(g22
g16
g3
g11
g5
g6
g7
tp850
I0
s(g1
g29
g10
g4
g12
g6
g26
tp851
F0.0189
s(g19
g16
g10
g11
g12
g13
g26
tp852
F0.00013500000000000003
s(g1
g16
g10
g11
g12
g13
g26
tp853
F0.0004500000000000001
s(g22
g2
g3
g11
g12
g13
g31
tp854
F0.0
s(g22
g29
g3
g4
g25
g13
g17
tp855
I0
s(g22
g29
g10
g24
g12
g13
g7
tp856
I0
s(g1
g29
g3
g24
g25
g6
g14
tp857
I0
s(g19
g16
g10
g4
g25
g13
g26
tp858
F0.0002025
s(g1
g16
g10
g11
g5
g13
g14
tp859
F0.0012500000000000002
s(g9
g16
g3
g11
g5
g6
g17
tp860
I0
s(g19
g29
g3
g11
g12
g6
g14
tp861
F0.010499999999999999
s(g19
g2
g10
g11
g25
g13
g17
tp862
F0.001875
s(g19
g29
g3
g4
g5
g6
g31
tp863
F0.007875
s(g19
g29
g10
g11
g12
g6
g7
tp864
F0.0052499999999999995
s(g19
g16
g10
g4
g12
g13
g7
tp865
I0
s(g19
g29
g10
g11
g25
g6
g26
tp866
F0.023625
s(g19
g29
g3
g24
g5
g6
g26
tp867
F0.0070875
s(g1
g16
g3
g24
g5
g6
g14
tp868
I0
s(g19
g2
g3
g24
g25
g6
g31
tp869
F0.007875
s(g9
g2
g10
g24
g12
g13
g26
tp870
F0.00081
s(g22
g29
g3
g4
g25
g6
g7
tp871
I0
s(g22
g16
g3
g24
g25
g6
g26
tp872
F0.0
s(g9
g16
g3
g4
g12
g13
g14
tp873
I0
s(g1
g29
g3
g11
g5
g13
g31
tp874
F0.003125
s(g9
g16
g3
g4
g5
g13
g14
tp875
I0
s(g19
g2
g10
g4
g25
g6
g17
tp876
F0.01575
s(g19
g2
g3
g24
g12
g13
g26
tp877
F0.000405
s(g9
g29
g10
g24
g5
g13
g17
tp878
F0.0005625
s(g22
g16
g10
g24
g25
g13
g14
tp879
I0
s(g1
g16
g3
g4
g12
g13
g31
tp880
F0.00015000000000000001
s(g9
g16
g10
g11
g12
g6
g7
tp881
F0.0021
s(g22
g2
g3
g24
g25
g13
g17
tp882
I0
s(g9
g2
g3
g11
g25
g6
g31
tp883
F0.0525
s(g1
g29
g3
g4
g5
g6
g26
tp884
F0.04725
s(g19
g2
g3
g4
g5
g6
g7
tp885
I0
s(g19
g2
g10
g24
g5
g13
g26
tp886
F0.0010125
s(g9
g29
g3
g4
g5
g13
g31
tp887
F0.001125
s(g19
g29
g10
g4
g12
g6
g14
tp888
I0
s(g22
g29
g10
g4
g12
g13
g7
tp889
I0
s(g9
g29
g10
g4
g12
g13
g14
tp890
I0
s(g1
g29
g10
g11
g25
g13
g14
tp891
F0.00625
s(g9
g2
g10
g4
g25
g6
g17
tp892
F0.0315
s(g19
g2
g3
g11
g25
g6
g14
tp893
F0.0525
s(g19
g2
g3
g24
g12
g13
g7
tp894
I0
s(g19
g2
g3
g4
g12
g13
g7
tp895
I0
s(g9
g29
g3
g4
g5
g6
g17
tp896
I0
s(g22
g29
g10
g24
g12
g6
g31
tp897
F0.0
s(g1
g29
g3
g11
g12
g6
g31
tp898
F0.017499999999999998
s(g22
g16
g3
g24
g25
g13
g14
tp899
I0
s(g22
g29
g3
g24
g5
g6
g31
tp900
F0.0
s(g22
g2
g10
g4
g25
g6
g31
tp901
F0.0
s(g22
g16
g3
g4
g12
g13
g26
tp902
F0.0
s(g22
g29
g3
g11
g25
g13
g14
tp903
F0.0
s(g22
g2
g3
g24
g25
g6
g14
tp904
I0
s(g9
g16
g10
g24
g25
g6
g17
tp905
F0.0015749999999999998
s(g19
g29
g3
g24
g5
g13
g17
tp906
I0
s(g1
g2
g10
g4
g5
g13
g7
tp907
I0
s(g1
g16
g10
g24
g5
g13
g14
tp908
I0
s(g22
g2
g10
g24
g12
g6
g26
tp909
F0.0
s(g1
g16
g3
g4
g25
g13
g7
tp910
I0
s(g9
g29
g10
g4
g12
g6
g17
tp911
F0.006299999999999999
s(g1
g2
g10
g11
g12
g13
g31
tp912
F0.0025000000000000005
s(g22
g2
g10
g4
g5
g13
g7
tp913
I0
s(g19
g16
g3
g4
g25
g6
g17
tp914
I0
s(g19
g2
g3
g4
g25
g6
g26
tp915
F0.02835
s(g9
g16
g10
g11
g5
g13
g31
tp916
F0.000375
s(g19
g29
g3
g11
g12
g13
g31
tp917
F0.000375
s(g22
g16
g3
g11
g12
g6
g17
tp918
I0
s(g1
g16
g10
g11
g12
g6
g31
tp919
F0.0035000000000000005
s(g9
g16
g10
g4
g25
g13
g31
tp920
F0.000225
s(g9
g2
g3
g4
g5
g6
g7
tp921
I0
s(g22
g29
g10
g4
g12
g13
g17
tp922
F0.0
s(g1
g29
g10
g24
g12
g6
g26
tp923
F0.00945
s(g1
g29
g10
g4
g5
g13
g17
tp924
F0.001875
s(g1
g29
g10
g24
g5
g13
g14
tp925
I0
s(g22
g29
g3
g24
g5
g6
g26
tp926
F0.0
s(g1
g16
g10
g24
g25
g13
g17
tp927
F0.0001875
s(g19
g29
g3
g24
g25
g13
g14
tp928
I0
s(g1
g16
g10
g11
g25
g6
g26
tp929
F0.01575
s(g9
g16
g10
g4
g12
g6
g26
tp930
F0.0022679999999999996
s(g22
g16
g3
g4
g25
g13
g14
tp931
I0
s(g22
g29
g3
g4
g5
g6
g14
tp932
I0
s(g19
g29
g10
g11
g5
g13
g17
tp933
F0.0009375
s(g9
g2
g10
g24
g25
g6
g7
tp934
I0
s(g19
g29
g10
g4
g25
g13
g17
tp935
F0.0005625
s(g22
g2
g3
g24
g12
g6
g7
tp936
I0
s(g19
g2
g10
g24
g5
g6
g7
tp937
I0
s(g9
g2
g3
g4
g5
g6
g31
tp938
F0.0315
s(g1
g29
g10
g4
g5
g13
g7
tp939
I0
s(g22
g29
g3
g4
g12
g6
g26
tp940
F0.0
s(g19
g16
g3
g4
g5
g13
g31
tp941
F0.0001125
s(g9
g2
g10
g4
g25
g6
g14
tp942
I0
s(g19
g2
g3
g11
g25
g13
g17
tp943
I0
s(g22
g2
g10
g4
g12
g13
g26
tp944
F0.0
s(g9
g2
g3
g4
g25
g13
g31
tp945
F0.00225
s(g1
g16
g10
g4
g25
g6
g7
tp946
I0
s(g1
g29
g3
g11
g5
g6
g14
tp947
F0.0875
s(g22
g16
g10
g24
g25
g6
g31
tp948
F0.0
s(g1
g2
g3
g24
g12
g13
g17
tp949
I0
s(g9
g29
g10
g4
g25
g13
g7
tp950
I0
s(g19
g16
g3
g4
g5
g13
g26
tp951
F0.0002025
s(g19
g16
g3
g11
g12
g6
g26
tp952
F0.00189
s(g19
g16
g10
g4
g5
g13
g14
tp953
I0
s(g1
g16
g3
g24
g12
g13
g14
tp954
I0
s(g9
g29
g10
g24
g5
g13
g14
tp955
I0
s(g19
g16
g3
g24
g12
g6
g7
tp956
I0
s(g1
g29
g10
g24
g12
g13
g7
tp957
I0
s(g19
g2
g10
g4
g12
g13
g31
tp958
F0.00045
s(g9
g2
g10
g4
g12
g6
g17
tp959
F0.012599999999999998
s(g22
g2
g3
g24
g5
g6
g26
tp960
F0.0
s(g1
g29
g3
g24
g25
g13
g7
tp961
I0
s(g9
g16
g10
g4
g12
g13
g7
tp962
I0
s(g19
g2
g10
g11
g5
g13
g26
tp963
F0.003375
s(g19
g2
g10
g24
g5
g13
g17
tp964
F0.0005625
s(g1
g29
g3
g11
g12
g6
g7
tp965
I0
s(g22
g29
g10
g24
g5
g13
g26
tp966
F0.0
s(g19
g29
g3
g24
g12
g13
g26
tp967
F0.0002025
s(g19
g16
g10
g24
g25
g13
g14
tp968
I0
s(g22
g29
g10
g24
g12
g6
g7
tp969
I0
s(g9
g2
g3
g24
g5
g13
g14
tp970
I0
s(g9
g29
g3
g11
g25
g13
g7
tp971
I0
s(g1
g29
g10
g24
g12
g6
g17
tp972
F0.0052499999999999995
s(g1
g2
g10
g4
g12
g13
g26
tp973
F0.0027
s(g22
g29
g3
g24
g25
g6
g31
tp974
F0.0
s(g19
g29
g3
g4
g12
g13
g17
tp975
I0
s(g9
g29
g10
g4
g5
g6
g31
tp976
F0.01575
s(g22
g2
g3
g11
g25
g6
g7
tp977
I0
s(g9
g2
g3
g11
g5
g13
g17
tp978
I0
s(g1
g29
g3
g24
g25
g13
g17
tp979
I0
s(g22
g16
g3
g4
g12
g6
g17
tp980
I0
s(g1
g29
g3
g24
g25
g6
g17
tp981
I0
s(g1
g2
g10
g11
g25
g13
g31
tp982
F0.00625
s(g19
g2
g10
g24
g25
g13
g17
tp983
F0.0005625
s(g22
g2
g10
g24
g5
g6
g26
tp984
F0.0
s(g9
g29
g3
g11
g25
g6
g26
tp985
F0.04725
s(g1
g2
g10
g4
g5
g6
g17
tp986
F0.0525
s(g19
g16
g3
g24
g12
g13
g26
tp987
F4.05e-05
s(g19
g2
g3
g11
g12
g6
g31
tp988
F0.010499999999999999
s(g22
g29
g3
g24
g5
g13
g14
tp989
I0
s(g9
g2
g10
g24
g5
g6
g7
tp990
I0
s(g9
g29
g10
g11
g12
g13
g26
tp991
F0.00135
s(g22
g29
g10
g4
g12
g6
g17
tp992
F0.0
s(g22
g2
g10
g4
g12
g13
g7
tp993
I0
s(g1
g16
g10
g4
g5
g6
g26
tp994
F0.00945
s(g22
g2
g10
g24
g5
g6
g14
tp995
I0
s(g1
g29
g10
g24
g5
g13
g26
tp996
F0.0016875
s(g22
g16
g10
g4
g12
g6
g14
tp997
I0
s(g19
g2
g3
g4
g5
g13
g7
tp998
I0
s(g19
g16
g10
g11
g12
g13
g31
tp999
F7.500000000000001e-05
s(g1
g2
g10
g11
g25
g6
g7
tp1000
F0.0875
s(g22
g29
g10
g11
g25
g6
g14
tp1001
F0.0
s(g9
g29
g3
g11
g12
g6
g14
tp1002
F0.020999999999999998
s(g1
g16
g10
g4
g12
g6
g26
tp1003
F0.00378
s(g22
g29
g10
g4
g5
g13
g14
tp1004
I0
s(g22
g29
g3
g24
g25
g13
g7
tp1005
I0
s(g1
g2
g3
g11
g12
g13
g7
tp1006
I0
s(g19
g29
g3
g11
g5
g13
g7
tp1007
I0
s(g19
g2
g10
g4
g12
g13
g7
tp1008
I0
s(g9
g2
g10
g4
g12
g13
g31
tp1009
F0.0009
s(g19
g16
g10
g4
g25
g6
g7
tp1010
I0
s(g22
g29
g3
g4
g5
g6
g31
tp1011
F0.0
s(g1
g2
g3
g24
g25
g13
g26
tp1012
F0.003375
s(g22
g29
g3
g11
g5
g6
g26
tp1013
F0.0
s(g1
g29
g3
g11
g12
g13
g31
tp1014
F0.0012500000000000002
s(g19
g16
g3
g24
g25
g13
g26
tp1015
F0.00010125
s(g9
g29
g10
g11
g5
g6
g17
tp1016
F0.02625
s(g19
g29
g3
g11
g25
g13
g26
tp1017
F0.0016875
s(g19
g16
g10
g4
g5
g6
g17
tp1018
F0.0015749999999999998
s(g19
g29
g3
g4
g12
g6
g26
tp1019
F0.00567
s(g9
g29
g10
g4
g25
g6
g14
tp1020
I0
s(g19
g16
g3
g11
g12
g6
g14
tp1021
F0.0021
s(g9
g2
g3
g4
g25
g6
g17
tp1022
I0
s(g9
g29
g10
g11
g25
g13
g17
tp1023
F0.001875
s(g9
g2
g3
g11
g12
g13
g17
tp1024
I0
s(g9
g29
g10
g11
g5
g13
g31
tp1025
F0.001875
s(g1
g29
g3
g11
g5
g6
g26
tp1026
F0.07875
s(g19
g29
g10
g11
g5
g6
g31
tp1027
F0.013125
s(g22
g16
g10
g11
g5
g13
g14
tp1028
F0.0
s(g9
g2
g3
g4
g12
g6
g14
tp1029
I0
s(g9
g2
g10
g24
g25
g6
g31
tp1030
F0.01575
s(g9
g29
g10
g4
g12
g13
g26
tp1031
F0.00081
s(g9
g29
g10
g24
g12
g6
g7
tp1032
I0
s(g19
g2
g3
g24
g5
g6
g14
tp1033
I0
s(g1
g29
g10
g4
g5
g6
g31
tp1034
F0.02625
s(g1
g16
g10
g11
g25
g13
g26
tp1035
F0.0011250000000000003
s(g1
g29
g10
g11
g25
g6
g7
tp1036
F0.04375
s(g9
g16
g10
g4
g5
g13
g7
tp1037
I0
s(g9
g16
g3
g4
g12
g6
g7
tp1038
I0
s(g1
g29
g3
g24
g12
g13
g7
tp1039
I0
s(g22
g2
g3
g11
g5
g13
g14
tp1040
F0.0
s(g1
g16
g3
g11
g25
g13
g26
tp1041
F0.0011250000000000003
s(g22
g16
g3
g24
g25
g13
g31
tp1042
F0.0
s(g22
g29
g10
g11
g25
g13
g26
tp1043
F0.0
s(g19
g16
g3
g4
g25
g13
g14
tp1044
I0
s(g1
g29
g10
g24
g5
g13
g17
tp1045
F0.0009375
s(g19
g16
g10
g11
g12
g6
g17
tp1046
F0.00105
s(g19
g2
g3
g11
g5
g6
g31
tp1047
F0.02625
s(g19
g16
g10
g4
g5
g13
g17
tp1048
F0.0001125
s(g9
g2
g3
g11
g5
g13
g26
tp1049
F0.00675
s(g1
g2
g3
g24
g12
g6
g7
tp1050
I0
s(g22
g2
g10
g11
g25
g13
g26
tp1051
F0.0
s(g9
g16
g3
g24
g12
g6
g26
tp1052
F0.0011339999999999998
s(g19
g16
g10
g4
g25
g6
g31
tp1053
F0.0015749999999999998
s(g19
g16
g3
g11
g25
g13
g26
tp1054
F0.0003375
s(g1
g29
g10
g11
g12
g13
g26
tp1055
F0.0022500000000000007
s(g19
g29
g3
g11
g25
g13
g17
tp1056
I0
s(g22
g16
g3
g11
g25
g6
g26
tp1057
F0.0
s(g19
g16
g10
g11
g25
g13
g26
tp1058
F0.0003375
s(g1
g16
g10
g11
g12
g13
g7
tp1059
F0.00025000000000000006
s(g19
g16
g10
g4
g25
g13
g14
tp1060
I0
s(g22
g16
g10
g24
g12
g13
g26
tp1061
F0.0
s(g9
g2
g3
g11
g5
g6
g7
tp1062
I0
s(g1
g16
g10
g24
g5
g6
g31
tp1063
F0.0026249999999999997
s(g19
g16
g10
g11
g12
g13
g7
tp1064
F7.500000000000001e-05
s(g22
g29
g3
g11
g5
g6
g14
tp1065
F0.0
s(g1
g16
g10
g24
g12
g13
g31
tp1066
F7.500000000000001e-05
s(g19
g29
g10
g24
g25
g13
g17
tp1067
F0.00028125
s(g1
g2
g3
g4
g12
g13
g26
tp1068
F0.0027
s(g1
g2
g3
g11
g25
g6
g26
tp1069
F0.1575
s(g19
g2
g3
g24
g5
g13
g14
tp1070
I0
s(g22
g29
g10
g24
g12
g6
g14
tp1071
I0
s(g9
g29
g3
g11
g12
g6
g26
tp1072
F0.0189
s(g9
g29
g3
g24
g25
g13
g26
tp1073
F0.0010125
s(g1
g29
g10
g4
g5
g13
g26
tp1074
F0.003375
s(g19
g16
g10
g24
g5
g13
g14
tp1075
I0
s(g1
g2
g3
g4
g25
g6
g26
tp1076
F0.0945
s(g1
g16
g3
g24
g25
g6
g7
tp1077
I0
s(g19
g16
g10
g11
g25
g13
g31
tp1078
F0.0001875
s(g19
g2
g10
g24
g25
g6
g31
tp1079
F0.007875
s(g1
g29
g3
g4
g12
g6
g26
tp1080
F0.0189
s(g19
g2
g3
g24
g12
g6
g7
tp1081
I0
s(g22
g2
g10
g4
g5
g6
g26
tp1082
F0.0
s(g1
g2
g10
g11
g5
g6
g31
tp1083
F0.0875
s(g1
g2
g10
g11
g5
g6
g7
tp1084
F0.0875
s(g9
g29
g10
g4
g12
g6
g31
tp1085
F0.006299999999999999
s(g19
g2
g3
g24
g12
g6
g31
tp1086
F0.0031499999999999996
s(g19
g2
g10
g24
g5
g13
g14
tp1087
I0
s(g19
g16
g3
g11
g25
g6
g14
tp1088
F0.0052499999999999995
s(g9
g2
g3
g24
g5
g6
g7
tp1089
I0
s(g9
g29
g10
g4
g5
g13
g17
tp1090
F0.001125
s(g1
g29
g3
g4
g5
g6
g14
tp1091
I0
s(g1
g2
g10
g24
g12
g13
g26
tp1092
F0.00135
s(g9
g29
g3
g11
g25
g13
g26
tp1093
F0.003375
s(g9
g2
g3
g24
g5
g6
g26
tp1094
F0.02835
s(g19
g2
g3
g11
g12
g6
g17
tp1095
I0
s(g9
g16
g3
g4
g25
g6
g17
tp1096
I0
s(g1
g2
g10
g4
g25
g6
g31
tp1097
F0.0525
s(g22
g16
g3
g11
g5
g13
g14
tp1098
F0.0
s(g1
g2
g3
g4
g25
g13
g26
tp1099
F0.00675
s(g19
g16
g3
g11
g12
g6
g17
tp1100
I0
s(g1
g16
g10
g11
g5
g6
g14
tp1101
F0.017499999999999998
s(g19
g29
g3
g4
g12
g13
g7
tp1102
I0
s(g1
g29
g3
g24
g12
g6
g31
tp1103
F0.0052499999999999995
s(g9
g29
g10
g24
g25
g6
g31
tp1104
F0.007875
s(g1
g29
g3
g24
g25
g13
g31
tp1105
F0.0009375
s(g1
g2
g3
g11
g5
g6
g7
tp1106
I0
s(g9
g16
g3
g11
g25
g6
g17
tp1107
I0
s(g22
g2
g10
g4
g25
g6
g17
tp1108
F0.0
s(g22
g16
g3
g4
g5
g6
g31
tp1109
F0.0
s(g1
g2
g10
g11
g5
g13
g26
tp1110
F0.011250000000000001
s(g9
g16
g10
g4
g25
g6
g31
tp1111
F0.0031499999999999996
s(g22
g29
g3
g4
g5
g6
g17
tp1112
I0
s(g19
g16
g3
g11
g5
g13
g14
tp1113
F0.000375
s(g9
g16
g10
g4
g5
g6
g7
tp1114
I0
s(g19
g2
g10
g11
g12
g13
g26
tp1115
F0.00135
s(g9
g16
g10
g11
g25
g6
g26
tp1116
F0.00945
s(g9
g2
g10
g24
g5
g6
g26
tp1117
F0.02835
s(g22
g2
g10
g24
g5
g13
g26
tp1118
F0.0
s(g19
g2
g10
g4
g12
g6
g7
tp1119
I0
s(g9
g29
g10
g24
g5
g6
g14
tp1120
I0
s(g1
g29
g3
g4
g5
g13
g26
tp1121
F0.003375
s(g9
g16
g10
g24
g5
g6
g26
tp1122
F0.002835
s(g22
g29
g3
g4
g25
g6
g17
tp1123
I0
s(g19
g16
g10
g4
g5
g6
g31
tp1124
F0.0015749999999999998
s(g9
g29
g3
g4
g12
g13
g14
tp1125
I0
s(g9
g2
g10
g24
g25
g13
g7
tp1126
I0
s(g19
g16
g3
g4
g25
g13
g17
tp1127
I0
s(g9
g29
g10
g11
g25
g13
g31
tp1128
F0.001875
s(g9
g2
g3
g4
g5
g13
g26
tp1129
F0.00405
s(g19
g2
g10
g4
g25
g6
g14
tp1130
I0
s(g1
g29
g10
g4
g5
g6
g7
tp1131
I0
s(g19
g2
g10
g4
g12
g13
g17
tp1132
F0.00045
s(g22
g29
g3
g4
g5
g13
g7
tp1133
I0
s(g1
g2
g3
g24
g12
g6
g17
tp1134
I0
s(g9
g2
g10
g4
g25
g13
g14
tp1135
I0
s(g22
g29
g10
g11
g5
g6
g14
tp1136
F0.0
s(g1
g2
g10
g11
g25
g6
g17
tp1137
F0.0875
s(g9
g16
g10
g4
g25
g13
g14
tp1138
I0
s(g9
g29
g3
g4
g25
g6
g17
tp1139
I0
s(g9
g16
g10
g4
g12
g6
g14
tp1140
I0
s(g22
g16
g10
g4
g5
g13
g7
tp1141
I0
s(g19
g2
g3
g24
g25
g6
g17
tp1142
I0
s(g1
g2
g3
g24
g12
g6
g26
tp1143
F0.0189
s(g9
g16
g3
g24
g25
g6
g31
tp1144
F0.0015749999999999998
s(g9
g16
g10
g11
g5
g13
g7
tp1145
F0.000375
s(g22
g29
g3
g11
g12
g6
g17
tp1146
I0
s(g22
g16
g3
g11
g12
g6
g7
tp1147
I0
s(g9
g2
g3
g24
g25
g6
g14
tp1148
I0
s(g1
g29
g10
g24
g25
g13
g26
tp1149
F0.0016875
s(g22
g16
g10
g4
g25
g13
g26
tp1150
F0.0
s(g19
g16
g3
g4
g25
g6
g7
tp1151
I0
s(g19
g29
g10
g24
g25
g6
g31
tp1152
F0.0039375
s(g1
g29
g3
g4
g12
g13
g26
tp1153
F0.00135
s(g19
g16
g3
g4
g12
g13
g17
tp1154
I0
s(g22
g16
g10
g11
g25
g13
g26
tp1155
F0.0
s(g19
g16
g3
g24
g12
g13
g14
tp1156
I0
s(g22
g29
g10
g11
g5
g6
g17
tp1157
F0.0
s(g1
g16
g10
g11
g12
g6
g17
tp1158
F0.0035000000000000005
s(g9
g29
g3
g24
g12
g13
g17
tp1159
I0
s(g22
g2
g3
g11
g25
g6
g14
tp1160
F0.0
s(g19
g29
g3
g24
g5
g13
g14
tp1161
I0
s(g1
g2
g10
g4
g5
g13
g31
tp1162
F0.00375
s(g22
g2
g10
g4
g12
g6
g31
tp1163
F0.0
s(g19
g16
g10
g24
g25
g6
g26
tp1164
F0.0014175
s(g9
g2
g3
g4
g12
g6
g31
tp1165
F0.012599999999999998
s(g9
g16
g10
g4
g12
g13
g17
tp1166
F9e-05
s(g22
g16
g3
g24
g5
g13
g26
tp1167
F0.0
s(g22
g16
g10
g11
g12
g6
g14
tp1168
F0.0
s(g9
g16
g3
g24
g5
g6
g14
tp1169
I0
s(g22
g2
g10
g24
g12
g6
g14
tp1170
I0
s(g22
g2
g3
g11
g12
g6
g31
tp1171
F0.0
s(g9
g2
g10
g4
g12
g6
g31
tp1172
F0.012599999999999998
s(g9
g29
g10
g4
g5
g6
g17
tp1173
F0.01575
s(g9
g16
g3
g4
g12
g6
g26
tp1174
F0.0022679999999999996
s(g9
g16
g10
g4
g5
g13
g26
tp1175
F0.000405
s(g19
g29
g3
g11
g5
g6
g14
tp1176
F0.02625
s(g19
g16
g3
g24
g25
g6
g31
tp1177
F0.0007874999999999999
s(g19
g16
g10
g24
g12
g13
g7
tp1178
I0
s(g9
g2
g3
g11
g25
g13
g7
tp1179
I0
s(g1
g29
g10
g4
g12
g6
g14
tp1180
I0
s(g19
g2
g10
g4
g5
g6
g14
tp1181
I0
s(g9
g2
g3
g24
g25
g13
g17
tp1182
I0
s(g22
g2
g3
g24
g25
g13
g31
tp1183
F0.0
s(g19
g2
g3
g11
g12
g6
g7
tp1184
I0
s(g19
g2
g3
g24
g5
g6
g31
tp1185
F0.007875
s(g22
g29
g10
g11
g12
g13
g26
tp1186
F0.0
s(g22
g2
g3
g4
g12
g13
g26
tp1187
F0.0
s(g1
g16
g10
g24
g25
g13
g14
tp1188
I0
s(g1
g16
g10
g24
g12
g6
g17
tp1189
F0.00105
s(g1
g2
g3
g11
g5
g13
g7
tp1190
I0
s(g9
g29
g3
g11
g12
g13
g17
tp1191
I0
s(g19
g29
g3
g11
g5
g13
g17
tp1192
I0
s(g1
g2
g10
g11
g25
g13
g7
tp1193
F0.00625
s(g19
g16
g10
g11
g25
g6
g26
tp1194
F0.004725
s(g22
g2
g10
g24
g12
g6
g7
tp1195
I0
s(g22
g16
g3
g11
g25
g13
g31
tp1196
F0.0
s(g22
g2
g10
g24
g5
g13
g14
tp1197
I0
s(g22
g16
g3
g11
g25
g13
g7
tp1198
I0
s(g1
g16
g3
g24
g12
g13
g31
tp1199
F7.500000000000001e-05
s(g9
g16
g3
g4
g12
g13
g26
tp1200
F0.000162
s(g9
g16
g3
g11
g25
g13
g14
tp1201
F0.00075
s(g1
g2
g10
g24
g25
g13
g14
tp1202
I0
s(g22
g2
g3
g11
g25
g6
g17
tp1203
I0
s(g9
g29
g3
g24
g25
g13
g7
tp1204
I0
s(g1
g16
g10
g11
g5
g13
g31
tp1205
F0.0006250000000000001
s(g1
g2
g3
g11
g5
g13
g31
tp1206
F0.00625
s(g19
g16
g10
g24
g5
g6
g14
tp1207
I0
s(g22
g16
g3
g11
g12
g13
g26
tp1208
F0.0
s(g9
g2
g10
g4
g5
g13
g7
tp1209
I0
s(g19
g29
g10
g11
g5
g13
g31
tp1210
F0.0009375
s(g19
g29
g10
g11
g5
g13
g14
tp1211
F0.001875
s(g19
g2
g10
g4
g5
g13
g7
tp1212
I0
s(g19
g29
g10
g4
g25
g13
g31
tp1213
F0.0005625
s(g22
g29
g3
g11
g12
g13
g17
tp1214
I0
s(g22
g16
g3
g24
g25
g13
g17
tp1215
I0
s(g1
g2
g3
g24
g5
g6
g14
tp1216
I0
s(g22
g29
g10
g11
g5
g13
g17
tp1217
F0.0
s(g19
g2
g10
g4
g5
g13
g14
tp1218
I0
s(g19
g29
g3
g11
g5
g6
g7
tp1219
I0
s(g22
g29
g3
g11
g5
g13
g31
tp1220
F0.0
s(g1
g29
g3
g24
g12
g13
g17
tp1221
I0
s(g22
g29
g10
g4
g12
g6
g31
tp1222
F0.0
s(g22
g2
g10
g11
g12
g13
g14
tp1223
F0.0
s(g19
g2
g10
g11
g5
g6
g14
tp1224
F0.0525
s(g19
g2
g3
g24
g5
g13
g17
tp1225
I0
s(g19
g16
g3
g24
g25
g6
g14
tp1226
I0
s(g9
g16
g10
g11
g5
g6
g26
tp1227
F0.00945
s(g22
g29
g3
g11
g5
g6
g17
tp1228
I0
s(g19
g2
g10
g4
g5
g6
g31
tp1229
F0.01575
s(g19
g29
g10
g24
g5
g13
g26
tp1230
F0.00050625
s(g9
g2
g3
g4
g12
g6
g7
tp1231
I0
s(g9
g2
g10
g11
g5
g13
g31
tp1232
F0.00375
s(g1
g2
g10
g24
g5
g13
g14
tp1233
I0
s(g9
g16
g3
g24
g25
g13
g17
tp1234
I0
s(g9
g16
g10
g24
g5
g6
g31
tp1235
F0.0015749999999999998
s(g19
g2
g10
g24
g25
g6
g14
tp1236
I0
s(g1
g16
g3
g24
g25
g13
g14
tp1237
I0
s(g1
g2
g10
g24
g25
g13
g17
tp1238
F0.001875
s(g22
g29
g3
g24
g5
g6
g7
tp1239
I0
s(g22
g16
g10
g24
g5
g13
g31
tp1240
F0.0
s(g19
g16
g3
g24
g25
g13
g31
tp1241
F5.625e-05
s(g1
g16
g10
g4
g5
g13
g14
tp1242
I0
s(g1
g2
g3
g24
g5
g13
g14
tp1243
I0
s(g1
g2
g10
g4
g25
g6
g14
tp1244
I0
s(g9
g29
g10
g11
g12
g6
g14
tp1245
F0.020999999999999998
s(g19
g29
g3
g4
g25
g6
g31
tp1246
F0.007875
s(g19
g2
g3
g11
g25
g13
g7
tp1247
I0
s(g1
g2
g10
g24
g25
g6
g31
tp1248
F0.02625
s(g19
g16
g10
g24
g12
g6
g7
tp1249
I0
s(g19
g16
g3
g4
g5
g6
g7
tp1250
I0
s(g22
g2
g3
g11
g25
g13
g14
tp1251
F0.0
s(g1
g29
g3
g4
g25
g6
g26
tp1252
F0.04725
s(g9
g16
g10
g24
g5
g6
g7
tp1253
I0
s(g1
g29
g3
g4
g5
g13
g7
tp1254
I0
s(g19
g16
g10
g4
g12
g6
g26
tp1255
F0.0011339999999999998
s(g9
g29
g10
g11
g5
g13
g17
tp1256
F0.001875
s(g22
g2
g3
g4
g12
g6
g26
tp1257
F0.0
s(g1
g16
g10
g24
g5
g13
g31
tp1258
F0.0001875
s(g1
g29
g3
g24
g12
g6
g26
tp1259
F0.00945
s(g19
g2
g3
g24
g12
g6
g17
tp1260
I0
s(g1
g29
g10
g24
g25
g6
g31
tp1261
F0.013125
s(g19
g29
g10
g24
g25
g6
g17
tp1262
F0.0039375
s(g22
g29
g3
g4
g5
g13
g31
tp1263
F0.0
s(g9
g16
g10
g24
g12
g13
g17
tp1264
F4.5e-05
s(g1
g16
g3
g11
g12
g6
g17
tp1265
I0
s(g22
g2
g3
g11
g12
g13
g14
tp1266
F0.0
s(g1
g16
g3
g24
g5
g6
g7
tp1267
I0
s(g22
g16
g10
g24
g12
g6
g14
tp1268
I0
s(g1
g2
g10
g11
g5
g13
g31
tp1269
F0.00625
s(g1
g2
g10
g4
g25
g13
g26
tp1270
F0.00675
s(g1
g29
g3
g4
g25
g6
g7
tp1271
I0
s(g19
g2
g10
g24
g5
g6
g26
tp1272
F0.014175
s(g22
g29
g10
g4
g12
g6
g7
tp1273
I0
s(g19
g16
g10
g4
g5
g6
g14
tp1274
I0
s(g9
g16
g10
g11
g25
g6
g31
tp1275
F0.0052499999999999995
s(g9
g2
g10
g11
g5
g6
g17
tp1276
F0.0525
s(g9
g29
g10
g24
g5
g6
g31
tp1277
F0.007875
s(g19
g2
g3
g4
g5
g13
g26
tp1278
F0.002025
s(g19
g29
g10
g4
g5
g6
g14
tp1279
I0
s(g22
g2
g3
g11
g25
g6
g26
tp1280
F0.0
s(g9
g29
g3
g4
g5
g13
g7
tp1281
I0
s(g1
g2
g10
g4
g25
g13
g17
tp1282
F0.00375
s(g19
g29
g3
g24
g25
g13
g31
tp1283
F0.00028125
s(g22
g2
g3
g24
g12
g6
g31
tp1284
F0.0
s(g19
g29
g10
g24
g5
g13
g14
tp1285
I0
s(g19
g29
g10
g4
g5
g6
g26
tp1286
F0.014175
s(g1
g2
g3
g11
g5
g6
g31
tp1287
F0.0875
s(g22
g29
g3
g4
g12
g13
g31
tp1288
F0.0
s(g19
g16
g3
g24
g25
g6
g26
tp1289
F0.0014175
s(g1
g29
g10
g4
g25
g13
g31
tp1290
F0.001875
s(g9
g2
g10
g11
g12
g6
g26
tp1291
F0.0378
s(g9
g2
g10
g11
g12
g6
g7
tp1292
F0.020999999999999998
s(g19
g29
g3
g4
g12
g6
g7
tp1293
I0
s(g9
g2
g10
g24
g12
g6
g7
tp1294
I0
s(g9
g2
g10
g11
g25
g6
g31
tp1295
F0.0525
s(g1
g16
g3
g4
g25
g6
g7
tp1296
I0
s(g22
g2
g3
g11
g12
g6
g26
tp1297
F0.0
s(g19
g16
g10
g11
g5
g6
g31
tp1298
F0.0026249999999999997
s(g19
g16
g3
g4
g25
g13
g31
tp1299
F0.0001125
s(g1
g16
g3
g4
g25
g6
g31
tp1300
F0.0052499999999999995
s(g1
g16
g3
g24
g25
g6
g26
tp1301
F0.004725
s(g1
g29
g3
g24
g12
g6
g17
tp1302
I0
s(g1
g29
g10
g11
g5
g13
g26
tp1303
F0.005625000000000001
s(g1
g2
g10
g4
g5
g13
g26
tp1304
F0.00675
s(g9
g29
g10
g11
g25
g6
g14
tp1305
F0.0525
s(g19
g29
g10
g24
g12
g6
g31
tp1306
F0.0015749999999999998
s(g9
g16
g3
g11
g12
g6
g26
tp1307
F0.00378
s(g19
g29
g10
g11
g25
g13
g17
tp1308
F0.0009375
s(g19
g2
g10
g11
g25
g13
g14
tp1309
F0.00375
s(g22
g16
g10
g11
g5
g6
g26
tp1310
F0.0
s(g1
g29
g10
g11
g5
g13
g14
tp1311
F0.00625
s(g22
g29
g3
g24
g12
g6
g17
tp1312
I0
s(g1
g2
g10
g24
g5
g6
g14
tp1313
I0
s(g9
g29
g3
g4
g12
g6
g14
tp1314
I0
s(g9
g29
g10
g11
g5
g6
g31
tp1315
F0.02625
s(g19
g16
g10
g11
g25
g6
g14
tp1316
F0.0052499999999999995
s(g19
g16
g10
g24
g12
g13
g31
tp1317
F2.25e-05
s(g19
g29
g10
g4
g12
g13
g7
tp1318
I0
s(g22
g2
g3
g4
g12
g6
g7
tp1319
I0
s(g9
g16
g10
g24
g12
g6
g17
tp1320
F0.0006299999999999999
s(g19
g2
g3
g11
g5
g13
g14
tp1321
F0.00375
s(g19
g16
g10
g24
g5
g6
g17
tp1322
F0.0007874999999999999
s(g19
g16
g3
g11
g25
g13
g31
tp1323
F0.0001875
s(g9
g29
g3
g24
g12
g13
g31
tp1324
F0.000225
s(g1
g2
g3
g24
g12
g6
g31
tp1325
F0.010499999999999999
s(g22
g2
g3
g4
g5
g6
g26
tp1326
F0.0
s(g19
g29
g3
g24
g12
g6
g17
tp1327
I0
s(g1
g29
g10
g24
g5
g6
g26
tp1328
F0.023625
s(g22
g2
g3
g11
g5
g6
g14
tp1329
F0.0
s(g1
g2
g3
g11
g5
g13
g26
tp1330
F0.011250000000000001
s(g9
g16
g10
g11
g25
g13
g26
tp1331
F0.000675
s(g22
g16
g3
g24
g25
g6
g7
tp1332
I0
s(g9
g29
g3
g4
g25
g6
g31
tp1333
F0.01575
s(g22
g29
g10
g4
g25
g13
g31
tp1334
F0.0
s(g22
g16
g3
g11
g25
g6
g7
tp1335
I0
s(g19
g29
g3
g4
g5
g13
g31
tp1336
F0.0005625
s(g19
g29
g10
g24
g25
g13
g31
tp1337
F0.00028125
s(g9
g29
g3
g24
g5
g13
g31
tp1338
F0.0005625
s(g1
g16
g10
g11
g25
g6
g31
tp1339
F0.008749999999999999
s(g19
g29
g3
g4
g25
g6
g7
tp1340
I0
s(g9
g16
g10
g4
g5
g6
g17
tp1341
F0.0031499999999999996
s(g9
g2
g10
g4
g5
g13
g17
tp1342
F0.00225
s(g1
g29
g10
g4
g25
g6
g17
tp1343
F0.02625
s(g9
g2
g10
g4
g5
g6
g17
tp1344
F0.0315
s(g22
g2
g10
g4
g25
g13
g17
tp1345
F0.0
s(g1
g16
g10
g24
g25
g6
g7
tp1346
I0
s(g9
g2
g3
g4
g5
g13
g7
tp1347
I0
s(g22
g16
g10
g4
g5
g13
g31
tp1348
F0.0
s(g9
g16
g3
g11
g12
g13
g7
tp1349
I0
s(g22
g2
g10
g24
g25
g6
g7
tp1350
I0
s(g9
g16
g10
g11
g25
g13
g17
tp1351
F0.000375
s(g1
g16
g3
g24
g12
g13
g26
tp1352
F0.00013500000000000003
s(g1
g2
g10
g24
g12
g6
g14
tp1353
I0
s(g22
g29
g10
g24
g25
g6
g14
tp1354
I0
s(g1
g16
g3
g4
g5
g6
g31
tp1355
F0.0052499999999999995
s(g9
g29
g3
g11
g5
g13
g17
tp1356
I0
s(g1
g29
g3
g11
g25
g13
g14
tp1357
F0.00625
s(g19
g16
g3
g11
g12
g13
g14
tp1358
F0.00015000000000000001
s(g9
g2
g10
g11
g5
g13
g7
tp1359
F0.00375
s(g9
g2
g10
g11
g5
g13
g26
tp1360
F0.00675
s(g9
g16
g3
g24
g25
g13
g7
tp1361
I0
s(g19
g29
g10
g4
g25
g6
g26
tp1362
F0.014175
s(g9
g16
g10
g11
g12
g13
g14
tp1363
F0.00030000000000000003
s(g19
g16
g3
g11
g12
g13
g17
tp1364
I0
s(g1
g29
g3
g4
g25
g13
g26
tp1365
F0.003375
s(g9
g16
g3
g4
g25
g6
g31
tp1366
F0.0031499999999999996
s(g9
g2
g10
g11
g12
g13
g7
tp1367
F0.0015
s(g9
g29
g3
g11
g25
g13
g14
tp1368
F0.00375
s(g1
g2
g10
g11
g5
g13
g17
tp1369
F0.00625
s(g19
g2
g3
g24
g25
g13
g26
tp1370
F0.0010125
s(g22
g2
g3
g4
g12
g6
g31
tp1371
F0.0
s(g22
g29
g10
g11
g12
g6
g14
tp1372
F0.0
s(g22
g29
g3
g11
g25
g6
g17
tp1373
I0
s(g22
g16
g10
g11
g12
g13
g17
tp1374
F0.0
s(g22
g2
g3
g4
g12
g13
g14
tp1375
I0
s(g1
g2
g3
g24
g12
g13
g7
tp1376
I0
s(g19
g16
g10
g24
g25
g13
g31
tp1377
F5.625e-05
s(g22
g2
g3
g4
g25
g13
g7
tp1378
I0
s(g9
g29
g10
g11
g5
g6
g7
tp1379
F0.02625
s(g1
g16
g10
g24
g5
g13
g17
tp1380
F0.0001875
s(g19
g2
g10
g4
g5
g6
g26
tp1381
F0.02835
s(g1
g16
g3
g11
g25
g6
g26
tp1382
F0.01575
s(g22
g2
g3
g11
g5
g6
g31
tp1383
F0.0
s(g22
g16
g3
g11
g25
g6
g31
tp1384
F0.0
s(g19
g29
g10
g11
g25
g13
g26
tp1385
F0.0016875
s(g22
g16
g10
g11
g25
g6
g31
tp1386
F0.0
s(g1
g16
g10
g4
g5
g6
g7
tp1387
I0
s(g22
g29
g3
g11
g12
g13
g7
tp1388
I0
s(g22
g2
g10
g11
g12
g6
g14
tp1389
F0.0
s(g19
g2
g3
g4
g12
g6
g31
tp1390
F0.006299999999999999
s(g9
g29
g10
g24
g5
g6
g26
tp1391
F0.014175
s(g22
g29
g10
g24
g5
g13
g31
tp1392
F0.0
s(g22
g2
g3
g24
g25
g6
g17
tp1393
I0
s(g9
g29
g10
g24
g25
g6
g14
tp1394
I0
s(g9
g16
g10
g11
g25
g6
g14
tp1395
F0.010499999999999999
s(g19
g2
g3
g4
g5
g13
g31
tp1396
F0.001125
s(g22
g16
g10
g24
g12
g13
g14
tp1397
I0
s(g19
g2
g10
g11
g25
g6
g7
tp1398
F0.02625
s(g1
g2
g3
g24
g25
g6
g31
tp1399
F0.02625
s(g22
g29
g10
g24
g25
g6
g31
tp1400
F0.0
s(g19
g29
g10
g11
g12
g6
g17
tp1401
F0.0052499999999999995
s(g1
g2
g3
g4
g25
g13
g7
tp1402
I0
s(g9
g29
g10
g24
g12
g13
g14
tp1403
I0
s(g22
g16
g3
g4
g25
g6
g7
tp1404
I0
s(g22
g2
g10
g4
g25
g13
g14
tp1405
I0
s(g9
g29
g3
g11
g5
g13
g26
tp1406
F0.003375
s(g1
g2
g3
g11
g25
g13
g26
tp1407
F0.011250000000000001
s(g22
g16
g3
g24
g12
g13
g26
tp1408
F0.0
s(g1
g29
g10
g24
g25
g6
g14
tp1409
I0
s(g19
g16
g10
g24
g5
g6
g26
tp1410
F0.0014175
s(g22
g29
g3
g24
g5
g13
g31
tp1411
F0.0
s(g19
g29
g3
g24
g5
g6
g7
tp1412
I0
s(g1
g2
g3
g11
g5
g13
g17
tp1413
I0
s(g1
g29
g3
g24
g5
g6
g14
tp1414
I0
s(g1
g29
g10
g24
g5
g13
g31
tp1415
F0.0009375
s(g1
g16
g3
g24
g25
g6
g31
tp1416
F0.0026249999999999997
s(g19
g29
g10
g24
g12
g13
g31
tp1417
F0.0001125
s(g22
g29
g10
g4
g5
g6
g7
tp1418
I0
s(g22
g29
g10
g11
g25
g6
g17
tp1419
F0.0
s(g19
g29
g10
g24
g12
g6
g26
tp1420
F0.002835
s(g1
g2
g10
g24
g12
g13
g14
tp1421
I0
s(g9
g16
g3
g4
g12
g13
g7
tp1422
I0
s(g22
g16
g3
g4
g5
g13
g17
tp1423
I0
s(g1
g16
g10
g24
g5
g6
g7
tp1424
I0
s(g9
g2
g3
g24
g12
g13
g14
tp1425
I0
s(g22
g2
g3
g11
g12
g6
g7
tp1426
I0
s(g1
g16
g3
g4
g25
g6
g26
tp1427
F0.00945
s(g19
g16
g10
g24
g12
g13
g17
tp1428
F2.25e-05
s(g1
g29
g10
g4
g25
g13
g26
tp1429
F0.003375
s(g19
g2
g3
g4
g5
g6
g14
tp1430
I0
s(g1
g29
g3
g11
g12
g13
g14
tp1431
F0.0025000000000000005
s(g22
g29
g10
g24
g5
g6
g17
tp1432
F0.0
s(g22
g2
g3
g11
g25
g6
g31
tp1433
F0.0
s(g19
g16
g10
g11
g12
g6
g14
tp1434
F0.0021
s(g9
g16
g3
g24
g12
g13
g7
tp1435
I0
s(g9
g2
g10
g11
g25
g13
g14
tp1436
F0.0075
s(g22
g2
g3
g11
g12
g6
g17
tp1437
I0
s(g22
g16
g10
g4
g12
g13
g14
tp1438
I0
s(g1
g2
g10
g4
g25
g6
g17
tp1439
F0.0525
s(g22
g2
g10
g11
g5
g13
g14
tp1440
F0.0
s(g19
g16
g3
g11
g12
g13
g7
tp1441
I0
s(g9
g29
g10
g4
g5
g13
g14
tp1442
I0
s(g1
g16
g10
g4
g25
g6
g31
tp1443
F0.0052499999999999995
s(g1
g2
g3
g24
g5
g13
g7
tp1444
I0
s(g19
g2
g3
g4
g12
g13
g17
tp1445
I0
s(g9
g29
g3
g4
g25
g13
g17
tp1446
I0
s(g9
g2
g10
g11
g25
g6
g26
tp1447
F0.0945
s(g22
g16
g3
g24
g25
g13
g7
tp1448
I0
s(g1
g16
g3
g24
g5
g6
g31
tp1449
F0.0026249999999999997
s(g19
g16
g10
g24
g12
g13
g26
tp1450
F4.05e-05
s(g19
g2
g10
g4
g5
g6
g17
tp1451
F0.01575
s(g1
g2
g10
g11
g5
g13
g14
tp1452
F0.0125
s(g1
g16
g3
g11
g12
g6
g14
tp1453
F0.007000000000000001
s(g1
g29
g10
g11
g12
g13
g14
tp1454
F0.0025000000000000005
s(g9
g16
g3
g24
g12
g6
g31
tp1455
F0.0006299999999999999
s(g19
g2
g3
g11
g25
g6
g17
tp1456
I0
s(g1
g16
g10
g24
g12
g13
g26
tp1457
F0.00013500000000000003
s(g1
g29
g10
g11
g5
g13
g31
tp1458
F0.003125
s(g22
g2
g10
g24
g5
g13
g7
tp1459
I0
s(g22
g2
g3
g24
g12
g13
g17
tp1460
I0
s(g19
g16
g10
g11
g5
g13
g14
tp1461
F0.000375
s(g22
g29
g10
g11
g25
g6
g26
tp1462
F0.0
s(g9
g16
g10
g11
g25
g13
g31
tp1463
F0.000375
s(g1
g2
g10
g24
g25
g6
g14
tp1464
I0
s(g1
g2
g10
g11
g12
g13
g17
tp1465
F0.0025000000000000005
s(g1
g29
g10
g11
g12
g13
g31
tp1466
F0.0012500000000000002
s(g9
g16
g3
g11
g12
g13
g26
tp1467
F0.00027000000000000006
s(g1
g16
g10
g4
g12
g13
g7
tp1468
I0
s(g19
g29
g3
g11
g12
g13
g7
tp1469
I0
s(g1
g16
g10
g11
g12
g6
g14
tp1470
F0.007000000000000001
s(g22
g2
g3
g24
g5
g13
g26
tp1471
F0.0
s(g22
g16
g10
g24
g5
g13
g17
tp1472
F0.0
s(g9
g16
g10
g4
g5
g6
g31
tp1473
F0.0031499999999999996
s(g1
g29
g10
g11
g5
g6
g7
tp1474
F0.04375
s(g22
g16
g10
g24
g12
g13
g31
tp1475
F0.0
s(g22
g2
g10
g4
g5
g6
g14
tp1476
I0
s(g22
g16
g10
g4
g5
g13
g26
tp1477
F0.0
s(g1
g29
g3
g4
g12
g6
g14
tp1478
I0
s(g9
g16
g10
g11
g25
g13
g7
tp1479
F0.000375
s(g22
g29
g3
g4
g5
g6
g7
tp1480
I0
s(g9
g29
g3
g24
g12
g13
g26
tp1481
F0.000405
s(g1
g29
g10
g4
g12
g13
g31
tp1482
F0.00075
s(g9
g29
g3
g24
g5
g13
g26
tp1483
F0.0010125
s(g9
g2
g3
g11
g12
g13
g26
tp1484
F0.0027
s(g19
g16
g3
g11
g5
g6
g7
tp1485
I0
s(g1
g2
g3
g4
g25
g6
g14
tp1486
I0
s(g22
g29
g10
g4
g12
g13
g14
tp1487
I0
s(g22
g29
g10
g24
g12
g13
g17
tp1488
F0.0
s(g9
g2
g3
g24
g25
g6
g17
tp1489
I0
s(g1
g29
g10
g4
g5
g13
g14
tp1490
I0
s(g1
g16
g10
g24
g5
g6
g26
tp1491
F0.004725
s(g22
g16
g3
g24
g12
g6
g17
tp1492
I0
s(g1
g2
g3
g24
g25
g13
g17
tp1493
I0
s(g22
g29
g10
g24
g25
g6
g7
tp1494
I0
s(g9
g2
g10
g4
g5
g6
g26
tp1495
F0.0567
s(g19
g16
g10
g24
g25
g13
g26
tp1496
F0.00010125
s(g1
g2
g10
g11
g5
g6
g26
tp1497
F0.1575
s(g22
g16
g10
g11
g12
g13
g14
tp1498
F0.0
s(g19
g16
g3
g4
g12
g6
g14
tp1499
I0
s(g1
g2
g10
g4
g5
g6
g14
tp1500
I0
s(g19
g16
g3
g24
g5
g13
g26
tp1501
F0.00010125
s(g1
g29
g10
g24
g12
g13
g17
tp1502
F0.000375
s(g1
g16
g3
g24
g12
g6
g7
tp1503
I0
s(g9
g2
g10
g11
g5
g13
g17
tp1504
F0.00375
s(g1
g16
g10
g4
g25
g13
g14
tp1505
I0
s(g22
g29
g3
g24
g25
g13
g31
tp1506
F0.0
s(g1
g16
g3
g11
g25
g6
g31
tp1507
F0.008749999999999999
s(g9
g16
g10
g11
g12
g6
g31
tp1508
F0.0021
s(g19
g2
g3
g4
g5
g6
g17
tp1509
I0
s(g19
g29
g10
g11
g25
g13
g31
tp1510
F0.0009375
s(g22
g29
g10
g4
g25
g6
g17
tp1511
F0.0
s(g19
g2
g10
g11
g5
g13
g7
tp1512
F0.001875
s(g22
g2
g3
g24
g25
g13
g7
tp1513
I0
s(g9
g2
g3
g24
g5
g13
g7
tp1514
I0
s(g1
g16
g3
g24
g12
g6
g17
tp1515
I0
s(g19
g16
g3
g24
g5
g13
g7
tp1516
I0
s(g1
g29
g3
g4
g5
g13
g17
tp1517
I0
s(g22
g29
g3
g11
g25
g6
g26
tp1518
F0.0
s(g1
g16
g10
g11
g25
g13
g17
tp1519
F0.0006250000000000001
s(g22
g2
g10
g4
g25
g13
g31
tp1520
F0.0
s(g1
g16
g3
g11
g25
g13
g14
tp1521
F0.0012500000000000002
s(g1
g2
g3
g4
g12
g6
g7
tp1522
I0
s(g19
g16
g3
g24
g5
g13
g17
tp1523
I0
s(g22
g29
g3
g24
g5
g13
g26
tp1524
F0.0
s(g1
g29
g10
g11
g12
g6
g14
tp1525
F0.034999999999999996
s(g9
g29
g10
g4
g5
g6
g14
tp1526
I0
s(g9
g2
g10
g11
g25
g6
g17
tp1527
F0.0525
s(g22
g29
g10
g4
g25
g6
g7
tp1528
I0
s(g1
g29
g3
g11
g25
g6
g26
tp1529
F0.07875
s(g19
g29
g3
g4
g5
g6
g7
tp1530
I0
s(g9
g2
g10
g4
g5
g13
g14
tp1531
I0
s(g1
g16
g10
g11
g25
g6
g14
tp1532
F0.017499999999999998
s(g19
g2
g3
g4
g12
g6
g26
tp1533
F0.01134
s(g9
g29
g3
g11
g5
g13
g31
tp1534
F0.001875
s(g22
g2
g10
g4
g5
g6
g17
tp1535
F0.0
s(g19
g29
g10
g11
g25
g13
g7
tp1536
F0.0009375
s(g19
g2
g10
g4
g5
g13
g17
tp1537
F0.001125
s(g9
g29
g3
g11
g5
g6
g7
tp1538
I0
s(g9
g16
g3
g4
g5
g13
g17
tp1539
I0
s(g22
g16
g10
g11
g25
g6
g14
tp1540
F0.0
s(g22
g16
g10
g11
g25
g6
g26
tp1541
F0.0
s(g1
g29
g10
g11
g5
g6
g26
tp1542
F0.07875
s(g19
g29
g10
g24
g25
g6
g7
tp1543
I0
s(g9
g29
g3
g24
g12
g13
g14
tp1544
I0
s(g19
g16
g3
g11
g5
g13
g31
tp1545
F0.0001875
s(g19
g16
g10
g11
g25
g13
g14
tp1546
F0.000375
s(g22
g2
g10
g11
g5
g6
g14
tp1547
F0.0
s(g1
g2
g3
g11
g25
g13
g31
tp1548
F0.00625
s(g9
g16
g10
g11
g25
g6
g17
tp1549
F0.0052499999999999995
s(g22
g16
g3
g24
g5
g13
g17
tp1550
I0
s(g22
g2
g3
g4
g5
g13
g31
tp1551
F0.0
s(g9
g16
g10
g24
g12
g6
g14
tp1552
I0
s(g9
g16
g3
g11
g5
g6
g7
tp1553
I0
s(g19
g16
g10
g4
g25
g13
g31
tp1554
F0.0001125
s(g9
g16
g3
g24
g25
g6
g7
tp1555
I0
s(g9
g29
g3
g24
g5
g6
g7
tp1556
I0
s(g19
g2
g10
g24
g12
g13
g26
tp1557
F0.000405
s(g1
g2
g3
g24
g12
g13
g26
tp1558
F0.00135
s(g9
g16
g10
g4
g5
g13
g31
tp1559
F0.000225
s(g1
g29
g10
g24
g12
g13
g14
tp1560
I0
s(g19
g29
g10
g24
g12
g13
g26
tp1561
F0.0002025
s(g9
g16
g3
g11
g25
g6
g7
tp1562
I0
s(g19
g16
g10
g24
g25
g6
g31
tp1563
F0.0007874999999999999
s(g19
g16
g10
g24
g5
g6
g31
tp1564
F0.0007874999999999999
s(g1
g29
g10
g11
g5
g6
g17
tp1565
F0.04375
s(g19
g29
g10
g4
g25
g6
g7
tp1566
I0
s(g9
g2
g3
g11
g25
g6
g14
tp1567
F0.105
s(g22
g16
g10
g11
g25
g13
g31
tp1568
F0.0
s(g9
g29
g10
g4
g25
g6
g7
tp1569
I0
s(g9
g16
g3
g24
g25
g6
g26
tp1570
F0.002835
s(g22
g16
g10
g4
g5
g6
g17
tp1571
F0.0
s(g9
g29
g3
g24
g25
g13
g17
tp1572
I0
s(g1
g29
g3
g24
g5
g13
g31
tp1573
F0.0009375
s(g1
g16
g3
g4
g5
g13
g17
tp1574
I0
s(g1
g29
g10
g24
g25
g13
g7
tp1575
I0
s(g1
g16
g3
g4
g25
g6
g17
tp1576
I0
s(g1
g2
g10
g24
g12
g13
g17
tp1577
F0.00075
s(g1
g29
g10
g24
g25
g13
g31
tp1578
F0.0009375
s(g9
g2
g10
g24
g12
g6
g17
tp1579
F0.006299999999999999
s(g1
g29
g3
g4
g5
g6
g31
tp1580
F0.02625
s(g9
g16
g3
g4
g25
g13
g14
tp1581
I0
s(g22
g16
g3
g4
g12
g13
g7
tp1582
I0
s(g9
g2
g10
g11
g25
g6
g14
tp1583
F0.105
s(g19
g2
g3
g24
g5
g6
g26
tp1584
F0.014175
s(g19
g29
g10
g4
g12
g6
g17
tp1585
F0.0031499999999999996
s(g9
g16
g10
g4
g25
g6
g7
tp1586
I0
s(g1
g16
g3
g11
g5
g6
g14
tp1587
F0.017499999999999998
s(g19
g29
g3
g11
g12
g13
g26
tp1588
F0.000675
s(g9
g29
g10
g11
g12
g13
g7
tp1589
F0.00075
s(g22
g2
g10
g11
g25
g13
g14
tp1590
F0.0
s(g1
g2
g10
g11
g12
g13
g14
tp1591
F0.005000000000000001
s(g22
g29
g10
g4
g25
g6
g26
tp1592
F0.0
s(g22
g2
g3
g4
g12
g13
g31
tp1593
F0.0
s(g22
g2
g3
g4
g5
g13
g7
tp1594
I0
s(g19
g2
g10
g4
g25
g6
g31
tp1595
F0.01575
s(g19
g29
g10
g24
g5
g6
g14
tp1596
I0
s(g22
g29
g3
g11
g25
g6
g7
tp1597
I0
s(g22
g29
g10
g4
g25
g6
g14
tp1598
I0
s(g1
g16
g10
g11
g5
g13
g26
tp1599
F0.0011250000000000003
s(g19
g16
g10
g11
g25
g6
g31
tp1600
F0.0026249999999999997
s(g9
g16
g10
g4
g5
g6
g26
tp1601
F0.00567
s(g1
g16
g10
g11
g12
g6
g26
tp1602
F0.006300000000000001
s(g22
g16
g3
g11
g12
g13
g31
tp1603
F0.0
s(g19
g16
g3
g11
g25
g6
g17
tp1604
I0
s(g22
g29
g3
g11
g5
g13
g26
tp1605
F0.0
s(g22
g29
g10
g4
g25
g13
g7
tp1606
I0
s(g9
g2
g10
g24
g5
g13
g7
tp1607
I0
s(g9
g29
g3
g4
g12
g6
g26
tp1608
F0.01134
s(g19
g16
g10
g4
g25
g6
g14
tp1609
I0
s(g22
g16
g10
g11
g25
g13
g14
tp1610
F0.0
s(g9
g29
g10
g4
g25
g6
g17
tp1611
F0.01575
s(g1
g16
g10
g4
g12
g6
g14
tp1612
I0
s(g9
g16
g3
g11
g5
g13
g17
tp1613
I0
s(g22
g16
g3
g11
g5
g6
g17
tp1614
I0
s(g22
g29
g10
g11
g25
g6
g31
tp1615
F0.0
s(g19
g2
g10
g4
g12
g13
g26
tp1616
F0.00081
s(g9
g29
g3
g11
g5
g13
g7
tp1617
I0
s(g19
g16
g10
g11
g12
g13
g14
tp1618
F0.00015000000000000001
s(g1
g2
g3
g4
g12
g6
g17
tp1619
I0
s(g9
g16
g3
g11
g25
g13
g17
tp1620
I0
s(g22
g16
g10
g11
g25
g6
g17
tp1621
F0.0
s(g22
g16
g3
g11
g25
g13
g26
tp1622
F0.0
s(g22
g16
g3
g24
g12
g13
g14
tp1623
I0
s(g1
g2
g3
g11
g25
g6
g17
tp1624
I0
s(g22
g29
g3
g4
g12
g6
g14
tp1625
I0
s(g19
g29
g10
g24
g5
g6
g17
tp1626
F0.0039375
s(g9
g2
g10
g4
g5
g6
g31
tp1627
F0.0315
s(g9
g16
g3
g4
g12
g13
g31
tp1628
F9e-05
s(g9
g2
g10
g4
g5
g6
g7
tp1629
I0
s(g9
g16
g10
g24
g5
g13
g17
tp1630
F0.0001125
s(g19
g29
g3
g11
g25
g6
g31
tp1631
F0.013125
s(g9
g16
g10
g4
g12
g6
g31
tp1632
F0.0012599999999999998
s(g1
g29
g10
g11
g5
g13
g17
tp1633
F0.003125
s(g19
g16
g3
g24
g5
g13
g31
tp1634
F5.625e-05
s(g9
g29
g3
g4
g12
g6
g17
tp1635
I0
s(g19
g29
g10
g24
g25
g13
g14
tp1636
I0
s(g9
g16
g10
g11
g12
g6
g14
tp1637
F0.0042
s(g19
g2
g10
g11
g5
g13
g31
tp1638
F0.001875
s(g1
g2
g10
g11
g5
g6
g14
tp1639
F0.175
s(g22
g29
g3
g4
g25
g13
g31
tp1640
F0.0
s(g19
g2
g10
g24
g5
g13
g7
tp1641
I0
s(g22
g29
g10
g4
g25
g6
g31
tp1642
F0.0
s(g19
g16
g10
g4
g12
g6
g17
tp1643
F0.0006299999999999999
s(g19
g29
g10
g24
g5
g13
g31
tp1644
F0.00028125
s(g22
g16
g3
g4
g12
g6
g26
tp1645
F0.0
s(g22
g2
g3
g24
g5
g13
g17
tp1646
I0
s(g19
g29
g10
g24
g12
g6
g7
tp1647
I0
s(g19
g16
g3
g24
g12
g6
g17
tp1648
I0
s(g1
g16
g3
g11
g25
g6
g17
tp1649
I0
s(g19
g2
g3
g11
g12
g6
g26
tp1650
F0.0189
s(g1
g2
g10
g4
g12
g13
g14
tp1651
I0
s(g19
g16
g10
g11
g5
g13
g17
tp1652
F0.0001875
s(g22
g2
g3
g4
g25
g6
g31
tp1653
F0.0
s(g22
g2
g10
g11
g25
g13
g31
tp1654
F0.0
s(g19
g29
g3
g24
g12
g13
g14
tp1655
I0
s(g22
g29
g3
g11
g25
g6
g31
tp1656
F0.0
s(g22
g16
g10
g4
g12
g13
g26
tp1657
F0.0
s(g1
g2
g3
g24
g25
g6
g7
tp1658
I0
s(g9
g2
g3
g4
g12
g13
g17
tp1659
I0
s(g22
g29
g3
g24
g25
g13
g26
tp1660
F0.0
s(g9
g29
g10
g4
g5
g6
g26
tp1661
F0.02835
s(g19
g2
g10
g24
g5
g6
g31
tp1662
F0.007875
s(g1
g16
g10
g24
g5
g13
g26
tp1663
F0.0003375
s(g9
g16
g3
g4
g25
g6
g14
tp1664
I0
s(g9
g29
g10
g11
g12
g13
g31
tp1665
F0.00075
s(g19
g2
g3
g11
g5
g6
g14
tp1666
F0.0525
s(g9
g2
g3
g24
g5
g13
g17
tp1667
I0
s(g22
g29
g10
g11
g25
g13
g31
tp1668
F0.0
s(g19
g29
g3
g11
g12
g6
g7
tp1669
I0
s(g1
g16
g10
g11
g12
g13
g14
tp1670
F0.0005000000000000001
s(g1
g2
g10
g24
g25
g6
g26
tp1671
F0.04725
s(g22
g2
g3
g4
g5
g13
g26
tp1672
F0.0
s(g19
g29
g3
g24
g25
g6
g7
tp1673
I0
s(g1
g29
g3
g11
g25
g6
g31
tp1674
F0.04375
s(g9
g29
g10
g24
g5
g6
g7
tp1675
I0
s(g1
g29
g10
g24
g25
g6
g26
tp1676
F0.023625
s(g1
g29
g10
g11
g5
g6
g31
tp1677
F0.04375
s(g22
g29
g3
g4
g12
g6
g17
tp1678
I0
s(g22
g2
g10
g11
g12
g6
g17
tp1679
F0.0
s(g19
g29
g3
g4
g25
g6
g26
tp1680
F0.014175
s(g22
g2
g10
g24
g5
g6
g31
tp1681
F0.0
s(g1
g16
g10
g4
g12
g13
g31
tp1682
F0.00015000000000000001
s(g22
g2
g10
g4
g25
g13
g26
tp1683
F0.0
s(g1
g29
g3
g4
g25
g6
g31
tp1684
F0.02625
s(g22
g29
g3
g4
g5
g6
g26
tp1685
F0.0
s(g22
g29
g3
g11
g25
g13
g7
tp1686
I0
s(g1
g29
g10
g4
g12
g13
g17
tp1687
F0.00075
s(g19
g29
g3
g24
g25
g13
g26
tp1688
F0.00050625
s(g22
g29
g10
g24
g25
g13
g17
tp1689
F0.0
s(g22
g29
g10
g11
g5
g6
g7
tp1690
F0.0
s(g9
g29
g10
g24
g25
g13
g7
tp1691
I0
s(g22
g29
g3
g4
g5
g13
g26
tp1692
F0.0
s(g22
g16
g10
g24
g25
g13
g26
tp1693
F0.0
s(g9
g2
g10
g11
g12
g6
g17
tp1694
F0.020999999999999998
s(g9
g2
g10
g24
g25
g6
g26
tp1695
F0.02835
s(g9
g16
g10
g4
g12
g13
g14
tp1696
I0
s(g9
g29
g10
g4
g25
g13
g17
tp1697
F0.001125
s(g1
g29
g10
g4
g5
g6
g14
tp1698
I0
s(g22
g16
g3
g4
g12
g6
g7
tp1699
I0
s(g9
g29
g10
g4
g12
g13
g7
tp1700
I0
s(g22
g2
g10
g4
g25
g6
g7
tp1701
I0
s(g1
g16
g10
g11
g25
g13
g31
tp1702
F0.0006250000000000001
s(g1
g16
g3
g24
g12
g13
g17
tp1703
I0
s(g19
g29
g10
g4
g5
g6
g31
tp1704
F0.007875
s(g19
g16
g10
g11
g5
g6
g26
tp1705
F0.004725
s(g1
g16
g10
g4
g25
g6
g14
tp1706
I0
s(g22
g16
g10
g24
g5
g6
g7
tp1707
I0
s(g1
g29
g3
g11
g5
g6
g7
tp1708
I0
s(g1
g2
g3
g4
g5
g6
g26
tp1709
F0.0945
s(g1
g2
g10
g4
g12
g6
g17
tp1710
F0.020999999999999998
s(g19
g16
g10
g24
g12
g6
g14
tp1711
I0
s(g9
g16
g3
g11
g12
g6
g31
tp1712
F0.0021
s(g19
g16
g10
g24
g12
g6
g26
tp1713
F0.0005669999999999999
s(g1
g16
g3
g11
g25
g13
g17
tp1714
I0
s(g1
g2
g3
g11
g5
g6
g26
tp1715
F0.1575
s(g19
g29
g10
g11
g12
g13
g31
tp1716
F0.000375
s(g1
g29
g3
g24
g5
g13
g26
tp1717
F0.0016875
s(g19
g16
g10
g4
g5
g13
g31
tp1718
F0.0001125
s(g1
g29
g3
g4
g25
g13
g14
tp1719
I0
s(g1
g2
g3
g24
g12
g13
g31
tp1720
F0.00075
s(g19
g29
g3
g24
g5
g13
g31
tp1721
F0.00028125
s(g22
g16
g3
g24
g25
g13
g26
tp1722
F0.0
s(g9
g16
g10
g24
g12
g13
g7
tp1723
I0
s(g9
g2
g10
g4
g12
g13
g14
tp1724
I0
s(g9
g29
g10
g11
g5
g13
g26
tp1725
F0.003375
s(g1
g16
g10
g11
g5
g6
g17
tp1726
F0.008749999999999999
s(g1
g16
g10
g4
g25
g6
g17
tp1727
F0.0052499999999999995
s(g19
g2
g10
g24
g12
g6
g26
tp1728
F0.00567
s(g22
g2
g10
g4
g5
g13
g14
tp1729
I0
s(g9
g16
g3
g11
g12
g6
g14
tp1730
F0.0042
s(g22
g2
g10
g24
g25
g13
g14
tp1731
I0
s(g9
g29
g10
g11
g25
g6
g31
tp1732
F0.02625
s(g9
g16
g10
g11
g5
g6
g17
tp1733
F0.0052499999999999995
s(g22
g29
g10
g4
g25
g13
g26
tp1734
F0.0
s(g19
g29
g10
g4
g12
g13
g31
tp1735
F0.000225
s(g9
g29
g3
g4
g12
g13
g7
tp1736
I0
s(g19
g2
g3
g24
g25
g6
g7
tp1737
I0
s(g19
g16
g10
g4
g5
g13
g26
tp1738
F0.0002025
s(g1
g16
g3
g11
g12
g6
g26
tp1739
F0.006300000000000001
s(g1
g2
g3
g11
g25
g6
g31
tp1740
F0.0875
s(g22
g2
g3
g4
g5
g6
g31
tp1741
F0.0
s(g9
g29
g3
g4
g25
g13
g7
tp1742
I0
s(g1
g29
g10
g24
g5
g6
g31
tp1743
F0.013125
s(g1
g16
g3
g24
g25
g13
g31
tp1744
F0.0001875
s(g9
g16
g10
g4
g12
g6
g17
tp1745
F0.0012599999999999998
s(g1
g16
g10
g4
g12
g6
g17
tp1746
F0.0021
s(g22
g16
g10
g24
g25
g6
g7
tp1747
I0
s(g1
g16
g10
g24
g25
g13
g7
tp1748
I0
s(g22
g29
g10
g4
g5
g6
g26
tp1749
F0.0
s(g1
g16
g3
g24
g5
g13
g7
tp1750
I0
s(g1
g16
g3
g11
g25
g6
g7
tp1751
I0
s(g1
g16
g10
g24
g25
g13
g31
tp1752
F0.0001875
s(g1
g2
g10
g11
g25
g13
g14
tp1753
F0.0125
s(g22
g29
g3
g24
g5
g13
g7
tp1754
I0
s(g9
g29
g3
g24
g25
g13
g31
tp1755
F0.0005625
s(g1
g2
g3
g4
g25
g6
g17
tp1756
I0
s(g19
g2
g3
g24
g12
g6
g26
tp1757
F0.00567
s(g1
g29
g10
g24
g5
g6
g14
tp1758
I0
s(g1
g2
g3
g11
g25
g6
g7
tp1759
I0
s(g9
g16
g10
g11
g5
g13
g14
tp1760
F0.00075
s(g1
g29
g3
g11
g25
g13
g17
tp1761
I0
s(g22
g2
g3
g4
g5
g6
g14
tp1762
I0
s(g19
g29
g10
g11
g25
g6
g14
tp1763
F0.02625
s(g9
g16
g3
g11
g25
g13
g7
tp1764
I0
s(g19
g2
g3
g4
g5
g13
g14
tp1765
I0
s(g9
g29
g3
g4
g5
g6
g14
tp1766
I0
s(g22
g2
g10
g11
g25
g6
g26
tp1767
F0.0
s(g1
g16
g3
g4
g12
g13
g26
tp1768
F0.00027000000000000006
s(g22
g16
g10
g4
g25
g6
g14
tp1769
I0
s(g1
g2
g3
g11
g12
g13
g14
tp1770
F0.005000000000000001
s(g1
g16
g3
g4
g5
g6
g26
tp1771
F0.00945
s(g19
g16
g10
g4
g25
g13
g17
tp1772
F0.0001125
s(g19
g2
g3
g24
g25
g13
g31
tp1773
F0.0005625
s(g19
g29
g3
g24
g5
g13
g7
tp1774
I0
s(g9
g29
g10
g24
g5
g13
g31
tp1775
F0.0005625
s(g22
g29
g3
g4
g12
g13
g7
tp1776
I0
s(g19
g29
g3
g24
g25
g6
g26
tp1777
F0.0070875
s(g22
g16
g3
g11
g25
g13
g17
tp1778
I0
s(g9
g29
g3
g24
g25
g6
g31
tp1779
F0.007875
s(g1
g29
g3
g24
g25
g13
g26
tp1780
F0.0016875
s(g19
g29
g10
g4
g25
g13
g14
tp1781
I0
s(g9
g16
g3
g24
g5
g6
g7
tp1782
I0
s(g22
g2
g10
g4
g5
g6
g31
tp1783
F0.0
s(g1
g29
g3
g4
g25
g13
g31
tp1784
F0.001875
s(g22
g2
g10
g24
g25
g6
g26
tp1785
F0.0
s(g22
g16
g3
g24
g5
g6
g7
tp1786
I0
s(g19
g16
g10
g24
g25
g13
g7
tp1787
I0
s(g22
g16
g10
g24
g25
g6
g14
tp1788
I0
s(g19
g16
g3
g11
g12
g6
g7
tp1789
I0
s(g9
g16
g3
g11
g25
g6
g26
tp1790
F0.00945
s(g1
g2
g10
g24
g12
g13
g31
tp1791
F0.00075
s(g19
g16
g3
g24
g25
g6
g7
tp1792
I0
s(g19
g2
g10
g11
g12
g13
g31
tp1793
F0.00075
s(g22
g2
g10
g24
g25
g13
g7
tp1794
I0
s(g9
g29
g3
g24
g12
g6
g14
tp1795
I0
s(g1
g2
g10
g4
g25
g6
g26
tp1796
F0.0945
s(g1
g16
g10
g11
g25
g13
g7
tp1797
F0.0006250000000000001
s(g9
g29
g10
g4
g12
g6
g26
tp1798
F0.01134
s(g9
g29
g10
g11
g25
g13
g14
tp1799
F0.00375
s(g19
g2
g10
g24
g25
g13
g26
tp1800
F0.0010125
s(g1
g2
g3
g24
g25
g6
g26
tp1801
F0.04725
s(g1
g16
g3
g4
g12
g6
g7
tp1802
I0
s(g1
g29
g3
g4
g5
g6
g17
tp1803
I0
s(g1
g16
g3
g4
g25
g13
g31
tp1804
F0.000375
s(g19
g16
g3
g4
g5
g13
g17
tp1805
I0
s(g9
g2
g10
g24
g5
g6
g17
tp1806
F0.01575
s(g9
g16
g10
g11
g12
g6
g17
tp1807
F0.0021
s(g19
g2
g3
g4
g25
g13
g26
tp1808
F0.002025
s(g19
g2
g10
g11
g12
g6
g14
tp1809
F0.020999999999999998
s(g1
g29
g10
g11
g25
g6
g14
tp1810
F0.0875
s(g1
g2
g10
g11
g12
g6
g7
tp1811
F0.034999999999999996
s(g1
g29
g3
g4
g5
g13
g31
tp1812
F0.001875
s(g22
g2
g3
g11
g5
g6
g26
tp1813
F0.0
s(g9
g2
g10
g24
g12
g13
g31
tp1814
F0.00045
s(g9
g2
g3
g4
g5
g13
g31
tp1815
F0.00225
s(g1
g16
g3
g11
g5
g13
g7
tp1816
I0
s(g1
g2
g10
g11
g25
g6
g14
tp1817
F0.175
s(g19
g29
g3
g4
g5
g6
g26
tp1818
F0.014175
s(g22
g29
g3
g24
g12
g13
g14
tp1819
I0
s(g19
g16
g10
g4
g5
g6
g26
tp1820
F0.002835
s(g22
g16
g3
g24
g12
g13
g31
tp1821
F0.0
s(g9
g16
g3
g24
g25
g13
g31
tp1822
F0.0001125
s(g19
g2
g3
g24
g25
g6
g26
tp1823
F0.014175
s(g19
g29
g3
g11
g5
g13
g14
tp1824
F0.001875
s(g19
g16
g3
g4
g12
g13
g26
tp1825
F8.1e-05
s(g22
g16
g3
g24
g12
g13
g7
tp1826
I0
s(g22
g16
g10
g24
g12
g6
g7
tp1827
I0
s(g22
g16
g10
g24
g12
g6
g26
tp1828
F0.0
s(g22
g2
g3
g11
g12
g13
g26
tp1829
F0.0
s(g9
g29
g3
g24
g25
g6
g14
tp1830
I0
s(g22
g29
g3
g24
g25
g6
g26
tp1831
F0.0
s(g9
g29
g3
g4
g5
g6
g26
tp1832
F0.02835
s(g9
g2
g3
g4
g25
g6
g7
tp1833
I0
s(g9
g16
g3
g24
g5
g13
g14
tp1834
I0
s(g22
g16
g3
g11
g12
g13
g14
tp1835
F0.0
s(g22
g16
g3
g24
g5
g13
g31
tp1836
F0.0
s(g19
g16
g10
g4
g5
g6
g7
tp1837
I0
s(g9
g29
g10
g11
g25
g13
g26
tp1838
F0.003375
s(g19
g29
g10
g24
g25
g6
g26
tp1839
F0.0070875
s(g22
g2
g10
g24
g12
g13
g26
tp1840
F0.0
s(g22
g2
g10
g11
g12
g13
g7
tp1841
F0.0
s(g22
g2
g3
g4
g25
g13
g17
tp1842
I0
s(g22
g2
g3
g24
g5
g13
g14
tp1843
I0
s(g1
g16
g3
g24
g25
g6
g14
tp1844
I0
s(g19
g2
g3
g4
g25
g13
g17
tp1845
I0
s(g22
g2
g10
g24
g12
g6
g17
tp1846
F0.0
s(g19
g29
g10
g11
g25
g6
g31
tp1847
F0.013125
s(g22
g2
g3
g4
g25
g6
g14
tp1848
I0
s(g22
g29
g3
g24
g5
g6
g17
tp1849
I0
s(g1
g2
g3
g11
g12
g6
g26
tp1850
F0.063
s(g1
g2
g10
g24
g5
g13
g7
tp1851
I0
s(g1
g2
g3
g11
g12
g6
g14
tp1852
F0.06999999999999999
s(g19
g2
g10
g24
g5
g13
g31
tp1853
F0.0005625
s(g1
g29
g10
g4
g12
g6
g17
tp1854
F0.010499999999999999
s(g22
g16
g10
g4
g5
g6
g7
tp1855
I0
s(g9
g2
g10
g11
g12
g6
g14
tp1856
F0.041999999999999996
s(g9
g29
g10
g4
g12
g6
g14
tp1857
I0
s(g19
g16
g3
g11
g25
g6
g7
tp1858
I0
s(g22
g2
g10
g4
g25
g6
g26
tp1859
F0.0
s(g1
g29
g3
g24
g12
g13
g14
tp1860
I0
s(g19
g2
g10
g4
g25
g13
g26
tp1861
F0.002025
s(g19
g16
g3
g24
g5
g13
g14
tp1862
I0
s(g19
g2
g3
g11
g5
g13
g17
tp1863
I0
s(g19
g2
g3
g4
g25
g6
g31
tp1864
F0.01575
s(g22
g16
g3
g11
g5
g13
g7
tp1865
I0
s(g19
g16
g3
g4
g25
g13
g7
tp1866
I0
s(g9
g29
g10
g11
g5
g13
g14
tp1867
F0.00375
s(g1
g16
g10
g11
g5
g6
g7
tp1868
F0.008749999999999999
s(g1
g2
g3
g4
g25
g13
g31
tp1869
F0.00375
s(g9
g29
g10
g11
g25
g6
g7
tp1870
F0.02625
s(g1
g29
g10
g24
g12
g6
g31
tp1871
F0.0052499999999999995
s(g22
g2
g3
g4
g25
g6
g17
tp1872
I0
s(g9
g29
g10
g11
g12
g13
g17
tp1873
F0.00075
s(g19
g29
g10
g4
g12
g13
g17
tp1874
F0.000225
s(g19
g29
g3
g11
g5
g6
g26
tp1875
F0.023625
s(g9
g2
g10
g4
g12
g6
g14
tp1876
I0
s(g1
g29
g3
g24
g5
g13
g14
tp1877
I0
s(g9
g29
g10
g4
g25
g13
g14
tp1878
I0
s(g1
g29
g3
g24
g25
g6
g31
tp1879
F0.013125
s(g9
g2
g10
g4
g12
g6
g26
tp1880
F0.02268
s(g9
g2
g3
g24
g25
g13
g7
tp1881
I0
s(g19
g16
g10
g4
g12
g6
g7
tp1882
I0
s(g19
g16
g10
g11
g25
g6
g7
tp1883
F0.0026249999999999997
s(g9
g29
g3
g24
g25
g6
g17
tp1884
I0
s(g9
g2
g3
g11
g5
g6
g14
tp1885
F0.105
s(g9
g2
g3
g24
g12
g6
g7
tp1886
I0
s(g19
g16
g3
g24
g25
g13
g14
tp1887
I0
s(g22
g29
g10
g24
g12
g6
g17
tp1888
F0.0
s(g9
g2
g3
g4
g25
g13
g26
tp1889
F0.00405
s(g9
g16
g10
g11
g5
g13
g26
tp1890
F0.000675
s(g9
g16
g3
g4
g5
g6
g14
tp1891
I0
s(g1
g16
g10
g24
g12
g13
g7
tp1892
I0
s(g19
g29
g10
g4
g5
g6
g7
tp1893
I0
s(g22
g29
g3
g4
g5
g13
g14
tp1894
I0
s(g22
g2
g3
g24
g5
g6
g31
tp1895
F0.0
s(g9
g16
g10
g4
g25
g13
g26
tp1896
F0.000405
s(g19
g29
g10
g11
g5
g13
g26
tp1897
F0.0016875
s(g22
g29
g10
g4
g12
g6
g26
tp1898
F0.0
s(g9
g2
g10
g24
g12
g6
g14
tp1899
I0
s(g9
g2
g3
g4
g25
g13
g17
tp1900
I0
s(g9
g16
g3
g11
g12
g13
g31
tp1901
F0.00015000000000000001
s(g19
g29
g3
g4
g25
g13
g14
tp1902
I0
s(g22
g16
g3
g11
g12
g6
g31
tp1903
F0.0
s(g9
g16
g10
g24
g25
g6
g7
tp1904
I0
s(g22
g16
g10
g24
g25
g6
g26
tp1905
F0.0
s(g22
g16
g10
g24
g5
g13
g26
tp1906
F0.0
s(g22
g29
g10
g24
g12
g6
g26
tp1907
F0.0
s(g1
g2
g3
g24
g5
g13
g26
tp1908
F0.003375
s(g22
g2
g10
g24
g25
g6
g14
tp1909
I0
s(g22
g2
g10
g11
g12
g13
g26
tp1910
F0.0
s(g19
g16
g3
g11
g12
g6
g31
tp1911
F0.00105
s(g19
g29
g10
g4
g25
g13
g26
tp1912
F0.0010125
s(g22
g16
g10
g11
g25
g13
g7
tp1913
F0.0
s(g22
g29
g3
g4
g12
g6
g31
tp1914
F0.0
s(g19
g2
g10
g11
g12
g13
g17
tp1915
F0.00075
s(g19
g29
g10
g4
g25
g6
g31
tp1916
F0.007875
s(g22
g29
g10
g24
g25
g13
g14
tp1917
I0
s(g1
g2
g3
g11
g5
g6
g14
tp1918
F0.175
s(g19
g29
g10
g4
g5
g13
g17
tp1919
F0.0005625
s(g9
g2
g3
g4
g12
g6
g26
tp1920
F0.02268
s(g19
g16
g10
g4
g12
g6
g31
tp1921
F0.0006299999999999999
s(g9
g2
g3
g4
g12
g13
g26
tp1922
F0.00162
s(g1
g16
g10
g4
g5
g6
g17
tp1923
F0.0052499999999999995
s(g19
g16
g10
g24
g25
g6
g14
tp1924
I0
s(g22
g2
g10
g24
g12
g6
g31
tp1925
F0.0
s(g9
g2
g10
g24
g25
g13
g31
tp1926
F0.001125
s(g9
g16
g10
g11
g5
g6
g31
tp1927
F0.0052499999999999995
s(g1
g29
g3
g24
g12
g6
g14
tp1928
I0
s(g22
g2
g3
g4
g12
g6
g14
tp1929
I0
s(g1
g2
g3
g4
g12
g6
g31
tp1930
F0.020999999999999998
s(g22
g16
g10
g11
g5
g6
g14
tp1931
F0.0
s(g19
g29
g3
g11
g12
g13
g14
tp1932
F0.00075
s(g22
g2
g3
g11
g25
g13
g26
tp1933
F0.0
s(g22
g16
g3
g4
g25
g6
g26
tp1934
F0.0
s(g9
g29
g3
g4
g12
g6
g31
tp1935
F0.006299999999999999
s(g1
g2
g10
g11
g25
g13
g26
tp1936
F0.011250000000000001
s(g19
g2
g10
g11
g5
g13
g17
tp1937
F0.001875
s(g19
g16
g3
g24
g5
g6
g14
tp1938
I0
s(g19
g29
g3
g11
g5
g6
g17
tp1939
I0
s(g9
g16
g3
g4
g12
g6
g17
tp1940
I0
s(g22
g16
g10
g11
g5
g6
g17
tp1941
F0.0
s(g19
g16
g10
g4
g12
g13
g17
tp1942
F4.5e-05
s(g22
g2
g10
g4
g12
g6
g17
tp1943
F0.0
s(g19
g29
g3
g11
g25
g13
g31
tp1944
F0.0009375
s(g19
g29
g3
g24
g12
g13
g7
tp1945
I0
s(g19
g29
g3
g4
g25
g6
g14
tp1946
I0
s(g1
g2
g10
g11
g25
g6
g31
tp1947
F0.0875
s(g9
g2
g3
g24
g25
g6
g26
tp1948
F0.02835
s(g19
g2
g10
g4
g25
g6
g26
tp1949
F0.02835
s(g19
g16
g3
g11
g5
g6
g26
tp1950
F0.004725
s(g22
g16
g10
g4
g5
g13
g17
tp1951
F0.0
s(g22
g2
g10
g11
g12
g13
g17
tp1952
F0.0
s(g22
g2
g10
g24
g5
g6
g17
tp1953
F0.0
s(g22
g16
g3
g11
g25
g13
g14
tp1954
F0.0
s(g9
g2
g3
g4
g5
g13
g14
tp1955
I0
s(g19
g16
g3
g24
g12
g13
g17
tp1956
I0
s(g22
g16
g3
g11
g12
g6
g14
tp1957
F0.0
s(g22
g29
g10
g4
g5
g13
g26
tp1958
F0.0
s(g19
g16
g10
g24
g5
g13
g26
tp1959
F0.00010125
s(g22
g29
g3
g4
g25
g6
g26
tp1960
F0.0
s(g9
g16
g10
g24
g25
g13
g14
tp1961
I0
s(g9
g29
g3
g24
g25
g13
g14
tp1962
I0
s(g22
g16
g3
g24
g5
g13
g7
tp1963
I0
s(g19
g29
g3
g24
g5
g6
g17
tp1964
I0
s(g22
g16
g3
g4
g5
g13
g7
tp1965
I0
s(g19
g29
g3
g4
g12
g6
g31
tp1966
F0.0031499999999999996
s(g19
g16
g3
g24
g12
g13
g7
tp1967
I0
s(g22
g16
g10
g24
g12
g6
g17
tp1968
F0.0
s(g9
g2
g10
g11
g12
g6
g31
tp1969
F0.020999999999999998
s(g19
g29
g3
g4
g12
g13
g26
tp1970
F0.000405
s(g22
g2
g3
g24
g12
g13
g7
tp1971
I0
s(g19
g16
g10
g4
g12
g13
g26
tp1972
F8.1e-05
s(g1
g2
g10
g4
g25
g13
g31
tp1973
F0.00375
s(g1
g29
g3
g24
g5
g6
g7
tp1974
I0
s(g22
g2
g3
g24
g12
g6
g26
tp1975
F0.0
s(g19
g16
g10
g4
g25
g6
g17
tp1976
F0.0015749999999999998
s(g1
g16
g10
g4
g12
g6
g31
tp1977
F0.0021
s(g1
g16
g10
g24
g12
g6
g31
tp1978
F0.00105
s(g22
g16
g10
g4
g25
g13
g7
tp1979
I0
s(g22
g2
g3
g4
g5
g13
g17
tp1980
I0
s(g19
g2
g10
g11
g12
g6
g17
tp1981
F0.010499999999999999
s(g9
g16
g3
g11
g5
g13
g26
tp1982
F0.000675
s(g9
g16
g3
g4
g5
g6
g17
tp1983
I0
s(g19
g16
g10
g11
g12
g13
g17
tp1984
F7.500000000000001e-05
s(g1
g2
g10
g11
g12
g6
g17
tp1985
F0.034999999999999996
s(g1
g16
g10
g4
g12
g13
g17
tp1986
F0.00015000000000000001
s(g19
g2
g10
g11
g5
g6
g7
tp1987
F0.02625
s(g1
g29
g3
g11
g5
g6
g31
tp1988
F0.04375
s(g22
g2
g3
g4
g12
g13
g7
tp1989
I0
s(g19
g29
g10
g4
g12
g6
g31
tp1990
F0.0031499999999999996
s(g19
g16
g3
g4
g25
g13
g26
tp1991
F0.0002025
s(g22
g16
g3
g11
g5
g13
g26
tp1992
F0.0
s(g9
g29
g3
g4
g12
g13
g17
tp1993
I0
s(g1
g2
g3
g4
g25
g13
g17
tp1994
I0
s(g9
g29
g10
g4
g12
g13
g31
tp1995
F0.00045
s(g9
g29
g10
g11
g5
g6
g26
tp1996
F0.04725
s(g1
g16
g3
g11
g5
g6
g26
tp1997
F0.01575
s(g1
g2
g10
g11
g12
g6
g31
tp1998
F0.034999999999999996
s(g19
g2
g10
g4
g25
g13
g17
tp1999
F0.001125
s(g22
g2
g10
g24
g5
g13
g17
tp2000
F0.0
s(g9
g16
g10
g24
g5
g13
g26
tp2001
F0.0002025
s(g1
g16
g3
g11
g12
g13
g14
tp2002
F0.0005000000000000001
s(g1
g29
g10
g4
g5
g6
g26
tp2003
F0.04725
s(g9
g2
g3
g11
g25
g13
g26
tp2004
F0.00675
s(g1
g2
g3
g24
g5
g6
g26
tp2005
F0.04725
s(g22
g16
g3
g4
g12
g13
g17
tp2006
I0
s(g9
g29
g3
g4
g25
g6
g26
tp2007
F0.02835
s(g22
g16
g3
g4
g5
g6
g17
tp2008
I0
s(g1
g2
g3
g4
g12
g13
g31
tp2009
F0.0015
s(g1
g16
g10
g4
g5
g13
g31
tp2010
F0.000375
s(g9
g29
g3
g11
g5
g6
g26
tp2011
F0.04725
s(g9
g29
g10
g24
g12
g13
g7
tp2012
I0
s(g22
g2
g10
g4
g5
g13
g26
tp2013
F0.0
s(g1
g16
g3
g24
g5
g6
g26
tp2014
F0.004725
s(g19
g2
g10
g11
g12
g13
g7
tp2015
F0.00075
s(g9
g16
g10
g24
g25
g13
g31
tp2016
F0.0001125
s(g9
g2
g3
g24
g12
g6
g26
tp2017
F0.01134
s(g19
g2
g3
g11
g25
g13
g14
tp2018
F0.00375
s(g19
g29
g10
g11
g25
g6
g17
tp2019
F0.013125
s(g19
g16
g3
g4
g5
g6
g26
tp2020
F0.002835
s(g9
g16
g3
g24
g5
g13
g17
tp2021
I0
s(g9
g29
g3
g4
g12
g13
g26
tp2022
F0.00081
s(g1
g16
g3
g11
g25
g13
g31
tp2023
F0.0006250000000000001
s(g1
g29
g3
g11
g25
g6
g7
tp2024
I0
s(g22
g16
g10
g4
g25
g13
g17
tp2025
F0.0
s(g1
g29
g3
g4
g5
g13
g14
tp2026
I0
s(g1
g2
g3
g4
g12
g13
g14
tp2027
I0
s(g1
g29
g10
g11
g25
g6
g31
tp2028
F0.04375
s(g19
g16
g10
g11
g5
g6
g17
tp2029
F0.0026249999999999997
s(g19
g16
g10
g4
g25
g6
g26
tp2030
F0.002835
s(g19
g16
g3
g4
g25
g6
g26
tp2031
F0.002835
s(g22
g16
g10
g24
g25
g13
g17
tp2032
F0.0
s(g9
g16
g3
g24
g5
g6
g31
tp2033
F0.0015749999999999998
s(g22
g2
g3
g11
g5
g13
g7
tp2034
I0
s(g1
g16
g10
g24
g25
g6
g17
tp2035
F0.0026249999999999997
s(g19
g29
g10
g24
g5
g6
g26
tp2036
F0.0070875
s(g19
g2
g3
g11
g12
g13
g31
tp2037
F0.00075
s(g1
g29
g10
g11
g5
g6
g14
tp2038
F0.0875
s(g1
g29
g3
g4
g12
g13
g14
tp2039
I0
s(g22
g2
g10
g24
g25
g6
g17
tp2040
F0.0
s(g22
g16
g10
g11
g5
g13
g26
tp2041
F0.0
s(g22
g29
g3
g11
g5
g13
g7
tp2042
I0
s(g9
g2
g3
g4
g5
g13
g17
tp2043
I0
s(g9
g29
g3
g24
g12
g6
g17
tp2044
I0
s(g19
g29
g10
g24
g5
g13
g7
tp2045
I0
s(g22
g16
g3
g4
g5
g6
g26
tp2046
F0.0
s(g22
g16
g3
g4
g5
g6
g7
tp2047
I0
s(g19
g29
g10
g24
g25
g13
g26
tp2048
F0.00050625
s(g9
g16
g3
g24
g25
g13
g26
tp2049
F0.0002025
s(g1
g2
g3
g4
g25
g6
g31
tp2050
F0.0525
s(g1
g2
g3
g11
g12
g13
g31
tp2051
F0.0025000000000000005
s(g22
g2
g10
g24
g5
g13
g31
tp2052
F0.0
s(g22
g2
g10
g11
g5
g13
g26
tp2053
F0.0
s(g1
g16
g3
g24
g25
g13
g7
tp2054
I0
s(g9
g2
g3
g11
g12
g6
g14
tp2055
F0.041999999999999996
s(g9
g29
g10
g11
g12
g6
g17
tp2056
F0.010499999999999999
s(g19
g2
g10
g24
g12
g6
g17
tp2057
F0.0031499999999999996
s(g19
g29
g3
g24
g12
g6
g7
tp2058
I0
s(g19
g16
g10
g24
g12
g6
g17
tp2059
F0.00031499999999999996
s(g19
g29
g3
g4
g25
g13
g31
tp2060
F0.0005625
s(g1
g16
g3
g24
g12
g13
g7
tp2061
I0
s(g1
g2
g10
g4
g25
g6
g7
tp2062
I0
s(g9
g29
g10
g11
g12
g6
g7
tp2063
F0.010499999999999999
s(g22
g16
g10
g11
g5
g13
g17
tp2064
F0.0
s(g9
g16
g10
g4
g25
g6
g26
tp2065
F0.00567
s(g9
g29
g3
g11
g25
g13
g31
tp2066
F0.001875
s(g9
g16
g10
g24
g5
g6
g14
tp2067
I0
s(g1
g2
g10
g24
g25
g6
g17
tp2068
F0.02625
s(g9
g2
g10
g24
g5
g6
g31
tp2069
F0.01575
s(g1
g16
g10
g4
g25
g13
g26
tp2070
F0.000675
s(g1
g2
g10
g24
g5
g13
g17
tp2071
F0.001875
s(g19
g16
g10
g11
g5
g13
g7
tp2072
F0.0001875
s(g9
g29
g3
g11
g12
g6
g17
tp2073
I0
s(g19
g16
g3
g11
g5
g13
g26
tp2074
F0.0003375
s(g9
g16
g3
g4
g25
g6
g26
tp2075
F0.00567
s(g19
g29
g3
g24
g5
g6
g31
tp2076
F0.0039375
s(g19
g29
g3
g24
g25
g13
g17
tp2077
I0
s(g1
g16
g3
g11
g12
g13
g31
tp2078
F0.00025000000000000006
s(g9
g2
g3
g11
g5
g13
g7
tp2079
I0
s(g22
g29
g10
g24
g5
g6
g7
tp2080
I0
s(g22
g16
g10
g4
g25
g6
g17
tp2081
F0.0
s(g1
g29
g10
g4
g12
g6
g31
tp2082
F0.010499999999999999
s(g19
g2
g3
g24
g5
g13
g31
tp2083
F0.0005625
s(g9
g16
g3
g24
g12
g6
g14
tp2084
I0
s(g19
g29
g3
g4
g25
g13
g26
tp2085
F0.0010125
s(g9
g29
g10
g4
g5
g6
g7
tp2086
I0
s(g22
g16
g3
g24
g12
g13
g17
tp2087
I0
s(g22
g29
g10
g11
g5
g13
g14
tp2088
F0.0
s(g22
g2
g10
g24
g25
g13
g31
tp2089
F0.0
s(g22
g2
g10
g11
g25
g6
g17
tp2090
F0.0
s(g1
g2
g3
g4
g12
g6
g26
tp2091
F0.0378
s(g22
g16
g10
g11
g5
g6
g31
tp2092
F0.0
s(g9
g16
g10
g24
g25
g13
g26
tp2093
F0.0002025
s(g1
g29
g3
g4
g12
g13
g31
tp2094
F0.00075
s(g1
g29
g3
g4
g12
g6
g7
tp2095
I0
s(g9
g2
g3
g11
g12
g13
g14
tp2096
F0.003
s(g9
g29
g3
g4
g5
g13
g26
tp2097
F0.002025
s(g9
g2
g10
g4
g25
g6
g26
tp2098
F0.0567
s(g1
g16
g10
g11
g12
g13
g31
tp2099
F0.00025000000000000006
s(g22
g29
g3
g11
g12
g13
g31
tp2100
F0.0
s(g22
g2
g10
g11
g12
g6
g31
tp2101
F0.0
s(g22
g2
g10
g4
g12
g6
g26
tp2102
F0.0
s(g22
g2
g10
g4
g12
g6
g7
tp2103
I0
s(g19
g29
g3
g4
g12
g6
g17
tp2104
I0
s(g1
g29
g10
g4
g12
g13
g7
tp2105
I0
s(g9
g2
g10
g11
g5
g6
g7
tp2106
F0.0525
s(g1
g16
g3
g24
g5
g13
g31
tp2107
F0.0001875
s(g1
g29
g3
g11
g12
g6
g26
tp2108
F0.0315
s(g22
g16
g3
g4
g12
g13
g31
tp2109
F0.0
s(g1
g29
g3
g11
g5
g13
g14
tp2110
F0.00625
s(g9
g16
g3
g24
g25
g6
g14
tp2111
I0
s(g9
g2
g10
g4
g12
g13
g7
tp2112
I0
s(g9
g2
g3
g11
g25
g6
g26
tp2113
F0.0945
s(g1
g16
g10
g4
g5
g13
g17
tp2114
F0.000375
s(g19
g16
g3
g24
g12
g6
g26
tp2115
F0.0005669999999999999
s(g9
g2
g10
g4
g12
g13
g17
tp2116
F0.0009
s(g22
g16
g3
g24
g5
g6
g26
tp2117
F0.0
s(g19
g2
g3
g11
g12
g13
g7
tp2118
I0
s(g22
g29
g3
g11
g5
g6
g7
tp2119
I0
s(g9
g16
g3
g4
g12
g6
g31
tp2120
F0.0012599999999999998
s(g9
g2
g3
g24
g5
g13
g26
tp2121
F0.002025
s(g19
g29
g10
g24
g12
g13
g14
tp2122
I0
s(g19
g2
g10
g11
g5
g13
g14
tp2123
F0.00375
s(g22
g2
g3
g24
g25
g13
g14
tp2124
I0
s(g1
g2
g10
g24
g25
g13
g31
tp2125
F0.001875
s(g9
g2
g10
g24
g25
g13
g17
tp2126
F0.001125
s(g22
g2
g3
g24
g25
g13
g26
tp2127
F0.0
s(g19
g2
g10
g11
g5
g6
g17
tp2128
F0.02625
s(g1
g16
g3
g11
g25
g13
g7
tp2129
I0
s(g1
g2
g10
g4
g12
g13
g17
tp2130
F0.0015
s(g22
g2
g10
g11
g5
g13
g7
tp2131
F0.0
s(g22
g29
g10
g11
g12
g6
g7
tp2132
F0.0
s(g22
g16
g3
g11
g5
g13
g17
tp2133
I0
s(g1
g2
g3
g4
g5
g6
g17
tp2134
I0
s(g19
g2
g10
g4
g12
g6
g31
tp2135
F0.006299999999999999
s(g19
g2
g3
g11
g5
g13
g7
tp2136
I0
s(g1
g16
g10
g11
g25
g6
g7
tp2137
F0.008749999999999999
s(g1
g2
g3
g11
g25
g13
g7
tp2138
I0
s(g19
g2
g10
g24
g12
g13
g14
tp2139
I0
s(g9
g29
g3
g11
g5
g6
g14
tp2140
F0.0525
s(g22
g16
g10
g24
g5
g6
g31
tp2141
F0.0
s(g19
g29
g10
g4
g12
g6
g26
tp2142
F0.00567
s(g9
g2
g3
g4
g5
g6
g26
tp2143
F0.0567
s(g1
g16
g10
g4
g5
g6
g14
tp2144
I0
s(g19
g2
g3
g4
g12
g6
g14
tp2145
I0
s(g22
g29
g3
g11
g12
g13
g14
tp2146
F0.0
s(g9
g29
g3
g4
g25
g6
g14
tp2147
I0
s(g9
g29
g10
g11
g12
g13
g14
tp2148
F0.0015
s(g1
g16
g3
g4
g5
g6
g17
tp2149
I0
s(g22
g29
g3
g24
g25
g6
g17
tp2150
I0
s(g9
g29
g3
g24
g12
g13
g7
tp2151
I0
s(g1
g29
g10
g11
g12
g6
g26
tp2152
F0.0315
s(g9
g29
g10
g24
g25
g6
g7
tp2153
I0
s(g22
g16
g3
g4
g25
g13
g26
tp2154
F0.0
s(g19
g16
g3
g4
g12
g13
g7
tp2155
I0
s(g19
g2
g10
g11
g25
g6
g14
tp2156
F0.0525
s(g22
g29
g3
g24
g5
g6
g14
tp2157
I0
s(g19
g2
g3
g24
g12
g13
g17
tp2158
I0
s(g19
g29
g10
g24
g5
g6
g7
tp2159
I0
s(g22
g29
g3
g24
g12
g13
g31
tp2160
F0.0
s(g19
g2
g10
g24
g25
g13
g31
tp2161
F0.0005625
s(g1
g29
g10
g4
g25
g6
g31
tp2162
F0.02625
s(g22
g2
g10
g4
g12
g13
g31
tp2163
F0.0
s(g22
g2
g10
g4
g25
g13
g7
tp2164
I0
s(g9
g29
g3
g24
g5
g6
g14
tp2165
I0
s(g22
g16
g10
g4
g25
g13
g31
tp2166
F0.0
s(g22
g29
g3
g24
g25
g6
g7
tp2167
I0
s(g1
g29
g10
g4
g25
g13
g17
tp2168
F0.001875
s(g9
g29
g10
g4
g25
g6
g26
tp2169
F0.02835
s(g9
g2
g10
g4
g25
g13
g17
tp2170
F0.00225
s(g1
g29
g3
g11
g25
g13
g7
tp2171
I0
s(g19
g29
g3
g11
g25
g13
g14
tp2172
F0.001875
s(g9
g16
g3
g11
g5
g13
g14
tp2173
F0.00075
s(g1
g29
g3
g24
g5
g6
g31
tp2174
F0.013125
s(g9
g16
g3
g24
g25
g13
g14
tp2175
I0
s(g1
g2
g10
g4
g25
g13
g7
tp2176
I0
s(g22
g16
g3
g11
g25
g6
g17
tp2177
I0
s(g1
g16
g3
g4
g12
g13
g7
tp2178
I0
s(g9
g2
g3
g11
g12
g6
g17
tp2179
I0
s(g22
g2
g3
g24
g5
g6
g14
tp2180
I0
s(g22
g29
g3
g4
g5
g13
g17
tp2181
I0
s(g9
g2
g3
g4
g12
g13
g14
tp2182
I0
s.