(dp0
S'beaver energy high,marsh energy low,no lumber,at tree,see marsh,see wolf,pick up lumber'
p1
I0
sS'beaver energy low,marsh energy high,has lumber,none tree,at marsh,none wolf,move towards marsh'
p2
I0
sS'beaver energy low,marsh energy high,has lumber,none tree,see marsh,none wolf,pick up lumber'
p3
I0
sS'beaver energy zero,marsh energy high,has lumber,see tree,none marsh,none wolf,move towards marsh'
p4
I0
sS'beaver energy zero,marsh energy high,has lumber,none tree,see marsh,none wolf,eat'
p5
I0
sS'beaver energy med,marsh energy high,has lumber,none tree,at marsh,none wolf,pick up lumber'
p6
I0
sS'beaver energy med,marsh energy low,has lumber,none tree,see marsh,none wolf,move towards tree'
p7
I0
sS'beaver energy med,marsh energy high,no lumber,at tree,see marsh,see wolf,move towards marsh'
p8
F0.00375
sS'beaver energy med,marsh energy low,no lumber,none tree,see marsh,see wolf,move towards tree'
p9
I0
sS'beaver energy high,marsh energy low,has lumber,at tree,none marsh,see wolf,move towards marsh'
p10
I0
sS'beaver energy low,marsh energy med,has lumber,at tree,see marsh,none wolf,move towards marsh'
p11
F0.013125
sS'beaver energy zero,marsh energy high,has lumber,at tree,see marsh,none wolf,move towards marsh'
p12
F0.0
sS'beaver energy low,marsh energy med,has lumber,see tree,none marsh,none wolf,move towards marsh'
p13
I0
sS'beaver energy high,marsh energy med,no lumber,none tree,see marsh,see wolf,drop lumber'
p14
I0
sS'beaver energy low,marsh energy med,has lumber,see tree,see marsh,none wolf,pick up lumber'
p15
I0
sS'beaver energy zero,marsh energy high,has lumber,see tree,see marsh,none wolf,pick up lumber'
p16
I0
sS'beaver energy zero,marsh energy high,no lumber,see tree,see marsh,none wolf,move towards tree'
p17
F0.0
sS'beaver energy low,marsh energy med,no lumber,see tree,see marsh,none wolf,move towards tree'
p18
F0.014175
sS'beaver energy low,marsh energy high,has lumber,see tree,see marsh,none wolf,move towards marsh'
p19
F0.01575
sS'beaver energy low,marsh energy low,has lumber,see tree,none marsh,see wolf,drop lumber'
p20
F4.5e-05
sS'beaver energy low,marsh energy low,no lumber,none tree,see marsh,see wolf,move towards tree'
p21
I0
sS'beaver energy med,marsh energy low,no lumber,see tree,none marsh,see wolf,drop lumber'
p22
I0
sS'beaver energy high,marsh energy low,no lumber,none tree,see marsh,see wolf,eat'
p23
I0
sS'beaver energy med,marsh energy high,no lumber,none tree,see marsh,see wolf,move towards marsh'
p24
F0.001125
sS'beaver energy high,marsh energy high,no lumber,none tree,none marsh,none wolf,move towards marsh'
p25
I0
sS'beaver energy high,marsh energy med,no lumber,none tree,at marsh,none wolf,drop lumber'
p26
I0
sS'beaver energy zero,marsh energy low,has lumber,at tree,see marsh,none wolf,pick up lumber'
p27
F0.0
sS'beaver energy med,marsh energy low,has lumber,none tree,at marsh,see wolf,eat'
p28
I0
sS'beaver energy high,marsh energy high,has lumber,at tree,none marsh,see wolf,move towards marsh'
p29
I0
sS'beaver energy high,marsh energy high,has lumber,see tree,at marsh,none wolf,eat'
p30
I0
sS'beaver energy low,marsh energy high,has lumber,at tree,none marsh,none wolf,pick up lumber'
p31
F0.010499999999999999
sS'beaver energy med,marsh energy low,has lumber,none tree,none marsh,see wolf,drop lumber'
p32
F4.5e-05
sS'beaver energy zero,marsh energy low,has lumber,see tree,none marsh,none wolf,move towards marsh'
p33
I0
sS'beaver energy high,marsh energy high,no lumber,none tree,none marsh,none wolf,move towards tree'
p34
I0
sS'beaver energy med,marsh energy med,no lumber,at tree,see marsh,see wolf,move towards tree'
p35
I0
sS'beaver energy zero,marsh energy low,has lumber,none tree,at marsh,none wolf,move towards marsh'
p36
I0
sS'beaver energy high,marsh energy low,no lumber,at tree,none marsh,see wolf,eat'
p37
F0.0005000000000000001
sS'beaver energy low,marsh energy low,no lumber,at tree,see marsh,see wolf,drop lumber'
p38
I0
sS'beaver energy zero,marsh energy high,no lumber,see tree,see marsh,see wolf,pick up lumber'
p39
I0
sS'beaver energy low,marsh energy med,no lumber,see tree,see marsh,see wolf,pick up lumber'
p40
I0
sS'beaver energy high,marsh energy low,no lumber,none tree,none marsh,see wolf,pick up lumber'
p41
I0
sS'beaver energy zero,marsh energy high,no lumber,see tree,at marsh,see wolf,eat'
p42
I0
sS'beaver energy low,marsh energy med,no lumber,see tree,at marsh,see wolf,eat'
p43
I0
sS'beaver energy med,marsh energy low,no lumber,at tree,see marsh,see wolf,pick up lumber'
p44
I0
sS'beaver energy med,marsh energy low,has lumber,none tree,see marsh,none wolf,drop lumber'
p45
F0.0015749999999999998
sS'beaver energy med,marsh energy high,no lumber,at tree,none marsh,none wolf,move towards marsh'
p46
I0
sS'beaver energy high,marsh energy med,has lumber,see tree,none marsh,none wolf,eat'
p47
I0
sS'beaver energy med,marsh energy med,has lumber,see tree,none marsh,none wolf,drop lumber'
p48
F0.006299999999999999
sS'beaver energy low,marsh energy low,no lumber,see tree,none marsh,none wolf,eat'
p49
I0
sS'beaver energy med,marsh energy low,has lumber,at tree,none marsh,see wolf,drop lumber'
p50
F0.00015000000000000001
sS'beaver energy med,marsh energy high,no lumber,none tree,none marsh,none wolf,move towards tree'
p51
I0
sS'beaver energy zero,marsh energy low,has lumber,see tree,see marsh,none wolf,move towards tree'
p52
F0.0
sS'beaver energy high,marsh energy med,has lumber,at tree,see marsh,none wolf,move towards marsh'
p53
F0.04375
sS'beaver energy low,marsh energy low,no lumber,see tree,see marsh,see wolf,move towards tree'
p54
F0.0002025
sS'beaver energy high,marsh energy low,no lumber,none tree,see marsh,none wolf,drop lumber'
p55
I0
sS'beaver energy zero,marsh energy high,has lumber,see tree,see marsh,none wolf,move towards marsh'
p56
F0.0
sS'beaver energy zero,marsh energy high,no lumber,at tree,see marsh,none wolf,eat'
p57
F0.0
sS'beaver energy low,marsh energy med,no lumber,at tree,see marsh,none wolf,eat'
p58
F0.02625
sS'beaver energy med,marsh energy high,no lumber,none tree,see marsh,see wolf,pick up lumber'
p59
I0
sS'beaver energy low,marsh energy high,no lumber,see tree,see marsh,none wolf,drop lumber'
p60
I0
sS'beaver energy zero,marsh energy low,has lumber,at tree,see marsh,none wolf,move towards marsh'
p61
F0.0
sS'beaver energy med,marsh energy high,has lumber,see tree,none marsh,see wolf,drop lumber'
p62
F0.0009
sS'beaver energy low,marsh energy low,has lumber,at tree,none marsh,see wolf,move towards tree'
p63
I0
sS'beaver energy high,marsh energy med,no lumber,at tree,none marsh,none wolf,move towards tree'
p64
I0
sS'beaver energy low,marsh energy high,no lumber,see tree,see marsh,see wolf,move towards marsh'
p65
F0.001125
sS'beaver energy med,marsh energy low,has lumber,at tree,none marsh,see wolf,pick up lumber'
p66
F0.00015000000000000001
sS'beaver energy zero,marsh energy med,no lumber,see tree,none marsh,none wolf,pick up lumber'
p67
I0
sS'beaver energy med,marsh energy high,has lumber,see tree,at marsh,none wolf,drop lumber'
p68
F0.0315
sS'beaver energy med,marsh energy high,has lumber,at tree,see marsh,see wolf,move towards marsh'
p69
F0.00375
sS'beaver energy med,marsh energy low,has lumber,none tree,none marsh,none wolf,move towards tree'
p70
I0
sS'beaver energy low,marsh energy high,no lumber,none tree,see marsh,see wolf,move towards marsh'
p71
F0.0005625
sS'beaver energy zero,marsh energy low,has lumber,see tree,at marsh,none wolf,drop lumber'
p72
F0.0
sS'beaver energy high,marsh energy high,no lumber,see tree,none marsh,see wolf,move towards tree'
p73
F0.0027
sS'beaver energy zero,marsh energy med,no lumber,see tree,at marsh,see wolf,pick up lumber'
p74
I0
sS'beaver energy low,marsh energy high,has lumber,none tree,at marsh,none wolf,drop lumber'
p75
F0.007875
sS'beaver energy zero,marsh energy med,no lumber,see tree,see marsh,see wolf,move towards tree'
p76
F0.0
sS'beaver energy high,marsh energy med,has lumber,none tree,at marsh,see wolf,move towards tree'
p77
I0
sS'beaver energy low,marsh energy high,no lumber,at tree,see marsh,see wolf,pick up lumber'
p78
I0
sS'beaver energy high,marsh energy med,no lumber,at tree,see marsh,see wolf,pick up lumber'
p79
I0
sS'beaver energy low,marsh energy low,no lumber,at tree,see marsh,none wolf,eat'
p80
F0.0052499999999999995
sS'beaver energy med,marsh energy low,no lumber,see tree,none marsh,none wolf,move towards marsh'
p81
I0
sS'beaver energy med,marsh energy low,no lumber,at tree,none marsh,none wolf,eat'
p82
F0.0042
sS'beaver energy high,marsh energy low,has lumber,none tree,at marsh,see wolf,drop lumber'
p83
F0.0001875
sS'beaver energy med,marsh energy high,has lumber,none tree,at marsh,see wolf,eat'
p84
I0
sS'beaver energy low,marsh energy low,has lumber,see tree,see marsh,see wolf,pick up lumber'
p85
I0
sS'beaver energy med,marsh energy med,has lumber,see tree,none marsh,see wolf,move towards tree'
p86
F0.00081
sS'beaver energy low,marsh energy low,no lumber,see tree,see marsh,none wolf,pick up lumber'
p87
I0
sS'beaver energy med,marsh energy high,has lumber,see tree,none marsh,see wolf,move towards marsh'
p88
I0
sS'beaver energy high,marsh energy med,has lumber,none tree,at marsh,see wolf,drop lumber'
p89
F0.0009375
sS'beaver energy high,marsh energy low,no lumber,at tree,see marsh,none wolf,eat'
p90
F0.017499999999999998
sS'beaver energy zero,marsh energy low,has lumber,at tree,none marsh,see wolf,drop lumber'
p91
F0.0
sS'beaver energy high,marsh energy high,no lumber,at tree,see marsh,none wolf,drop lumber'
p92
I0
sS'beaver energy zero,marsh energy med,has lumber,none tree,none marsh,none wolf,move towards marsh'
p93
I0
sS'beaver energy high,marsh energy med,no lumber,see tree,at marsh,see wolf,move towards tree'
p94
F0.003375
sS'beaver energy low,marsh energy med,no lumber,see tree,see marsh,see wolf,drop lumber'
p95
I0
sS'beaver energy zero,marsh energy high,no lumber,see tree,see marsh,see wolf,drop lumber'
p96
I0
sS'beaver energy low,marsh energy low,has lumber,at tree,none marsh,see wolf,move towards marsh'
p97
I0
sS'beaver energy med,marsh energy med,no lumber,none tree,see marsh,none wolf,eat'
p98
I0
sS'beaver energy med,marsh energy high,has lumber,at tree,see marsh,see wolf,eat'
p99
F0.0075
sS'beaver energy high,marsh energy low,has lumber,none tree,at marsh,none wolf,move towards marsh'
p100
I0
sS'beaver energy med,marsh energy med,has lumber,see tree,see marsh,see wolf,drop lumber'
p101
F0.001125
sS'beaver energy med,marsh energy low,no lumber,none tree,at marsh,none wolf,pick up lumber'
p102
I0
sS'beaver energy low,marsh energy med,has lumber,see tree,see marsh,none wolf,move towards tree'
p103
F0.014175
sS'beaver energy low,marsh energy med,has lumber,none tree,see marsh,none wolf,drop lumber'
p104
F0.0039375
sS'beaver energy med,marsh energy low,no lumber,none tree,see marsh,none wolf,move towards tree'
p105
I0
sS'beaver energy zero,marsh energy high,has lumber,none tree,see marsh,none wolf,drop lumber'
p106
F0.0
sS'beaver energy low,marsh energy low,has lumber,none tree,none marsh,none wolf,drop lumber'
p107
F0.00031499999999999996
sS'beaver energy med,marsh energy high,no lumber,see tree,at marsh,none wolf,pick up lumber'
p108
I0
sS'beaver energy med,marsh energy high,has lumber,see tree,at marsh,see wolf,drop lumber'
p109
F0.00225
sS'beaver energy low,marsh energy high,no lumber,at tree,none marsh,none wolf,pick up lumber'
p110
I0
sS'beaver energy zero,marsh energy low,no lumber,see tree,see marsh,see wolf,drop lumber'
p111
I0
sS'beaver energy med,marsh energy low,no lumber,none tree,at marsh,none wolf,eat'
p112
I0
sS'beaver energy med,marsh energy high,has lumber,none tree,at marsh,none wolf,drop lumber'
p113
F0.01575
sS'beaver energy med,marsh energy med,no lumber,at tree,see marsh,none wolf,pick up lumber'
p114
I0
sS'beaver energy high,marsh energy high,no lumber,at tree,see marsh,see wolf,eat'
p115
F0.0125
sS'beaver energy low,marsh energy low,no lumber,none tree,at marsh,see wolf,move towards marsh'
p116
I0
sS'beaver energy high,marsh energy med,has lumber,see tree,none marsh,see wolf,move towards marsh'
p117
I0
sS'beaver energy zero,marsh energy low,no lumber,at tree,none marsh,see wolf,move towards marsh'
p118
I0
sS'beaver energy high,marsh energy high,no lumber,see tree,none marsh,none wolf,drop lumber'
p119
I0
sS'beaver energy med,marsh energy med,no lumber,at tree,see marsh,none wolf,move towards tree'
p120
I0
sS'beaver energy low,marsh energy low,has lumber,at tree,see marsh,see wolf,drop lumber'
p121
F0.0001875
sS'beaver energy low,marsh energy high,no lumber,none tree,none marsh,none wolf,move towards tree'
p122
I0
sS'beaver energy zero,marsh energy low,has lumber,see tree,at marsh,see wolf,pick up lumber'
p123
I0
sS'beaver energy med,marsh energy high,no lumber,see tree,at marsh,none wolf,move towards marsh'
p124
I0
sS'beaver energy zero,marsh energy high,has lumber,at tree,none marsh,see wolf,drop lumber'
p125
F0.0
sS'beaver energy zero,marsh energy high,no lumber,at tree,none marsh,see wolf,move towards marsh'
p126
I0
sS'beaver energy low,marsh energy med,no lumber,at tree,none marsh,see wolf,move towards marsh'
p127
I0
sS'beaver energy med,marsh energy med,has lumber,at tree,see marsh,see wolf,eat'
p128
F0.00375
sS'beaver energy low,marsh energy med,has lumber,at tree,none marsh,see wolf,move towards tree'
p129
I0
sS'beaver energy zero,marsh energy high,has lumber,at tree,none marsh,see wolf,move towards tree'
p130
I0
sS'beaver energy zero,marsh energy low,no lumber,see tree,see marsh,see wolf,move towards tree'
p131
F0.0
sS'beaver energy zero,marsh energy low,has lumber,at tree,see marsh,none wolf,move towards tree'
p132
I0
sS'beaver energy high,marsh energy med,no lumber,none tree,see marsh,see wolf,move towards marsh'
p133
F0.0009375
sS'beaver energy low,marsh energy high,no lumber,none tree,see marsh,see wolf,move towards tree'
p134
I0
sS'beaver energy low,marsh energy high,no lumber,none tree,at marsh,none wolf,move towards marsh'
p135
I0
sS'beaver energy med,marsh energy low,has lumber,at tree,none marsh,see wolf,eat'
p136
F0.00030000000000000003
sS'beaver energy zero,marsh energy high,no lumber,none tree,none marsh,none wolf,pick up lumber'
p137
I0
sS'beaver energy high,marsh energy low,no lumber,see tree,at marsh,see wolf,move towards tree'
p138
F0.000675
sS'beaver energy low,marsh energy med,no lumber,none tree,none marsh,none wolf,pick up lumber'
p139
I0
sS'beaver energy high,marsh energy high,no lumber,none tree,see marsh,none wolf,pick up lumber'
p140
I0
sS'beaver energy low,marsh energy low,has lumber,see tree,none marsh,see wolf,move towards marsh'
p141
I0
sS'beaver energy med,marsh energy low,has lumber,see tree,at marsh,none wolf,move towards tree'
p142
F0.00567
sS'beaver energy med,marsh energy low,no lumber,none tree,at marsh,none wolf,move towards marsh'
p143
I0
sS'beaver energy med,marsh energy high,no lumber,none tree,see marsh,none wolf,move towards marsh'
p144
F0.01575
sS'beaver energy low,marsh energy low,has lumber,at tree,see marsh,none wolf,move towards tree'
p145
I0
sS'beaver energy high,marsh energy low,no lumber,none tree,at marsh,see wolf,move towards tree'
p146
I0
sS'beaver energy med,marsh energy low,has lumber,see tree,none marsh,none wolf,drop lumber'
p147
F0.0012599999999999998
sS'beaver energy med,marsh energy high,has lumber,see tree,none marsh,none wolf,pick up lumber'
p148
I0
sS'beaver energy low,marsh energy med,no lumber,see tree,none marsh,none wolf,move towards tree'
p149
F0.00567
sS'beaver energy high,marsh energy high,has lumber,none tree,see marsh,none wolf,move towards tree'
p150
I0
sS'beaver energy med,marsh energy med,no lumber,none tree,at marsh,see wolf,pick up lumber'
p151
I0
sS'beaver energy med,marsh energy low,no lumber,see tree,see marsh,none wolf,eat'
p152
I0
sS'beaver energy low,marsh energy low,has lumber,none tree,none marsh,none wolf,eat'
p153
I0
sS'beaver energy med,marsh energy low,has lumber,none tree,none marsh,see wolf,move towards marsh'
p154
I0
sS'beaver energy med,marsh energy low,no lumber,none tree,see marsh,none wolf,drop lumber'
p155
I0
sS'beaver energy med,marsh energy high,has lumber,none tree,see marsh,none wolf,move towards marsh'
p156
F0.01575
sS'beaver energy high,marsh energy low,has lumber,none tree,none marsh,see wolf,move towards marsh'
p157
I0
sS'beaver energy low,marsh energy med,has lumber,none tree,see marsh,none wolf,move towards marsh'
p158
F0.0039375
sS'beaver energy high,marsh energy med,no lumber,see tree,at marsh,none wolf,drop lumber'
p159
I0
sS'beaver energy low,marsh energy high,has lumber,at tree,none marsh,none wolf,move towards tree'
p160
I0
sS'beaver energy zero,marsh energy high,no lumber,see tree,none marsh,none wolf,drop lumber'
p161
I0
sS'beaver energy med,marsh energy med,has lumber,at tree,see marsh,none wolf,drop lumber'
p162
F0.02625
sS'beaver energy low,marsh energy med,no lumber,see tree,none marsh,none wolf,drop lumber'
p163
I0
sS'beaver energy med,marsh energy high,no lumber,none tree,at marsh,see wolf,move towards marsh'
p164
I0
sS'beaver energy high,marsh energy low,no lumber,see tree,see marsh,see wolf,eat'
p165
I0
sS'beaver energy zero,marsh energy low,has lumber,none tree,see marsh,none wolf,eat'
p166
I0
sS'beaver energy low,marsh energy med,has lumber,none tree,see marsh,none wolf,pick up lumber'
p167
I0
sS'beaver energy zero,marsh energy high,has lumber,none tree,see marsh,none wolf,pick up lumber'
p168
I0
sS'beaver energy med,marsh energy high,no lumber,see tree,at marsh,none wolf,move towards tree'
p169
F0.0567
sS'beaver energy high,marsh energy med,no lumber,see tree,none marsh,see wolf,drop lumber'
p170
I0
sS'beaver energy zero,marsh energy med,no lumber,none tree,at marsh,see wolf,drop lumber'
p171
I0
sS'beaver energy high,marsh energy med,no lumber,at tree,see marsh,none wolf,pick up lumber'
p172
I0
sS'beaver energy low,marsh energy low,no lumber,none tree,see marsh,none wolf,pick up lumber'
p173
I0
sS'beaver energy high,marsh energy high,no lumber,none tree,none marsh,none wolf,pick up lumber'
p174
I0
sS'beaver energy high,marsh energy low,has lumber,see tree,see marsh,none wolf,pick up lumber'
p175
I0
sS'beaver energy med,marsh energy low,has lumber,at tree,see marsh,see wolf,move towards tree'
p176
I0
sS'beaver energy low,marsh energy high,has lumber,see tree,at marsh,none wolf,eat'
p177
I0
sS'beaver energy zero,marsh energy high,has lumber,none tree,at marsh,see wolf,drop lumber'
p178
F0.0
sS'beaver energy low,marsh energy med,has lumber,none tree,at marsh,see wolf,drop lumber'
p179
F0.00028125
sS'beaver energy zero,marsh energy med,has lumber,at tree,see marsh,see wolf,pick up lumber'
p180
F0.0
sS'beaver energy med,marsh energy high,no lumber,see tree,see marsh,see wolf,pick up lumber'
p181
I0
sS'beaver energy high,marsh energy low,has lumber,see tree,none marsh,see wolf,pick up lumber'
p182
I0
sS'beaver energy zero,marsh energy med,no lumber,see tree,none marsh,see wolf,pick up lumber'
p183
I0
sS'beaver energy zero,marsh energy med,has lumber,none tree,at marsh,see wolf,pick up lumber'
p184
I0
sS'beaver energy zero,marsh energy low,has lumber,none tree,none marsh,see wolf,move towards marsh'
p185
I0
sS'beaver energy med,marsh energy high,has lumber,at tree,none marsh,see wolf,move towards marsh'
p186
I0
sS'beaver energy med,marsh energy med,no lumber,none tree,see marsh,see wolf,pick up lumber'
p187
I0
sS'beaver energy med,marsh energy med,has lumber,none tree,at marsh,see wolf,eat'
p188
I0
sS'beaver energy zero,marsh energy med,has lumber,see tree,none marsh,see wolf,drop lumber'
p189
F0.0
sS'beaver energy zero,marsh energy med,no lumber,none tree,see marsh,none wolf,drop lumber'
p190
I0
sS'beaver energy med,marsh energy high,has lumber,see tree,at marsh,none wolf,pick up lumber'
p191
I0
sS'beaver energy med,marsh energy med,no lumber,none tree,none marsh,see wolf,eat'
p192
I0
sS'beaver energy zero,marsh energy low,has lumber,none tree,at marsh,see wolf,eat'
p193
I0
sS'beaver energy low,marsh energy low,has lumber,none tree,see marsh,see wolf,move towards tree'
p194
I0
sS'beaver energy med,marsh energy low,has lumber,see tree,see marsh,see wolf,eat'
p195
I0
sS'beaver energy high,marsh energy low,has lumber,none tree,none marsh,none wolf,move towards tree'
p196
I0
sS'beaver energy zero,marsh energy med,has lumber,see tree,at marsh,none wolf,eat'
p197
I0
sS'beaver energy med,marsh energy med,no lumber,see tree,see marsh,see wolf,pick up lumber'
p198
I0
sS'beaver energy zero,marsh energy high,no lumber,none tree,none marsh,none wolf,eat'
p199
I0
sS'beaver energy zero,marsh energy med,has lumber,see tree,see marsh,see wolf,move towards tree'
p200
F0.0
sS'beaver energy zero,marsh energy med,no lumber,see tree,see marsh,see wolf,eat'
p201
I0
sS'beaver energy high,marsh energy med,has lumber,none tree,see marsh,none wolf,pick up lumber'
p202
I0
sS'beaver energy low,marsh energy med,no lumber,none tree,none marsh,none wolf,eat'
p203
I0
sS'beaver energy zero,marsh energy med,no lumber,at tree,none marsh,none wolf,pick up lumber'
p204
I0
sS'beaver energy med,marsh energy med,has lumber,none tree,see marsh,see wolf,move towards tree'
p205
I0
sS'beaver energy med,marsh energy med,has lumber,none tree,see marsh,none wolf,move towards tree'
p206
I0
sS'beaver energy high,marsh energy med,has lumber,at tree,none marsh,see wolf,pick up lumber'
p207
F0.0012500000000000002
sS'beaver energy high,marsh energy med,no lumber,none tree,see marsh,see wolf,move towards tree'
p208
I0
sS'beaver energy med,marsh energy med,has lumber,see tree,see marsh,none wolf,drop lumber'
p209
F0.01575
sS'beaver energy med,marsh energy high,no lumber,none tree,none marsh,none wolf,eat'
p210
I0
sS'beaver energy low,marsh energy high,has lumber,none tree,see marsh,see wolf,move towards marsh'
p211
F0.0005625
sS'beaver energy med,marsh energy low,has lumber,none tree,none marsh,none wolf,drop lumber'
p212
F0.0006299999999999999
sS'beaver energy zero,marsh energy med,no lumber,at tree,see marsh,see wolf,eat'
p213
F0.0
sS'beaver energy zero,marsh energy low,no lumber,none tree,none marsh,see wolf,move towards tree'
p214
I0
sS'beaver energy high,marsh energy med,no lumber,at tree,see marsh,see wolf,move towards tree'
p215
I0
sS'beaver energy med,marsh energy med,no lumber,at tree,see marsh,see wolf,eat'
p216
F0.00375
sS'beaver energy high,marsh energy high,has lumber,see tree,at marsh,none wolf,move towards tree'
p217
F0.0945
sS'beaver energy high,marsh energy med,has lumber,see tree,see marsh,see wolf,pick up lumber'
p218
I0
sS'beaver energy zero,marsh energy low,has lumber,none tree,see marsh,see wolf,move towards tree'
p219
I0
sS'beaver energy low,marsh energy high,no lumber,none tree,none marsh,see wolf,move towards tree'
p220
I0
sS'beaver energy high,marsh energy med,no lumber,see tree,see marsh,none wolf,pick up lumber'
p221
I0
sS'beaver energy low,marsh energy med,has lumber,none tree,none marsh,none wolf,eat'
p222
I0
sS'beaver energy high,marsh energy med,has lumber,see tree,see marsh,see wolf,drop lumber'
p223
F0.001875
sS'beaver energy low,marsh energy high,has lumber,at tree,see marsh,see wolf,drop lumber'
p224
F0.001875
sS'beaver energy high,marsh energy med,has lumber,see tree,at marsh,none wolf,move towards marsh'
p225
I0
sS'beaver energy zero,marsh energy high,no lumber,at tree,see marsh,none wolf,pick up lumber'
p226
I0
sS'beaver energy med,marsh energy high,has lumber,see tree,none marsh,see wolf,pick up lumber'
p227
I0
sS'beaver energy med,marsh energy med,has lumber,none tree,none marsh,none wolf,drop lumber'
p228
F0.0031499999999999996
sS'beaver energy low,marsh energy med,no lumber,at tree,see marsh,none wolf,pick up lumber'
p229
I0
sS'beaver energy med,marsh energy high,no lumber,none tree,at marsh,none wolf,pick up lumber'
p230
I0
sS'beaver energy med,marsh energy high,has lumber,none tree,at marsh,none wolf,move towards marsh'
p231
I0
sS'beaver energy low,marsh energy low,no lumber,at tree,none marsh,none wolf,move towards marsh'
p232
I0
sS'beaver energy zero,marsh energy low,has lumber,see tree,at marsh,none wolf,move towards marsh'
p233
I0
sS'beaver energy med,marsh energy med,no lumber,see tree,none marsh,none wolf,drop lumber'
p234
I0
sS'beaver energy low,marsh energy low,has lumber,see tree,at marsh,none wolf,drop lumber'
p235
F0.0015749999999999998
sS'beaver energy low,marsh energy high,no lumber,at tree,see marsh,none wolf,drop lumber'
p236
I0
sS'beaver energy zero,marsh energy low,no lumber,none tree,at marsh,see wolf,drop lumber'
p237
I0
sS'beaver energy low,marsh energy high,has lumber,at tree,none marsh,see wolf,eat'
p238
F0.0015
sS'beaver energy med,marsh energy med,no lumber,see tree,see marsh,none wolf,move towards marsh'
p239
F0.01575
sS'beaver energy zero,marsh energy low,no lumber,none tree,see marsh,none wolf,drop lumber'
p240
I0
sS'beaver energy high,marsh energy high,no lumber,at tree,see marsh,see wolf,drop lumber'
p241
I0
sS'beaver energy high,marsh energy med,no lumber,none tree,none marsh,none wolf,eat'
p242
I0
sS'beaver energy low,marsh energy high,no lumber,see tree,at marsh,see wolf,move towards tree'
p243
F0.002025
sS'beaver energy high,marsh energy high,has lumber,at tree,see marsh,see wolf,move towards tree'
p244
I0
sS'beaver energy med,marsh energy high,has lumber,none tree,at marsh,see wolf,pick up lumber'
p245
I0
sS'beaver energy high,marsh energy high,no lumber,none tree,see marsh,none wolf,eat'
p246
I0
sS'beaver energy med,marsh energy high,no lumber,see tree,none marsh,see wolf,drop lumber'
p247
I0
sS'beaver energy low,marsh energy med,has lumber,none tree,none marsh,none wolf,move towards tree'
p248
I0
sS'beaver energy zero,marsh energy med,no lumber,see tree,at marsh,none wolf,move towards marsh'
p249
I0
sS'beaver energy low,marsh energy high,no lumber,none tree,none marsh,see wolf,move towards marsh'
p250
I0
sS'beaver energy med,marsh energy low,no lumber,see tree,see marsh,see wolf,drop lumber'
p251
I0
sS'beaver energy med,marsh energy high,has lumber,see tree,see marsh,see wolf,drop lumber'
p252
F0.00225
sS'beaver energy med,marsh energy med,has lumber,see tree,none marsh,none wolf,eat'
p253
I0
sS'beaver energy high,marsh energy med,has lumber,none tree,none marsh,none wolf,drop lumber'
p254
F0.0052499999999999995
sS'beaver energy zero,marsh energy high,has lumber,none tree,none marsh,none wolf,move towards tree'
p255
I0
sS'beaver energy high,marsh energy low,no lumber,none tree,at marsh,none wolf,drop lumber'
p256
I0
sS'beaver energy med,marsh energy high,no lumber,see tree,see marsh,see wolf,move towards tree'
p257
F0.00405
sS'beaver energy high,marsh energy low,has lumber,see tree,none marsh,see wolf,move towards tree'
p258
F0.00027000000000000006
sS'beaver energy med,marsh energy high,has lumber,none tree,none marsh,none wolf,move towards tree'
p259
I0
sS'beaver energy med,marsh energy low,has lumber,see tree,at marsh,see wolf,pick up lumber'
p260
I0
sS'beaver energy zero,marsh energy med,has lumber,see tree,none marsh,none wolf,move towards marsh'
p261
I0
sS'beaver energy low,marsh energy high,has lumber,none tree,at marsh,none wolf,move towards tree'
p262
I0
sS'beaver energy low,marsh energy low,no lumber,none tree,see marsh,none wolf,drop lumber'
p263
I0
sS'beaver energy low,marsh energy high,has lumber,none tree,at marsh,none wolf,eat'
p264
I0
sS'beaver energy low,marsh energy high,no lumber,at tree,none marsh,none wolf,drop lumber'
p265
I0
sS'beaver energy med,marsh energy low,has lumber,at tree,see marsh,see wolf,pick up lumber'
p266
F0.000375
sS'beaver energy high,marsh energy med,has lumber,see tree,see marsh,none wolf,eat'
p267
I0
sS'beaver energy low,marsh energy high,no lumber,see tree,none marsh,see wolf,pick up lumber'
p268
I0
sS'beaver energy zero,marsh energy med,has lumber,at tree,none marsh,none wolf,move towards tree'
p269
I0
sS'beaver energy zero,marsh energy med,has lumber,none tree,at marsh,see wolf,eat'
p270
I0
sS'beaver energy high,marsh energy high,no lumber,none tree,at marsh,see wolf,drop lumber'
p271
I0
sS'beaver energy med,marsh energy low,has lumber,see tree,none marsh,none wolf,eat'
p272
I0
sS'beaver energy low,marsh energy med,has lumber,at tree,none marsh,see wolf,pick up lumber'
p273
F0.000375
sS'beaver energy zero,marsh energy high,has lumber,at tree,none marsh,see wolf,pick up lumber'
p274
F0.0
sS'beaver energy high,marsh energy high,no lumber,none tree,see marsh,none wolf,drop lumber'
p275
I0
sS'beaver energy med,marsh energy high,no lumber,at tree,none marsh,see wolf,eat'
p276
F0.003
sS'beaver energy med,marsh energy high,no lumber,none tree,none marsh,none wolf,pick up lumber'
p277
I0
sS'beaver energy low,marsh energy low,no lumber,see tree,none marsh,none wolf,drop lumber'
p278
I0
sS'beaver energy low,marsh energy low,no lumber,see tree,at marsh,see wolf,drop lumber'
p279
I0
sS'beaver energy high,marsh energy med,has lumber,at tree,see marsh,none wolf,eat'
p280
F0.0875
sS'beaver energy med,marsh energy high,no lumber,see tree,see marsh,see wolf,eat'
p281
I0
sS'beaver energy high,marsh energy low,has lumber,see tree,none marsh,see wolf,eat'
p282
I0
sS'beaver energy low,marsh energy high,no lumber,see tree,at marsh,see wolf,move towards marsh'
p283
I0
sS'beaver energy high,marsh energy low,no lumber,at tree,see marsh,see wolf,eat'
p284
F0.0012500000000000002
sS'beaver energy med,marsh energy low,has lumber,see tree,none marsh,see wolf,pick up lumber'
p285
I0
sS'beaver energy med,marsh energy med,no lumber,at tree,see marsh,see wolf,pick up lumber'
p286
I0
sS'beaver energy med,marsh energy med,no lumber,none tree,at marsh,none wolf,move towards marsh'
p287
I0
sS'beaver energy high,marsh energy high,has lumber,at tree,none marsh,none wolf,drop lumber'
p288
F0.034999999999999996
sS'beaver energy low,marsh energy low,no lumber,see tree,at marsh,none wolf,eat'
p289
I0
sS'beaver energy zero,marsh energy med,no lumber,none tree,none marsh,see wolf,pick up lumber'
p290
I0
sS'beaver energy high,marsh energy med,no lumber,at tree,none marsh,see wolf,move towards tree'
p291
I0
sS'beaver energy low,marsh energy low,has lumber,see tree,at marsh,none wolf,eat'
p292
I0
sS'beaver energy med,marsh energy low,has lumber,at tree,none marsh,see wolf,move towards tree'
p293
I0
sS'beaver energy high,marsh energy med,no lumber,at tree,see marsh,none wolf,drop lumber'
p294
I0
sS'beaver energy zero,marsh energy high,has lumber,see tree,none marsh,see wolf,eat'
p295
I0
sS'beaver energy low,marsh energy low,has lumber,see tree,none marsh,none wolf,eat'
p296
I0
sS'beaver energy low,marsh energy med,has lumber,at tree,see marsh,none wolf,pick up lumber'
p297
F0.013125
sS'beaver energy low,marsh energy med,has lumber,see tree,none marsh,see wolf,eat'
p298
I0
sS'beaver energy zero,marsh energy high,has lumber,at tree,see marsh,none wolf,pick up lumber'
p299
F0.0
sS'beaver energy med,marsh energy high,has lumber,see tree,at marsh,see wolf,move towards tree'
p300
F0.00405
sS'beaver energy med,marsh energy med,has lumber,see tree,none marsh,see wolf,move towards marsh'
p301
I0
sS'beaver energy low,marsh energy high,no lumber,none tree,see marsh,none wolf,pick up lumber'
p302
I0
sS'beaver energy med,marsh energy low,has lumber,at tree,see marsh,see wolf,eat'
p303
F0.00075
sS'beaver energy high,marsh energy med,no lumber,none tree,none marsh,see wolf,move towards marsh'
p304
I0
sS'beaver energy zero,marsh energy low,no lumber,see tree,at marsh,see wolf,eat'
p305
I0
sS'beaver energy high,marsh energy high,has lumber,none tree,none marsh,see wolf,move towards marsh'
p306
I0
sS'beaver energy zero,marsh energy med,no lumber,see tree,see marsh,none wolf,drop lumber'
p307
I0
sS'beaver energy high,marsh energy low,has lumber,at tree,see marsh,see wolf,eat'
p308
F0.0012500000000000002
sS'beaver energy low,marsh energy med,has lumber,see tree,none marsh,none wolf,move towards tree'
p309
F0.00567
sS'beaver energy zero,marsh energy high,has lumber,see tree,none marsh,none wolf,move towards tree'
p310
F0.0
sS'beaver energy low,marsh energy low,no lumber,at tree,none marsh,see wolf,drop lumber'
p311
I0
sS'beaver energy high,marsh energy high,has lumber,none tree,none marsh,see wolf,eat'
p312
I0
sS'beaver energy high,marsh energy high,has lumber,see tree,none marsh,none wolf,move towards tree'
p313
F0.0378
sS'beaver energy low,marsh energy med,no lumber,at tree,see marsh,none wolf,move towards marsh'
p314
F0.013125
sS'beaver energy zero,marsh energy low,no lumber,none tree,none marsh,see wolf,move towards marsh'
p315
I0
sS'beaver energy low,marsh energy low,no lumber,see tree,at marsh,see wolf,move towards marsh'
p316
I0
sS'beaver energy med,marsh energy low,has lumber,see tree,see marsh,see wolf,drop lumber'
p317
F0.000225
sS'beaver energy high,marsh energy med,has lumber,none tree,see marsh,see wolf,pick up lumber'
p318
I0
sS'beaver energy high,marsh energy med,no lumber,none tree,at marsh,see wolf,move towards marsh'
p319
I0
sS'beaver energy high,marsh energy high,has lumber,none tree,none marsh,see wolf,drop lumber'
p320
F0.00075
sS'beaver energy med,marsh energy low,has lumber,see tree,none marsh,see wolf,move towards marsh'
p321
I0
sS'beaver energy med,marsh energy low,has lumber,see tree,at marsh,see wolf,move towards tree'
p322
F0.000405
sS'beaver energy high,marsh energy med,has lumber,see tree,at marsh,none wolf,eat'
p323
I0
sS'beaver energy med,marsh energy high,has lumber,at tree,none marsh,see wolf,eat'
p324
F0.003
sS'beaver energy high,marsh energy low,has lumber,see tree,at marsh,none wolf,pick up lumber'
p325
I0
sS'beaver energy low,marsh energy high,no lumber,none tree,none marsh,see wolf,drop lumber'
p326
I0
sS'beaver energy med,marsh energy high,no lumber,see tree,none marsh,none wolf,pick up lumber'
p327
I0
sS'beaver energy zero,marsh energy med,has lumber,none tree,see marsh,none wolf,move towards marsh'
p328
F0.0
sS'beaver energy low,marsh energy low,no lumber,none tree,none marsh,see wolf,move towards marsh'
p329
I0
sS'beaver energy low,marsh energy high,has lumber,at tree,none marsh,see wolf,pick up lumber'
p330
F0.00075
sS'beaver energy zero,marsh energy med,no lumber,see tree,see marsh,none wolf,move towards tree'
p331
F0.0
sS'beaver energy high,marsh energy low,has lumber,none tree,none marsh,see wolf,move towards tree'
p332
I0
sS'beaver energy zero,marsh energy med,has lumber,see tree,see marsh,see wolf,drop lumber'
p333
F0.0
sS'beaver energy med,marsh energy high,no lumber,see tree,at marsh,see wolf,drop lumber'
p334
I0
sS'beaver energy med,marsh energy med,no lumber,none tree,see marsh,none wolf,drop lumber'
p335
I0
sS'beaver energy zero,marsh energy low,no lumber,see tree,none marsh,see wolf,move towards marsh'
p336
I0
sS'beaver energy high,marsh energy low,no lumber,none tree,see marsh,none wolf,move towards tree'
p337
I0
sS'beaver energy zero,marsh energy low,no lumber,none tree,at marsh,none wolf,pick up lumber'
p338
I0
sS'beaver energy med,marsh energy med,has lumber,at tree,none marsh,none wolf,move towards marsh'
p339
I0
sS'beaver energy high,marsh energy med,has lumber,see tree,none marsh,none wolf,drop lumber'
p340
F0.010499999999999999
sS'beaver energy high,marsh energy low,has lumber,none tree,at marsh,none wolf,pick up lumber'
p341
I0
sS'beaver energy zero,marsh energy med,has lumber,see tree,none marsh,none wolf,move towards tree'
p342
F0.0
sS'beaver energy high,marsh energy low,no lumber,at tree,none marsh,none wolf,pick up lumber'
p343
I0
sS'beaver energy high,marsh energy high,no lumber,see tree,none marsh,see wolf,drop lumber'
p344
I0
sS'beaver energy low,marsh energy low,has lumber,see tree,at marsh,see wolf,move towards tree'
p345
F0.0002025
sS'beaver energy low,marsh energy low,has lumber,see tree,see marsh,none wolf,eat'
p346
I0
sS'beaver energy med,marsh energy med,no lumber,at tree,see marsh,see wolf,move towards marsh'
p347
F0.001875
sS'beaver energy med,marsh energy high,has lumber,at tree,none marsh,none wolf,move towards tree'
p348
I0
sS'beaver energy low,marsh energy high,has lumber,at tree,see marsh,none wolf,pick up lumber'
p349
F0.02625
sS'beaver energy high,marsh energy med,has lumber,at tree,see marsh,none wolf,move towards tree'
p350
I0
sS'beaver energy zero,marsh energy low,has lumber,see tree,at marsh,see wolf,eat'
p351
I0
sS'beaver energy med,marsh energy high,no lumber,at tree,see marsh,see wolf,eat'
p352
F0.0075
sS'beaver energy low,marsh energy high,no lumber,at tree,see marsh,none wolf,move towards marsh'
p353
F0.02625
sS'beaver energy low,marsh energy high,has lumber,see tree,at marsh,see wolf,eat'
p354
I0
sS'beaver energy med,marsh energy high,no lumber,none tree,none marsh,see wolf,eat'
p355
I0
sS'beaver energy high,marsh energy high,no lumber,none tree,at marsh,none wolf,move towards marsh'
p356
I0
sS'beaver energy high,marsh energy med,has lumber,see tree,none marsh,none wolf,move towards marsh'
p357
I0
sS'beaver energy med,marsh energy high,no lumber,none tree,none marsh,see wolf,move towards marsh'
p358
I0
sS'beaver energy low,marsh energy high,no lumber,none tree,none marsh,see wolf,eat'
p359
I0
sS'beaver energy med,marsh energy low,has lumber,see tree,see marsh,none wolf,pick up lumber'
p360
I0
sS'beaver energy low,marsh energy med,no lumber,see tree,none marsh,see wolf,eat'
p361
I0
sS'beaver energy zero,marsh energy med,no lumber,none tree,see marsh,see wolf,pick up lumber'
p362
I0
sS'beaver energy zero,marsh energy high,no lumber,see tree,none marsh,see wolf,eat'
p363
I0
sS'beaver energy high,marsh energy low,no lumber,see tree,none marsh,none wolf,pick up lumber'
p364
I0
sS'beaver energy low,marsh energy low,no lumber,see tree,see marsh,none wolf,move towards tree'
p365
F0.002835
sS'beaver energy zero,marsh energy low,has lumber,none tree,none marsh,none wolf,pick up lumber'
p366
I0
sS'beaver energy zero,marsh energy low,has lumber,see tree,at marsh,none wolf,eat'
p367
I0
sS'beaver energy med,marsh energy med,has lumber,none tree,at marsh,none wolf,move towards tree'
p368
I0
sS'beaver energy zero,marsh energy med,has lumber,see tree,at marsh,none wolf,move towards marsh'
p369
I0
sS'beaver energy med,marsh energy low,no lumber,see tree,none marsh,none wolf,drop lumber'
p370
I0
sS'beaver energy high,marsh energy low,has lumber,none tree,see marsh,see wolf,move towards tree'
p371
I0
sS'beaver energy high,marsh energy med,no lumber,none tree,at marsh,see wolf,eat'
p372
I0
sS'beaver energy low,marsh energy low,has lumber,at tree,none marsh,none wolf,move towards tree'
p373
I0
sS'beaver energy med,marsh energy med,no lumber,at tree,none marsh,none wolf,move towards marsh'
p374
I0
sS'beaver energy low,marsh energy high,has lumber,none tree,see marsh,none wolf,move towards tree'
p375
I0
sS'beaver energy zero,marsh energy low,has lumber,see tree,see marsh,see wolf,move towards marsh'
p376
F0.0
sS'beaver energy med,marsh energy med,has lumber,none tree,see marsh,none wolf,pick up lumber'
p377
I0
sS'beaver energy med,marsh energy low,has lumber,at tree,see marsh,none wolf,eat'
p378
F0.010499999999999999
sS'beaver energy zero,marsh energy high,no lumber,at tree,none marsh,see wolf,move towards tree'
p379
I0
sS'beaver energy med,marsh energy med,no lumber,none tree,at marsh,none wolf,pick up lumber'
p380
I0
sS'beaver energy low,marsh energy med,no lumber,at tree,none marsh,see wolf,move towards tree'
p381
I0
sS'beaver energy low,marsh energy med,no lumber,none tree,none marsh,none wolf,drop lumber'
p382
I0
sS'beaver energy zero,marsh energy med,has lumber,at tree,none marsh,see wolf,move towards marsh'
p383
I0
sS'beaver energy med,marsh energy high,has lumber,none tree,none marsh,see wolf,move towards marsh'
p384
I0
sS'beaver energy med,marsh energy low,has lumber,none tree,none marsh,see wolf,move towards tree'
p385
I0
sS'beaver energy high,marsh energy med,has lumber,see tree,none marsh,none wolf,pick up lumber'
p386
I0
sS'beaver energy zero,marsh energy high,no lumber,none tree,none marsh,none wolf,drop lumber'
p387
I0
sS'beaver energy high,marsh energy high,no lumber,see tree,none marsh,see wolf,move towards marsh'
p388
I0
sS'beaver energy high,marsh energy med,no lumber,at tree,see marsh,none wolf,move towards tree'
p389
I0
sS'beaver energy high,marsh energy low,no lumber,none tree,none marsh,see wolf,move towards tree'
p390
I0
sS'beaver energy zero,marsh energy med,no lumber,none tree,at marsh,none wolf,pick up lumber'
p391
I0
sS'beaver energy med,marsh energy high,no lumber,at tree,see marsh,none wolf,drop lumber'
p392
I0
sS'beaver energy high,marsh energy med,no lumber,see tree,none marsh,none wolf,pick up lumber'
p393
I0
sS'beaver energy zero,marsh energy low,has lumber,see tree,none marsh,none wolf,eat'
p394
I0
sS'beaver energy med,marsh energy high,no lumber,at tree,see marsh,none wolf,pick up lumber'
p395
I0
sS'beaver energy high,marsh energy high,has lumber,none tree,at marsh,none wolf,pick up lumber'
p396
I0
sS'beaver energy low,marsh energy med,has lumber,none tree,at marsh,see wolf,pick up lumber'
p397
I0
sS'beaver energy zero,marsh energy low,no lumber,none tree,at marsh,see wolf,eat'
p398
I0
sS'beaver energy low,marsh energy low,no lumber,at tree,none marsh,none wolf,drop lumber'
p399
I0
sS'beaver energy high,marsh energy med,has lumber,see tree,none marsh,see wolf,eat'
p400
I0
sS'beaver energy med,marsh energy med,no lumber,see tree,none marsh,none wolf,move towards marsh'
p401
I0
sS'beaver energy med,marsh energy med,no lumber,see tree,see marsh,see wolf,drop lumber'
p402
I0
sS'beaver energy med,marsh energy low,has lumber,see tree,see marsh,none wolf,eat'
p403
I0
sS'beaver energy zero,marsh energy med,no lumber,none tree,see marsh,see wolf,move towards tree'
p404
I0
sS'beaver energy high,marsh energy high,no lumber,none tree,see marsh,none wolf,move towards marsh'
p405
F0.02625
sS'beaver energy high,marsh energy low,no lumber,see tree,see marsh,none wolf,move towards marsh'
p406
F0.0052499999999999995
sS'beaver energy high,marsh energy med,no lumber,none tree,none marsh,none wolf,move towards marsh'
p407
I0
sS'beaver energy zero,marsh energy low,has lumber,see tree,see marsh,none wolf,pick up lumber'
p408
I0
sS'beaver energy zero,marsh energy low,has lumber,none tree,at marsh,none wolf,pick up lumber'
p409
I0
sS'beaver energy high,marsh energy high,no lumber,at tree,none marsh,none wolf,drop lumber'
p410
I0
sS'beaver energy high,marsh energy low,no lumber,none tree,see marsh,none wolf,eat'
p411
I0
sS'beaver energy med,marsh energy low,no lumber,see tree,at marsh,none wolf,move towards marsh'
p412
I0
sS'beaver energy high,marsh energy high,no lumber,none tree,none marsh,see wolf,drop lumber'
p413
I0
sS'beaver energy high,marsh energy med,has lumber,at tree,none marsh,see wolf,drop lumber'
p414
F0.0012500000000000002
sS'beaver energy low,marsh energy high,no lumber,none tree,none marsh,none wolf,move towards marsh'
p415
I0
sS'beaver energy med,marsh energy high,no lumber,at tree,none marsh,none wolf,move towards tree'
p416
I0
sS'beaver energy high,marsh energy high,has lumber,see tree,at marsh,see wolf,move towards marsh'
p417
I0
sS'beaver energy high,marsh energy high,no lumber,see tree,see marsh,none wolf,move towards tree'
p418
F0.0945
sS'beaver energy low,marsh energy high,has lumber,at tree,none marsh,none wolf,move towards marsh'
p419
I0
sS'beaver energy low,marsh energy high,no lumber,see tree,see marsh,see wolf,pick up lumber'
p420
I0
sS'beaver energy low,marsh energy high,has lumber,none tree,see marsh,none wolf,drop lumber'
p421
F0.007875
sS'beaver energy high,marsh energy med,no lumber,none tree,none marsh,see wolf,move towards tree'
p422
I0
sS'beaver energy low,marsh energy low,has lumber,at tree,none marsh,none wolf,drop lumber'
p423
F0.00105
sS'beaver energy high,marsh energy low,no lumber,none tree,see marsh,see wolf,drop lumber'
p424
I0
sS'beaver energy med,marsh energy med,no lumber,none tree,none marsh,see wolf,pick up lumber'
p425
I0
sS'beaver energy zero,marsh energy med,no lumber,none tree,none marsh,see wolf,move towards tree'
p426
I0
sS'beaver energy low,marsh energy med,has lumber,at tree,see marsh,see wolf,eat'
p427
F0.001875
sS'beaver energy zero,marsh energy med,no lumber,none tree,at marsh,none wolf,move towards marsh'
p428
I0
sS'beaver energy high,marsh energy med,no lumber,see tree,none marsh,none wolf,move towards marsh'
p429
I0
sS'beaver energy med,marsh energy high,has lumber,at tree,see marsh,none wolf,move towards tree'
p430
I0
sS'beaver energy low,marsh energy low,no lumber,at tree,none marsh,see wolf,eat'
p431
F0.00015000000000000001
sS'beaver energy high,marsh energy low,has lumber,none tree,none marsh,none wolf,eat'
p432
I0
sS'beaver energy zero,marsh energy high,has lumber,see tree,at marsh,none wolf,eat'
p433
I0
sS'beaver energy high,marsh energy low,has lumber,at tree,none marsh,see wolf,eat'
p434
F0.0005000000000000001
sS'beaver energy low,marsh energy med,has lumber,see tree,at marsh,none wolf,eat'
p435
I0
sS'beaver energy med,marsh energy low,has lumber,none tree,none marsh,see wolf,eat'
p436
I0
sS'beaver energy low,marsh energy med,has lumber,none tree,see marsh,see wolf,move towards marsh'
p437
F0.00028125
sS'beaver energy low,marsh energy low,no lumber,none tree,at marsh,see wolf,move towards tree'
p438
I0
sS'beaver energy zero,marsh energy high,has lumber,none tree,see marsh,see wolf,move towards marsh'
p439
F0.0
sS'beaver energy med,marsh energy high,no lumber,at tree,see marsh,see wolf,drop lumber'
p440
I0
sS'beaver energy zero,marsh energy low,no lumber,see tree,at marsh,none wolf,move towards marsh'
p441
I0
sS'beaver energy high,marsh energy med,has lumber,none tree,at marsh,see wolf,eat'
p442
I0
sS'beaver energy med,marsh energy high,has lumber,see tree,see marsh,none wolf,move towards marsh'
p443
F0.0315
sS'beaver energy med,marsh energy med,has lumber,none tree,none marsh,see wolf,move towards marsh'
p444
I0
sS'beaver energy zero,marsh energy low,has lumber,at tree,none marsh,none wolf,pick up lumber'
p445
F0.0
sS'beaver energy low,marsh energy high,has lumber,see tree,see marsh,none wolf,pick up lumber'
p446
I0
sS'beaver energy med,marsh energy low,has lumber,at tree,none marsh,none wolf,eat'
p447
F0.0042
sS'beaver energy zero,marsh energy low,no lumber,none tree,none marsh,none wolf,eat'
p448
I0
sS'beaver energy high,marsh energy high,has lumber,see tree,at marsh,see wolf,move towards tree'
p449
F0.00675
sS'beaver energy low,marsh energy high,no lumber,at tree,none marsh,none wolf,move towards marsh'
p450
I0
sS'beaver energy low,marsh energy high,has lumber,at tree,none marsh,see wolf,move towards marsh'
p451
I0
sS'beaver energy zero,marsh energy med,has lumber,none tree,at marsh,none wolf,move towards marsh'
p452
I0
sS'beaver energy med,marsh energy low,no lumber,at tree,none marsh,none wolf,move towards tree'
p453
I0
sS'beaver energy med,marsh energy low,no lumber,at tree,none marsh,see wolf,eat'
p454
F0.00030000000000000003
sS'beaver energy high,marsh energy low,no lumber,none tree,at marsh,none wolf,move towards marsh'
p455
I0
sS'beaver energy zero,marsh energy high,has lumber,at tree,none marsh,none wolf,drop lumber'
p456
F0.0
sS'beaver energy low,marsh energy low,has lumber,none tree,at marsh,none wolf,drop lumber'
p457
F0.0007874999999999999
sS'beaver energy med,marsh energy high,no lumber,see tree,none marsh,see wolf,eat'
p458
I0
sS'beaver energy med,marsh energy med,no lumber,see tree,at marsh,see wolf,move towards marsh'
p459
I0
sS'beaver energy high,marsh energy low,has lumber,at tree,none marsh,none wolf,pick up lumber'
p460
F0.0035000000000000005
sS'beaver energy zero,marsh energy low,no lumber,see tree,see marsh,none wolf,move towards tree'
p461
F0.0
sS'beaver energy low,marsh energy low,no lumber,see tree,none marsh,none wolf,move towards marsh'
p462
I0
sS'beaver energy high,marsh energy high,has lumber,none tree,see marsh,see wolf,pick up lumber'
p463
I0
sS'beaver energy low,marsh energy low,no lumber,none tree,at marsh,none wolf,move towards marsh'
p464
I0
sS'beaver energy med,marsh energy high,no lumber,none tree,at marsh,none wolf,move towards marsh'
p465
I0
sS'beaver energy zero,marsh energy med,no lumber,at tree,see marsh,none wolf,pick up lumber'
p466
I0
sS'beaver energy zero,marsh energy med,no lumber,none tree,see marsh,none wolf,move towards marsh'
p467
F0.0
sS'beaver energy zero,marsh energy med,no lumber,at tree,none marsh,see wolf,pick up lumber'
p468
I0
sS'beaver energy low,marsh energy low,has lumber,none tree,at marsh,see wolf,eat'
p469
I0
sS'beaver energy low,marsh energy med,has lumber,at tree,see marsh,see wolf,move towards tree'
p470
I0
sS'beaver energy zero,marsh energy high,has lumber,at tree,see marsh,see wolf,move towards tree'
p471
I0
sS'beaver energy low,marsh energy high,has lumber,see tree,none marsh,see wolf,pick up lumber'
p472
I0
sS'beaver energy low,marsh energy low,no lumber,see tree,at marsh,none wolf,drop lumber'
p473
I0
sS'beaver energy low,marsh energy med,has lumber,see tree,at marsh,see wolf,move towards tree'
p474
F0.0010125
sS'beaver energy zero,marsh energy high,has lumber,see tree,at marsh,see wolf,move towards tree'
p475
F0.0
sS'beaver energy low,marsh energy high,has lumber,none tree,see marsh,see wolf,eat'
p476
I0
sS'beaver energy med,marsh energy high,no lumber,see tree,at marsh,none wolf,eat'
p477
I0
sS'beaver energy low,marsh energy low,no lumber,none tree,none marsh,see wolf,drop lumber'
p478
I0
sS'beaver energy low,marsh energy low,has lumber,see tree,none marsh,see wolf,eat'
p479
I0
sS'beaver energy med,marsh energy high,has lumber,see tree,at marsh,none wolf,move towards marsh'
p480
I0
sS'beaver energy zero,marsh energy med,has lumber,none tree,see marsh,see wolf,eat'
p481
I0
sS'beaver energy med,marsh energy low,no lumber,see tree,none marsh,see wolf,move towards tree'
p482
F0.000162
sS'beaver energy low,marsh energy high,no lumber,see tree,at marsh,see wolf,drop lumber'
p483
I0
sS'beaver energy low,marsh energy low,has lumber,see tree,at marsh,see wolf,move towards marsh'
p484
I0
sS'beaver energy high,marsh energy high,no lumber,at tree,none marsh,none wolf,pick up lumber'
p485
I0
sS'beaver energy low,marsh energy low,no lumber,none tree,at marsh,see wolf,pick up lumber'
p486
I0
sS'beaver energy high,marsh energy high,has lumber,see tree,see marsh,none wolf,move towards tree'
p487
F0.0945
sS'beaver energy high,marsh energy high,has lumber,at tree,see marsh,see wolf,eat'
p488
F0.0125
sS'beaver energy zero,marsh energy low,has lumber,see tree,see marsh,none wolf,eat'
p489
I0
sS'beaver energy low,marsh energy low,no lumber,see tree,see marsh,see wolf,eat'
p490
I0
sS'beaver energy zero,marsh energy med,no lumber,see tree,at marsh,see wolf,eat'
p491
I0
sS'beaver energy zero,marsh energy low,no lumber,none tree,see marsh,see wolf,move towards marsh'
p492
F0.0
sS'beaver energy low,marsh energy low,no lumber,at tree,none marsh,see wolf,move towards marsh'
p493
I0
sS'beaver energy low,marsh energy low,no lumber,none tree,none marsh,none wolf,move towards marsh'
p494
I0
sS'beaver energy zero,marsh energy med,no lumber,none tree,at marsh,see wolf,move towards tree'
p495
I0
sS'beaver energy high,marsh energy med,no lumber,see tree,none marsh,see wolf,move towards tree'
p496
F0.00135
sS'beaver energy high,marsh energy med,has lumber,see tree,none marsh,see wolf,move towards tree'
p497
F0.00135
sS'beaver energy low,marsh energy low,has lumber,see tree,see marsh,see wolf,move towards marsh'
p498
F0.0001125
sS'beaver energy zero,marsh energy low,no lumber,at tree,see marsh,see wolf,pick up lumber'
p499
I0
sS'beaver energy low,marsh energy low,no lumber,none tree,none marsh,none wolf,eat'
p500
I0
sS'beaver energy zero,marsh energy low,no lumber,none tree,see marsh,see wolf,eat'
p501
I0
sS'beaver energy zero,marsh energy low,no lumber,none tree,at marsh,none wolf,eat'
p502
I0
sS'beaver energy low,marsh energy med,no lumber,none tree,at marsh,none wolf,move towards tree'
p503
I0
sS'beaver energy zero,marsh energy med,no lumber,see tree,at marsh,see wolf,move towards marsh'
p504
I0
sS'beaver energy zero,marsh energy high,no lumber,none tree,at marsh,none wolf,move towards tree'
p505
I0
sS'beaver energy high,marsh energy low,no lumber,see tree,at marsh,see wolf,pick up lumber'
p506
I0
sS'beaver energy med,marsh energy high,has lumber,none tree,at marsh,none wolf,move towards tree'
p507
I0
sS'beaver energy zero,marsh energy low,has lumber,none tree,at marsh,see wolf,pick up lumber'
p508
I0
sS'beaver energy zero,marsh energy low,has lumber,at tree,none marsh,none wolf,move towards marsh'
p509
I0
sS'beaver energy med,marsh energy med,no lumber,none tree,none marsh,none wolf,drop lumber'
p510
I0
sS'beaver energy med,marsh energy low,no lumber,at tree,see marsh,see wolf,eat'
p511
F0.00075
sS'beaver energy high,marsh energy low,no lumber,see tree,see marsh,see wolf,move towards tree'
p512
F0.000675
sS'beaver energy zero,marsh energy med,has lumber,none tree,none marsh,none wolf,pick up lumber'
p513
I0
sS'beaver energy low,marsh energy med,has lumber,see tree,at marsh,none wolf,move towards tree'
p514
F0.014175
sS'beaver energy zero,marsh energy high,has lumber,see tree,at marsh,none wolf,move towards tree'
p515
F0.0
sS'beaver energy med,marsh energy med,has lumber,see tree,see marsh,none wolf,move towards marsh'
p516
F0.01575
sS'beaver energy high,marsh energy low,no lumber,see tree,none marsh,none wolf,eat'
p517
I0
sS'beaver energy low,marsh energy high,has lumber,see tree,see marsh,none wolf,eat'
p518
I0
sS'beaver energy zero,marsh energy med,has lumber,see tree,at marsh,none wolf,move towards tree'
p519
F0.0
sS'beaver energy med,marsh energy med,has lumber,at tree,see marsh,see wolf,pick up lumber'
p520
F0.001875
sS'beaver energy zero,marsh energy low,has lumber,at tree,none marsh,none wolf,move towards tree'
p521
I0
sS'beaver energy med,marsh energy med,has lumber,at tree,see marsh,none wolf,move towards marsh'
p522
F0.02625
sS'beaver energy high,marsh energy high,has lumber,none tree,none marsh,none wolf,eat'
p523
I0
sS'beaver energy zero,marsh energy low,has lumber,at tree,see marsh,see wolf,eat'
p524
F0.0
sS'beaver energy low,marsh energy low,no lumber,none tree,at marsh,none wolf,move towards tree'
p525
I0
sS'beaver energy high,marsh energy low,has lumber,at tree,see marsh,none wolf,move towards marsh'
p526
F0.008749999999999999
sS'beaver energy high,marsh energy med,has lumber,see tree,at marsh,see wolf,pick up lumber'
p527
I0
sS'beaver energy high,marsh energy low,has lumber,none tree,see marsh,none wolf,move towards marsh'
p528
F0.0026249999999999997
sS'beaver energy high,marsh energy med,no lumber,see tree,none marsh,see wolf,move towards marsh'
p529
I0
sS'beaver energy zero,marsh energy med,no lumber,none tree,at marsh,see wolf,move towards marsh'
p530
I0
sS'beaver energy low,marsh energy high,no lumber,at tree,see marsh,none wolf,eat'
p531
F0.0525
sS'beaver energy zero,marsh energy high,no lumber,see tree,at marsh,see wolf,move towards tree'
p532
F0.0
sS'beaver energy high,marsh energy med,no lumber,none tree,see marsh,none wolf,eat'
p533
I0
sS'beaver energy zero,marsh energy low,no lumber,see tree,none marsh,none wolf,pick up lumber'
p534
I0
sS'beaver energy zero,marsh energy med,has lumber,see tree,see marsh,none wolf,move towards marsh'
p535
F0.0
sS'beaver energy low,marsh energy high,has lumber,none tree,none marsh,none wolf,drop lumber'
p536
F0.0031499999999999996
sS'beaver energy high,marsh energy med,has lumber,none tree,at marsh,none wolf,move towards tree'
p537
I0
sS'beaver energy med,marsh energy low,has lumber,see tree,at marsh,see wolf,move towards marsh'
p538
I0
sS'beaver energy zero,marsh energy low,has lumber,see tree,none marsh,see wolf,eat'
p539
I0
sS'beaver energy zero,marsh energy low,has lumber,at tree,none marsh,see wolf,pick up lumber'
p540
F0.0
sS'beaver energy med,marsh energy med,no lumber,see tree,none marsh,see wolf,pick up lumber'
p541
I0
sS'beaver energy med,marsh energy med,no lumber,see tree,at marsh,see wolf,move towards tree'
p542
F0.002025
sS'beaver energy med,marsh energy high,has lumber,see tree,none marsh,see wolf,eat'
p543
I0
sS'beaver energy high,marsh energy high,has lumber,see tree,see marsh,see wolf,drop lumber'
p544
F0.00375
sS'beaver energy low,marsh energy low,no lumber,none tree,at marsh,none wolf,pick up lumber'
p545
I0
sS'beaver energy zero,marsh energy low,no lumber,none tree,none marsh,see wolf,eat'
p546
I0
sS'beaver energy med,marsh energy med,no lumber,none tree,none marsh,none wolf,pick up lumber'
p547
I0
sS'beaver energy med,marsh energy high,has lumber,at tree,none marsh,none wolf,pick up lumber'
p548
F0.020999999999999998
sS'beaver energy high,marsh energy high,has lumber,see tree,none marsh,see wolf,move towards marsh'
p549
I0
sS'beaver energy high,marsh energy low,has lumber,none tree,at marsh,none wolf,move towards tree'
p550
I0
sS'beaver energy high,marsh energy med,has lumber,at tree,see marsh,see wolf,pick up lumber'
p551
F0.003125
sS'beaver energy high,marsh energy high,has lumber,none tree,at marsh,see wolf,drop lumber'
p552
F0.001875
sS'beaver energy high,marsh energy low,no lumber,at tree,none marsh,none wolf,move towards marsh'
p553
I0
sS'beaver energy zero,marsh energy med,has lumber,none tree,at marsh,none wolf,drop lumber'
p554
F0.0
sS'beaver energy zero,marsh energy low,has lumber,none tree,see marsh,see wolf,eat'
p555
I0
sS'beaver energy high,marsh energy med,has lumber,none tree,see marsh,none wolf,drop lumber'
p556
F0.013125
sS'beaver energy zero,marsh energy high,no lumber,none tree,at marsh,none wolf,pick up lumber'
p557
I0
sS'beaver energy low,marsh energy med,no lumber,none tree,at marsh,none wolf,pick up lumber'
p558
I0
sS'beaver energy zero,marsh energy high,has lumber,see tree,at marsh,none wolf,move towards marsh'
p559
I0
sS'beaver energy low,marsh energy med,has lumber,see tree,at marsh,none wolf,move towards marsh'
p560
I0
sS'beaver energy zero,marsh energy low,no lumber,at tree,none marsh,none wolf,eat'
p561
F0.0
sS'beaver energy med,marsh energy low,has lumber,see tree,none marsh,none wolf,pick up lumber'
p562
I0
sS'beaver energy high,marsh energy med,has lumber,none tree,none marsh,see wolf,eat'
p563
I0
sS'beaver energy med,marsh energy med,has lumber,see tree,none marsh,see wolf,eat'
p564
I0
sS'beaver energy med,marsh energy low,no lumber,none tree,see marsh,none wolf,pick up lumber'
p565
I0
sS'beaver energy zero,marsh energy med,has lumber,see tree,at marsh,see wolf,drop lumber'
p566
F0.0
sS'beaver energy low,marsh energy med,no lumber,none tree,at marsh,none wolf,move towards marsh'
p567
I0
sS'beaver energy med,marsh energy low,has lumber,see tree,at marsh,see wolf,drop lumber'
p568
F0.000225
sS'beaver energy med,marsh energy low,has lumber,see tree,at marsh,none wolf,move towards marsh'
p569
I0
sS'beaver energy zero,marsh energy low,no lumber,at tree,none marsh,none wolf,drop lumber'
p570
I0
sS'beaver energy low,marsh energy med,has lumber,see tree,see marsh,see wolf,eat'
p571
I0
sS'beaver energy zero,marsh energy high,has lumber,see tree,see marsh,see wolf,eat'
p572
I0
sS'beaver energy high,marsh energy med,no lumber,see tree,see marsh,none wolf,move towards tree'
p573
F0.04725
sS'beaver energy low,marsh energy low,no lumber,none tree,none marsh,see wolf,pick up lumber'
p574
I0
sS'beaver energy high,marsh energy low,has lumber,none tree,none marsh,none wolf,move towards marsh'
p575
I0
sS'beaver energy med,marsh energy med,has lumber,see tree,see marsh,none wolf,pick up lumber'
p576
I0
sS'beaver energy high,marsh energy low,no lumber,see tree,see marsh,see wolf,drop lumber'
p577
I0
sS'beaver energy med,marsh energy med,has lumber,see tree,none marsh,see wolf,pick up lumber'
p578
I0
sS'beaver energy med,marsh energy high,no lumber,at tree,none marsh,none wolf,eat'
p579
F0.041999999999999996
sS'beaver energy med,marsh energy low,no lumber,none tree,see marsh,see wolf,eat'
p580
I0
sS'beaver energy high,marsh energy med,has lumber,none tree,at marsh,none wolf,move towards marsh'
p581
I0
sS'beaver energy high,marsh energy med,no lumber,at tree,none marsh,see wolf,move towards marsh'
p582
I0
sS'beaver energy zero,marsh energy high,no lumber,at tree,none marsh,none wolf,move towards marsh'
p583
I0
sS'beaver energy zero,marsh energy med,has lumber,none tree,see marsh,none wolf,eat'
p584
I0
sS'beaver energy low,marsh energy med,no lumber,at tree,none marsh,none wolf,move towards marsh'
p585
I0
sS'beaver energy med,marsh energy low,has lumber,none tree,see marsh,see wolf,drop lumber'
p586
F0.0001125
sS'beaver energy low,marsh energy high,no lumber,none tree,none marsh,none wolf,pick up lumber'
p587
I0
sS'beaver energy high,marsh energy med,has lumber,at tree,see marsh,see wolf,move towards tree'
p588
I0
sS'beaver energy zero,marsh energy low,no lumber,none tree,see marsh,none wolf,pick up lumber'
p589
I0
sS'beaver energy low,marsh energy med,has lumber,at tree,see marsh,none wolf,move towards tree'
p590
I0
sS'beaver energy med,marsh energy low,no lumber,none tree,at marsh,see wolf,move towards marsh'
p591
I0
sS'beaver energy zero,marsh energy high,has lumber,none tree,none marsh,none wolf,move towards marsh'
p592
I0
sS'beaver energy high,marsh energy high,no lumber,at tree,none marsh,see wolf,eat'
p593
F0.005000000000000001
sS'beaver energy zero,marsh energy high,no lumber,see tree,see marsh,see wolf,eat'
p594
I0
sS'beaver energy low,marsh energy med,no lumber,see tree,see marsh,see wolf,eat'
p595
I0
sS'beaver energy med,marsh energy low,has lumber,see tree,see marsh,none wolf,move towards tree'
p596
F0.00567
sS'beaver energy low,marsh energy high,no lumber,none tree,see marsh,none wolf,move towards marsh'
p597
F0.007875
sS'beaver energy low,marsh energy high,has lumber,see tree,none marsh,see wolf,drop lumber'
p598
F0.00045
sS'beaver energy high,marsh energy med,has lumber,see tree,see marsh,none wolf,move towards marsh'
p599
F0.02625
sS'beaver energy high,marsh energy med,no lumber,none tree,see marsh,none wolf,pick up lumber'
p600
I0
sS'beaver energy low,marsh energy high,has lumber,see tree,none marsh,see wolf,move towards marsh'
p601
I0
sS'beaver energy high,marsh energy med,has lumber,see tree,see marsh,none wolf,drop lumber'
p602
F0.02625
sS'beaver energy high,marsh energy med,has lumber,none tree,see marsh,none wolf,move towards tree'
p603
I0
sS'beaver energy low,marsh energy low,no lumber,at tree,see marsh,none wolf,drop lumber'
p604
I0
sS'beaver energy high,marsh energy high,no lumber,at tree,none marsh,see wolf,drop lumber'
p605
I0
sS'beaver energy med,marsh energy med,has lumber,see tree,at marsh,none wolf,move towards tree'
p606
F0.02835
sS'beaver energy zero,marsh energy low,has lumber,none tree,none marsh,see wolf,move towards tree'
p607
I0
sS'beaver energy high,marsh energy low,has lumber,see tree,see marsh,see wolf,drop lumber'
p608
F0.000375
sS'beaver energy low,marsh energy low,has lumber,none tree,at marsh,none wolf,move towards marsh'
p609
I0
sS'beaver energy low,marsh energy low,no lumber,none tree,see marsh,none wolf,eat'
p610
I0
sS'beaver energy high,marsh energy high,no lumber,see tree,at marsh,see wolf,move towards marsh'
p611
I0
sS'beaver energy med,marsh energy low,has lumber,at tree,see marsh,none wolf,move towards tree'
p612
I0
sS'beaver energy med,marsh energy med,no lumber,see tree,none marsh,see wolf,eat'
p613
I0
sS'beaver energy low,marsh energy high,no lumber,at tree,none marsh,none wolf,eat'
p614
F0.020999999999999998
sS'beaver energy low,marsh energy low,has lumber,none tree,see marsh,see wolf,drop lumber'
p615
F5.625e-05
sS'beaver energy low,marsh energy med,no lumber,none tree,at marsh,see wolf,move towards tree'
p616
I0
sS'beaver energy zero,marsh energy high,no lumber,none tree,at marsh,see wolf,move towards tree'
p617
I0
sS'beaver energy med,marsh energy high,has lumber,none tree,see marsh,none wolf,eat'
p618
I0
sS'beaver energy zero,marsh energy low,no lumber,see tree,see marsh,see wolf,pick up lumber'
p619
I0
sS'beaver energy high,marsh energy high,has lumber,none tree,see marsh,see wolf,eat'
p620
I0
sS'beaver energy high,marsh energy med,has lumber,none tree,see marsh,none wolf,eat'
p621
I0
sS'beaver energy zero,marsh energy high,no lumber,see tree,none marsh,see wolf,pick up lumber'
p622
I0
sS'beaver energy low,marsh energy high,has lumber,none tree,none marsh,see wolf,eat'
p623
I0
sS'beaver energy low,marsh energy med,no lumber,see tree,none marsh,see wolf,pick up lumber'
p624
I0
sS'beaver energy low,marsh energy low,has lumber,none tree,see marsh,none wolf,move towards tree'
p625
I0
sS'beaver energy zero,marsh energy med,has lumber,none tree,see marsh,none wolf,pick up lumber'
p626
I0
sS'beaver energy zero,marsh energy low,no lumber,none tree,none marsh,none wolf,pick up lumber'
p627
I0
sS'beaver energy med,marsh energy med,no lumber,see tree,see marsh,none wolf,pick up lumber'
p628
I0
sS'beaver energy zero,marsh energy high,has lumber,see tree,none marsh,none wolf,drop lumber'
p629
F0.0
sS'beaver energy low,marsh energy med,has lumber,see tree,none marsh,none wolf,drop lumber'
p630
F0.0031499999999999996
sS'beaver energy med,marsh energy low,no lumber,none tree,at marsh,none wolf,move towards tree'
p631
I0
sS'beaver energy zero,marsh energy high,no lumber,at tree,none marsh,none wolf,move towards tree'
p632
I0
sS'beaver energy zero,marsh energy high,has lumber,none tree,none marsh,none wolf,eat'
p633
I0
sS'beaver energy low,marsh energy med,no lumber,at tree,none marsh,none wolf,move towards tree'
p634
I0
sS'beaver energy high,marsh energy high,has lumber,see tree,at marsh,see wolf,pick up lumber'
p635
I0
sS'beaver energy zero,marsh energy low,has lumber,see tree,at marsh,none wolf,pick up lumber'
p636
I0
sS'beaver energy med,marsh energy med,has lumber,see tree,see marsh,see wolf,pick up lumber'
p637
I0
sS'beaver energy zero,marsh energy high,has lumber,none tree,at marsh,none wolf,drop lumber'
p638
F0.0
sS'beaver energy low,marsh energy high,has lumber,none tree,none marsh,none wolf,move towards tree'
p639
I0
sS'beaver energy low,marsh energy low,has lumber,none tree,none marsh,see wolf,drop lumber'
p640
F2.25e-05
sS'beaver energy low,marsh energy med,has lumber,none tree,at marsh,none wolf,drop lumber'
p641
F0.0039375
sS'beaver energy high,marsh energy med,has lumber,none tree,at marsh,none wolf,pick up lumber'
p642
I0
sS'beaver energy high,marsh energy high,has lumber,at tree,none marsh,see wolf,move towards tree'
p643
I0
sS'beaver energy low,marsh energy low,has lumber,none tree,see marsh,none wolf,drop lumber'
p644
F0.0007874999999999999
sS'beaver energy zero,marsh energy low,has lumber,none tree,none marsh,see wolf,drop lumber'
p645
F0.0
sS'beaver energy high,marsh energy low,has lumber,none tree,none marsh,see wolf,drop lumber'
p646
F7.500000000000001e-05
sS'beaver energy zero,marsh energy low,has lumber,see tree,see marsh,none wolf,move towards marsh'
p647
F0.0
sS'beaver energy zero,marsh energy med,no lumber,see tree,none marsh,none wolf,eat'
p648
I0
sS'beaver energy high,marsh energy high,no lumber,see tree,see marsh,see wolf,pick up lumber'
p649
I0
sS'beaver energy high,marsh energy low,has lumber,none tree,see marsh,none wolf,eat'
p650
I0
sS'beaver energy low,marsh energy high,has lumber,see tree,none marsh,none wolf,eat'
p651
I0
sS'beaver energy high,marsh energy high,no lumber,see tree,see marsh,see wolf,move towards tree'
p652
F0.00675
sS'beaver energy low,marsh energy high,no lumber,see tree,at marsh,none wolf,eat'
p653
I0
sS'beaver energy low,marsh energy high,no lumber,see tree,at marsh,see wolf,eat'
p654
I0
sS'beaver energy zero,marsh energy med,no lumber,see tree,see marsh,see wolf,move towards marsh'
p655
F0.0
sS'beaver energy low,marsh energy low,no lumber,see tree,see marsh,see wolf,move towards marsh'
p656
F0.0001125
sS'beaver energy low,marsh energy low,has lumber,see tree,none marsh,see wolf,pick up lumber'
p657
I0
sS'beaver energy low,marsh energy med,no lumber,none tree,none marsh,see wolf,pick up lumber'
p658
I0
sS'beaver energy zero,marsh energy high,no lumber,none tree,none marsh,see wolf,pick up lumber'
p659
I0
sS'beaver energy low,marsh energy med,has lumber,see tree,at marsh,see wolf,drop lumber'
p660
F0.0005625
sS'beaver energy med,marsh energy low,no lumber,none tree,see marsh,see wolf,pick up lumber'
p661
I0
sS'beaver energy zero,marsh energy high,has lumber,see tree,at marsh,see wolf,drop lumber'
p662
F0.0
sS'beaver energy med,marsh energy med,no lumber,see tree,see marsh,see wolf,move towards marsh'
p663
F0.001125
sS'beaver energy high,marsh energy high,no lumber,none tree,see marsh,none wolf,move towards tree'
p664
I0
sS'beaver energy high,marsh energy low,has lumber,see tree,at marsh,none wolf,move towards tree'
p665
F0.00945
sS'beaver energy high,marsh energy high,no lumber,none tree,see marsh,see wolf,move towards marsh'
p666
F0.001875
sS'beaver energy low,marsh energy high,no lumber,at tree,see marsh,see wolf,move towards marsh'
p667
F0.001875
sS'beaver energy med,marsh energy low,has lumber,none tree,see marsh,none wolf,pick up lumber'
p668
I0
sS'beaver energy zero,marsh energy med,no lumber,none tree,at marsh,see wolf,eat'
p669
I0
sS'beaver energy high,marsh energy med,no lumber,see tree,none marsh,see wolf,eat'
p670
I0
sS'beaver energy med,marsh energy med,no lumber,see tree,at marsh,see wolf,eat'
p671
I0
sS'beaver energy low,marsh energy high,has lumber,none tree,see marsh,see wolf,drop lumber'
p672
F0.0005625
sS'beaver energy high,marsh energy low,has lumber,at tree,see marsh,none wolf,drop lumber'
p673
F0.008749999999999999
sS'beaver energy med,marsh energy med,has lumber,see tree,see marsh,see wolf,eat'
p674
I0
sS'beaver energy high,marsh energy med,no lumber,at tree,see marsh,none wolf,eat'
p675
F0.0875
sS'beaver energy zero,marsh energy med,no lumber,none tree,see marsh,see wolf,drop lumber'
p676
I0
sS'beaver energy med,marsh energy high,has lumber,none tree,at marsh,see wolf,drop lumber'
p677
F0.001125
sS'beaver energy med,marsh energy high,no lumber,none tree,at marsh,see wolf,move towards tree'
p678
I0
sS'beaver energy high,marsh energy med,has lumber,at tree,see marsh,none wolf,drop lumber'
p679
F0.04375
sS'beaver energy low,marsh energy low,has lumber,at tree,see marsh,none wolf,eat'
p680
F0.0052499999999999995
sS'beaver energy med,marsh energy high,no lumber,see tree,none marsh,see wolf,pick up lumber'
p681
I0
sS'beaver energy high,marsh energy med,no lumber,none tree,at marsh,none wolf,pick up lumber'
p682
I0
sS'beaver energy med,marsh energy high,no lumber,see tree,see marsh,none wolf,move towards tree'
p683
F0.0567
sS'beaver energy zero,marsh energy low,has lumber,none tree,none marsh,see wolf,pick up lumber'
p684
I0
sS'beaver energy high,marsh energy low,has lumber,see tree,none marsh,none wolf,move towards tree'
p685
F0.00378
sS'beaver energy zero,marsh energy med,has lumber,at tree,see marsh,see wolf,move towards marsh'
p686
F0.0
sS'beaver energy low,marsh energy med,no lumber,none tree,see marsh,none wolf,pick up lumber'
p687
I0
sS'beaver energy zero,marsh energy high,no lumber,none tree,see marsh,none wolf,pick up lumber'
p688
I0
sS'beaver energy low,marsh energy med,has lumber,none tree,see marsh,see wolf,pick up lumber'
p689
I0
sS'beaver energy high,marsh energy med,has lumber,see tree,at marsh,see wolf,move towards marsh'
p690
I0
sS'beaver energy zero,marsh energy high,has lumber,none tree,see marsh,see wolf,pick up lumber'
p691
I0
sS'beaver energy zero,marsh energy low,no lumber,see tree,see marsh,see wolf,move towards marsh'
p692
F0.0
sS'beaver energy med,marsh energy low,has lumber,at tree,none marsh,none wolf,move towards tree'
p693
I0
sS'beaver energy low,marsh energy high,has lumber,none tree,none marsh,none wolf,eat'
p694
I0
sS'beaver energy high,marsh energy med,has lumber,at tree,none marsh,see wolf,move towards marsh'
p695
I0
sS'beaver energy med,marsh energy low,no lumber,at tree,none marsh,none wolf,move towards marsh'
p696
I0
sS'beaver energy med,marsh energy low,has lumber,at tree,none marsh,none wolf,drop lumber'
p697
F0.0021
sS'beaver energy med,marsh energy high,has lumber,see tree,none marsh,none wolf,drop lumber'
p698
F0.012599999999999998
sS'beaver energy high,marsh energy low,no lumber,at tree,none marsh,see wolf,move towards tree'
p699
I0
sS'beaver energy zero,marsh energy high,no lumber,none tree,none marsh,see wolf,move towards tree'
p700
I0
sS'beaver energy low,marsh energy med,no lumber,none tree,none marsh,see wolf,move towards tree'
p701
I0
sS'beaver energy low,marsh energy low,no lumber,see tree,none marsh,see wolf,eat'
p702
I0
sS'beaver energy high,marsh energy low,has lumber,none tree,at marsh,see wolf,eat'
p703
I0
sS'beaver energy zero,marsh energy med,has lumber,see tree,see marsh,none wolf,drop lumber'
p704
F0.0
sS'beaver energy med,marsh energy med,no lumber,none tree,at marsh,none wolf,move towards tree'
p705
I0
sS'beaver energy med,marsh energy low,no lumber,none tree,none marsh,none wolf,move towards tree'
p706
I0
sS'beaver energy low,marsh energy low,no lumber,none tree,see marsh,none wolf,move towards tree'
p707
I0
sS'beaver energy high,marsh energy med,no lumber,at tree,none marsh,none wolf,pick up lumber'
p708
I0
sS'beaver energy med,marsh energy low,no lumber,at tree,see marsh,see wolf,drop lumber'
p709
I0
sS'beaver energy high,marsh energy med,has lumber,none tree,at marsh,see wolf,pick up lumber'
p710
I0
sS'beaver energy zero,marsh energy high,has lumber,see tree,see marsh,see wolf,move towards marsh'
p711
F0.0
sS'beaver energy zero,marsh energy low,no lumber,none tree,at marsh,see wolf,pick up lumber'
p712
I0
sS'beaver energy low,marsh energy med,has lumber,see tree,see marsh,see wolf,move towards marsh'
p713
F0.0005625
sS'beaver energy med,marsh energy low,no lumber,at tree,see marsh,see wolf,move towards marsh'
p714
F0.000375
sS'beaver energy med,marsh energy med,no lumber,see tree,none marsh,see wolf,drop lumber'
p715
I0
sS'beaver energy zero,marsh energy med,no lumber,see tree,none marsh,none wolf,move towards tree'
p716
F0.0
sS'beaver energy high,marsh energy high,has lumber,see tree,see marsh,none wolf,drop lumber'
p717
F0.0525
sS'beaver energy med,marsh energy med,no lumber,none tree,none marsh,none wolf,move towards tree'
p718
I0
sS'beaver energy zero,marsh energy high,no lumber,at tree,see marsh,see wolf,drop lumber'
p719
I0
sS'beaver energy low,marsh energy med,no lumber,at tree,see marsh,see wolf,drop lumber'
p720
I0
sS'beaver energy high,marsh energy low,has lumber,none tree,see marsh,none wolf,move towards tree'
p721
I0
sS'beaver energy low,marsh energy high,no lumber,at tree,none marsh,see wolf,move towards marsh'
p722
I0
sS'beaver energy high,marsh energy low,no lumber,see tree,see marsh,see wolf,move towards marsh'
p723
F0.000375
sS'beaver energy zero,marsh energy low,has lumber,none tree,at marsh,none wolf,drop lumber'
p724
F0.0
sS'beaver energy high,marsh energy med,no lumber,none tree,at marsh,none wolf,move towards tree'
p725
I0
sS'beaver energy high,marsh energy high,has lumber,see tree,at marsh,none wolf,move towards marsh'
p726
I0
sS'beaver energy med,marsh energy low,no lumber,none tree,see marsh,see wolf,move towards marsh'
p727
F0.0001125
sS'beaver energy high,marsh energy high,has lumber,none tree,at marsh,see wolf,move towards marsh'
p728
I0
sS'beaver energy zero,marsh energy low,no lumber,none tree,at marsh,see wolf,move towards tree'
p729
I0
sS'beaver energy high,marsh energy high,has lumber,see tree,at marsh,see wolf,eat'
p730
I0
sS'beaver energy zero,marsh energy low,has lumber,at tree,none marsh,see wolf,eat'
p731
F0.0
sS'beaver energy zero,marsh energy med,no lumber,at tree,see marsh,none wolf,move towards tree'
p732
I0
sS'beaver energy low,marsh energy low,has lumber,see tree,none marsh,none wolf,move towards tree'
p733
F0.0011339999999999998
sS'beaver energy med,marsh energy high,no lumber,see tree,at marsh,see wolf,move towards tree'
p734
F0.00405
sS'beaver energy low,marsh energy high,no lumber,see tree,see marsh,see wolf,drop lumber'
p735
I0
sS'beaver energy high,marsh energy low,no lumber,see tree,at marsh,see wolf,eat'
p736
I0
sS'beaver energy low,marsh energy high,no lumber,see tree,none marsh,none wolf,drop lumber'
p737
I0
sS'beaver energy med,marsh energy med,no lumber,see tree,at marsh,none wolf,pick up lumber'
p738
I0
sS'beaver energy high,marsh energy high,no lumber,see tree,none marsh,none wolf,move towards tree'
p739
F0.0378
sS'beaver energy high,marsh energy high,has lumber,see tree,see marsh,see wolf,pick up lumber'
p740
I0
sS'beaver energy med,marsh energy med,has lumber,none tree,none marsh,none wolf,pick up lumber'
p741
I0
sS'beaver energy zero,marsh energy med,has lumber,at tree,see marsh,none wolf,move towards marsh'
p742
F0.0
sS'beaver energy med,marsh energy med,has lumber,none tree,at marsh,none wolf,pick up lumber'
p743
I0
sS'beaver energy low,marsh energy med,no lumber,see tree,see marsh,none wolf,move towards marsh'
p744
F0.007875
sS'beaver energy med,marsh energy med,has lumber,none tree,at marsh,see wolf,move towards tree'
p745
I0
sS'beaver energy med,marsh energy med,has lumber,none tree,see marsh,see wolf,drop lumber'
p746
F0.0005625
sS'beaver energy low,marsh energy low,has lumber,none tree,see marsh,none wolf,pick up lumber'
p747
I0
sS'beaver energy high,marsh energy low,has lumber,none tree,at marsh,see wolf,pick up lumber'
p748
I0
sS'beaver energy zero,marsh energy high,no lumber,see tree,at marsh,none wolf,drop lumber'
p749
I0
sS'beaver energy high,marsh energy med,no lumber,none tree,see marsh,see wolf,eat'
p750
I0
sS'beaver energy low,marsh energy low,no lumber,see tree,at marsh,see wolf,pick up lumber'
p751
I0
sS'beaver energy med,marsh energy high,has lumber,none tree,at marsh,see wolf,move towards marsh'
p752
I0
sS'beaver energy low,marsh energy med,has lumber,at tree,see marsh,see wolf,pick up lumber'
p753
F0.0009375
sS'beaver energy high,marsh energy low,no lumber,at tree,see marsh,none wolf,move towards tree'
p754
I0
sS'beaver energy zero,marsh energy high,has lumber,at tree,see marsh,see wolf,pick up lumber'
p755
F0.0
sS'beaver energy med,marsh energy med,has lumber,see tree,at marsh,see wolf,pick up lumber'
p756
I0
sS'beaver energy low,marsh energy med,no lumber,at tree,see marsh,none wolf,drop lumber'
p757
I0
sS'beaver energy med,marsh energy med,no lumber,none tree,at marsh,see wolf,move towards marsh'
p758
I0
sS'beaver energy zero,marsh energy high,no lumber,at tree,see marsh,none wolf,drop lumber'
p759
I0
sS'beaver energy low,marsh energy high,has lumber,see tree,at marsh,none wolf,drop lumber'
p760
F0.01575
sS'beaver energy high,marsh energy med,has lumber,at tree,none marsh,none wolf,eat'
p761
F0.034999999999999996
sS'beaver energy med,marsh energy low,has lumber,see tree,none marsh,see wolf,drop lumber'
p762
F9e-05
sS'beaver energy zero,marsh energy low,has lumber,none tree,at marsh,see wolf,move towards marsh'
p763
I0
sS'beaver energy high,marsh energy low,no lumber,none tree,at marsh,none wolf,move towards tree'
p764
I0
sS'beaver energy high,marsh energy med,has lumber,none tree,none marsh,see wolf,move towards marsh'
p765
I0
sS'beaver energy high,marsh energy high,has lumber,see tree,see marsh,see wolf,move towards marsh'
p766
F0.00375
sS'beaver energy med,marsh energy high,no lumber,none tree,none marsh,see wolf,move towards tree'
p767
I0
sS'beaver energy low,marsh energy high,has lumber,see tree,at marsh,see wolf,drop lumber'
p768
F0.001125
sS'beaver energy med,marsh energy med,no lumber,see tree,none marsh,none wolf,pick up lumber'
p769
I0
sS'beaver energy med,marsh energy med,no lumber,see tree,see marsh,none wolf,drop lumber'
p770
I0
sS'beaver energy high,marsh energy high,has lumber,none tree,at marsh,none wolf,drop lumber'
p771
F0.02625
sS'beaver energy zero,marsh energy low,no lumber,at tree,see marsh,see wolf,eat'
p772
F0.0
sS'beaver energy med,marsh energy high,has lumber,see tree,none marsh,none wolf,move towards tree'
p773
F0.02268
sS'beaver energy med,marsh energy low,no lumber,see tree,at marsh,none wolf,drop lumber'
p774
I0
sS'beaver energy low,marsh energy low,no lumber,none tree,see marsh,see wolf,eat'
p775
I0
sS'beaver energy med,marsh energy low,no lumber,see tree,see marsh,none wolf,drop lumber'
p776
I0
sS'beaver energy low,marsh energy med,has lumber,at tree,none marsh,see wolf,eat'
p777
F0.00075
sS'beaver energy zero,marsh energy high,has lumber,at tree,none marsh,see wolf,eat'
p778
F0.0
sS'beaver energy high,marsh energy high,has lumber,see tree,see marsh,none wolf,move towards marsh'
p779
F0.0525
sS'beaver energy low,marsh energy med,no lumber,see tree,at marsh,none wolf,pick up lumber'
p780
I0
sS'beaver energy med,marsh energy med,has lumber,see tree,at marsh,see wolf,move towards tree'
p781
F0.002025
sS'beaver energy zero,marsh energy low,has lumber,see tree,none marsh,none wolf,move towards tree'
p782
F0.0
sS'beaver energy high,marsh energy high,has lumber,at tree,none marsh,none wolf,eat'
p783
F0.06999999999999999
sS'beaver energy zero,marsh energy high,no lumber,see tree,at marsh,none wolf,pick up lumber'
p784
I0
sS'beaver energy med,marsh energy med,no lumber,see tree,at marsh,see wolf,pick up lumber'
p785
I0
sS'beaver energy med,marsh energy med,no lumber,at tree,none marsh,see wolf,pick up lumber'
p786
I0
sS'beaver energy zero,marsh energy low,has lumber,see tree,at marsh,see wolf,drop lumber'
p787
F0.0
sS'beaver energy high,marsh energy med,has lumber,none tree,see marsh,see wolf,move towards tree'
p788
I0
sS'beaver energy high,marsh energy med,no lumber,see tree,see marsh,none wolf,drop lumber'
p789
I0
sS'beaver energy zero,marsh energy high,has lumber,at tree,see marsh,see wolf,eat'
p790
F0.0
sS'beaver energy high,marsh energy low,has lumber,none tree,none marsh,none wolf,pick up lumber'
p791
I0
sS'beaver energy high,marsh energy high,no lumber,see tree,none marsh,none wolf,pick up lumber'
p792
I0
sS'beaver energy high,marsh energy low,has lumber,none tree,at marsh,see wolf,move towards tree'
p793
I0
sS'beaver energy low,marsh energy high,no lumber,see tree,none marsh,none wolf,eat'
p794
I0
sS'beaver energy zero,marsh energy high,no lumber,see tree,see marsh,none wolf,move towards marsh'
p795
F0.0
sS'beaver energy med,marsh energy high,has lumber,see tree,none marsh,none wolf,eat'
p796
I0
sS'beaver energy high,marsh energy high,has lumber,at tree,see marsh,see wolf,drop lumber'
p797
F0.00625
sS'beaver energy high,marsh energy med,has lumber,see tree,at marsh,none wolf,move towards tree'
p798
F0.04725
sS'beaver energy high,marsh energy low,no lumber,none tree,none marsh,none wolf,eat'
p799
I0
sS'beaver energy zero,marsh energy high,no lumber,none tree,see marsh,none wolf,move towards tree'
p800
I0
sS'beaver energy low,marsh energy med,no lumber,none tree,see marsh,none wolf,move towards tree'
p801
I0
sS'beaver energy low,marsh energy med,has lumber,at tree,see marsh,none wolf,eat'
p802
F0.02625
sS'beaver energy low,marsh energy high,no lumber,at tree,see marsh,see wolf,eat'
p803
F0.00375
sS'beaver energy zero,marsh energy high,has lumber,at tree,see marsh,none wolf,eat'
p804
F0.0
sS'beaver energy zero,marsh energy low,no lumber,see tree,none marsh,see wolf,move towards tree'
p805
F0.0
sS'beaver energy med,marsh energy med,no lumber,see tree,none marsh,none wolf,eat'
p806
I0
sS'beaver energy high,marsh energy low,has lumber,see tree,none marsh,see wolf,drop lumber'
p807
F0.00015000000000000001
sS'beaver energy med,marsh energy high,no lumber,see tree,see marsh,see wolf,drop lumber'
p808
I0
sS'beaver energy med,marsh energy high,no lumber,none tree,at marsh,see wolf,drop lumber'
p809
I0
sS'beaver energy high,marsh energy med,no lumber,see tree,at marsh,see wolf,eat'
p810
I0
sS'beaver energy med,marsh energy high,no lumber,at tree,see marsh,none wolf,move towards marsh'
p811
F0.0525
sS'beaver energy med,marsh energy high,no lumber,see tree,see marsh,see wolf,move towards marsh'
p812
F0.00225
sS'beaver energy high,marsh energy low,has lumber,see tree,none marsh,see wolf,move towards marsh'
p813
I0
sS'beaver energy med,marsh energy low,has lumber,none tree,at marsh,none wolf,eat'
p814
I0
sS'beaver energy med,marsh energy low,has lumber,none tree,at marsh,none wolf,move towards tree'
p815
I0
sS'beaver energy med,marsh energy low,has lumber,at tree,none marsh,none wolf,move towards marsh'
p816
I0
sS'beaver energy low,marsh energy high,has lumber,none tree,see marsh,none wolf,eat'
p817
I0
sS'beaver energy zero,marsh energy low,no lumber,see tree,none marsh,see wolf,eat'
p818
I0
sS'beaver energy zero,marsh energy high,has lumber,see tree,none marsh,none wolf,pick up lumber'
p819
I0
sS'beaver energy low,marsh energy med,has lumber,see tree,none marsh,none wolf,pick up lumber'
p820
I0
sS'beaver energy high,marsh energy med,has lumber,at tree,none marsh,see wolf,move towards tree'
p821
I0
sS'beaver energy zero,marsh energy med,has lumber,see tree,see marsh,none wolf,pick up lumber'
p822
I0
sS'beaver energy zero,marsh energy high,no lumber,see tree,at marsh,none wolf,move towards marsh'
p823
I0
sS'beaver energy low,marsh energy med,no lumber,see tree,at marsh,none wolf,move towards marsh'
p824
I0
sS'beaver energy zero,marsh energy low,no lumber,see tree,none marsh,none wolf,move towards tree'
p825
F0.0
sS'beaver energy low,marsh energy high,has lumber,none tree,none marsh,see wolf,drop lumber'
p826
F0.000225
sS'beaver energy low,marsh energy med,has lumber,none tree,none marsh,none wolf,drop lumber'
p827
F0.0015749999999999998
sS'beaver energy high,marsh energy high,no lumber,see tree,none marsh,see wolf,pick up lumber'
p828
I0
sS'beaver energy low,marsh energy med,has lumber,none tree,see marsh,see wolf,drop lumber'
p829
F0.00028125
sS'beaver energy low,marsh energy med,has lumber,see tree,see marsh,none wolf,eat'
p830
I0
sS'beaver energy zero,marsh energy high,has lumber,none tree,see marsh,see wolf,drop lumber'
p831
F0.0
sS'beaver energy low,marsh energy high,no lumber,at tree,none marsh,none wolf,move towards tree'
p832
I0
sS'beaver energy low,marsh energy low,has lumber,none tree,none marsh,see wolf,eat'
p833
I0
sS'beaver energy med,marsh energy med,has lumber,none tree,see marsh,see wolf,move towards marsh'
p834
F0.0005625
sS'beaver energy zero,marsh energy med,has lumber,see tree,at marsh,none wolf,drop lumber'
p835
F0.0
sS'beaver energy zero,marsh energy high,has lumber,none tree,see marsh,none wolf,move towards marsh'
p836
F0.0
sS'beaver energy low,marsh energy high,has lumber,at tree,see marsh,none wolf,move towards marsh'
p837
F0.02625
sS'beaver energy low,marsh energy low,no lumber,at tree,none marsh,see wolf,move towards tree'
p838
I0
sS'beaver energy med,marsh energy med,no lumber,none tree,at marsh,see wolf,eat'
p839
I0
sS'beaver energy zero,marsh energy high,no lumber,see tree,none marsh,see wolf,drop lumber'
p840
I0
sS'beaver energy low,marsh energy med,no lumber,see tree,none marsh,see wolf,drop lumber'
p841
I0
sS'beaver energy high,marsh energy low,has lumber,at tree,none marsh,see wolf,pick up lumber'
p842
F0.00025000000000000006
sS'beaver energy high,marsh energy med,no lumber,at tree,none marsh,none wolf,move towards marsh'
p843
I0
sS'beaver energy high,marsh energy med,has lumber,none tree,see marsh,see wolf,move towards marsh'
p844
F0.0009375
sS'beaver energy low,marsh energy low,has lumber,at tree,see marsh,see wolf,move towards marsh'
p845
F0.0001875
sS'beaver energy med,marsh energy low,has lumber,none tree,at marsh,none wolf,drop lumber'
p846
F0.0015749999999999998
sS'beaver energy low,marsh energy med,has lumber,none tree,at marsh,none wolf,move towards tree'
p847
I0
sS'beaver energy low,marsh energy med,no lumber,see tree,none marsh,see wolf,move towards tree'
p848
F0.000405
sS'beaver energy zero,marsh energy high,has lumber,none tree,at marsh,none wolf,move towards tree'
p849
I0
sS'beaver energy med,marsh energy high,no lumber,none tree,see marsh,see wolf,eat'
p850
I0
sS'beaver energy high,marsh energy high,no lumber,see tree,see marsh,none wolf,pick up lumber'
p851
I0
sS'beaver energy low,marsh energy med,has lumber,see tree,at marsh,none wolf,drop lumber'
p852
F0.007875
sS'beaver energy zero,marsh energy high,has lumber,see tree,at marsh,none wolf,drop lumber'
p853
F0.0
sS'beaver energy low,marsh energy med,no lumber,see tree,at marsh,none wolf,drop lumber'
p854
I0
sS'beaver energy med,marsh energy low,no lumber,see tree,see marsh,none wolf,move towards marsh'
p855
F0.0031499999999999996
sS'beaver energy med,marsh energy high,has lumber,none tree,at marsh,see wolf,move towards tree'
p856
I0
sS'beaver energy zero,marsh energy high,has lumber,none tree,at marsh,none wolf,pick up lumber'
p857
I0
sS'beaver energy zero,marsh energy med,no lumber,none tree,none marsh,none wolf,eat'
p858
I0
sS'beaver energy low,marsh energy low,has lumber,at tree,none marsh,none wolf,eat'
p859
F0.0021
sS'beaver energy high,marsh energy med,has lumber,see tree,none marsh,see wolf,drop lumber'
p860
F0.00075
sS'beaver energy low,marsh energy high,no lumber,none tree,none marsh,none wolf,drop lumber'
p861
I0
sS'beaver energy low,marsh energy high,has lumber,none tree,at marsh,see wolf,drop lumber'
p862
F0.0005625
sS'beaver energy low,marsh energy high,no lumber,none tree,at marsh,none wolf,move towards tree'
p863
I0
sS'beaver energy low,marsh energy low,no lumber,at tree,none marsh,see wolf,pick up lumber'
p864
I0
sS'beaver energy low,marsh energy high,no lumber,see tree,at marsh,none wolf,drop lumber'
p865
I0
sS'beaver energy low,marsh energy low,no lumber,at tree,see marsh,see wolf,eat'
p866
F0.000375
sS'beaver energy low,marsh energy high,has lumber,at tree,none marsh,see wolf,drop lumber'
p867
F0.00075
sS'beaver energy low,marsh energy high,no lumber,none tree,at marsh,none wolf,drop lumber'
p868
I0
sS'beaver energy med,marsh energy med,no lumber,at tree,none marsh,none wolf,drop lumber'
p869
I0
sS'beaver energy zero,marsh energy low,no lumber,none tree,none marsh,none wolf,move towards marsh'
p870
I0
sS'beaver energy zero,marsh energy med,no lumber,at tree,see marsh,see wolf,pick up lumber'
p871
I0
sS'beaver energy high,marsh energy low,has lumber,at tree,none marsh,none wolf,move towards marsh'
p872
I0
sS'beaver energy zero,marsh energy low,no lumber,see tree,at marsh,see wolf,drop lumber'
p873
I0
sS'beaver energy low,marsh energy low,has lumber,see tree,none marsh,none wolf,move towards marsh'
p874
I0
sS'beaver energy zero,marsh energy low,has lumber,see tree,see marsh,see wolf,move towards tree'
p875
F0.0
sS'beaver energy low,marsh energy low,has lumber,see tree,see marsh,none wolf,move towards marsh'
p876
F0.0015749999999999998
sS'beaver energy high,marsh energy med,no lumber,see tree,see marsh,see wolf,move towards marsh'
p877
F0.001875
sS'beaver energy med,marsh energy med,has lumber,at tree,none marsh,none wolf,pick up lumber'
p878
F0.010499999999999999
sS'beaver energy zero,marsh energy low,no lumber,see tree,at marsh,see wolf,move towards marsh'
p879
I0
sS'beaver energy low,marsh energy low,has lumber,none tree,see marsh,see wolf,move towards marsh'
p880
F5.625e-05
sS'beaver energy zero,marsh energy low,no lumber,at tree,see marsh,none wolf,pick up lumber'
p881
I0
sS'beaver energy med,marsh energy med,has lumber,see tree,at marsh,none wolf,move towards marsh'
p882
I0
sS'beaver energy med,marsh energy low,has lumber,see tree,see marsh,see wolf,move towards marsh'
p883
F0.000225
sS'beaver energy med,marsh energy low,no lumber,none tree,at marsh,see wolf,move towards tree'
p884
I0
sS'beaver energy low,marsh energy med,no lumber,at tree,none marsh,none wolf,drop lumber'
p885
I0
sS'beaver energy zero,marsh energy high,no lumber,at tree,none marsh,none wolf,drop lumber'
p886
I0
sS'beaver energy low,marsh energy high,no lumber,none tree,see marsh,none wolf,move towards tree'
p887
I0
sS'beaver energy zero,marsh energy med,has lumber,at tree,none marsh,none wolf,eat'
p888
F0.0
sS'beaver energy med,marsh energy low,has lumber,see tree,at marsh,none wolf,eat'
p889
I0
sS'beaver energy high,marsh energy med,has lumber,none tree,none marsh,see wolf,pick up lumber'
p890
I0
sS'beaver energy med,marsh energy med,has lumber,see tree,none marsh,none wolf,pick up lumber'
p891
I0
sS'beaver energy high,marsh energy med,no lumber,see tree,at marsh,none wolf,eat'
p892
I0
sS'beaver energy low,marsh energy low,has lumber,none tree,see marsh,none wolf,eat'
p893
I0
sS'beaver energy high,marsh energy high,has lumber,none tree,none marsh,none wolf,move towards marsh'
p894
I0
sS'beaver energy low,marsh energy low,has lumber,none tree,at marsh,see wolf,pick up lumber'
p895
I0
sS'beaver energy med,marsh energy high,no lumber,none tree,none marsh,see wolf,drop lumber'
p896
I0
sS'beaver energy med,marsh energy med,no lumber,see tree,at marsh,none wolf,move towards tree'
p897
F0.02835
sS'beaver energy med,marsh energy med,has lumber,see tree,at marsh,none wolf,eat'
p898
I0
sS'beaver energy high,marsh energy high,has lumber,none tree,see marsh,see wolf,drop lumber'
p899
F0.001875
sS'beaver energy low,marsh energy high,has lumber,see tree,at marsh,none wolf,move towards tree'
p900
F0.02835
sS'beaver energy zero,marsh energy low,no lumber,none tree,see marsh,see wolf,drop lumber'
p901
I0
sS'beaver energy med,marsh energy low,no lumber,none tree,none marsh,see wolf,drop lumber'
p902
I0
sS'beaver energy med,marsh energy low,no lumber,at tree,see marsh,none wolf,drop lumber'
p903
I0
sS'beaver energy med,marsh energy high,no lumber,at tree,see marsh,none wolf,eat'
p904
F0.105
sS'beaver energy high,marsh energy high,has lumber,at tree,none marsh,see wolf,pick up lumber'
p905
F0.0025000000000000005
sS'beaver energy high,marsh energy high,no lumber,see tree,see marsh,none wolf,drop lumber'
p906
I0
sS'beaver energy zero,marsh energy low,no lumber,at tree,see marsh,see wolf,move towards tree'
p907
I0
sS'beaver energy low,marsh energy low,no lumber,none tree,none marsh,none wolf,drop lumber'
p908
I0
sS'beaver energy low,marsh energy low,has lumber,see tree,at marsh,see wolf,eat'
p909
I0
sS'beaver energy low,marsh energy med,no lumber,none tree,see marsh,see wolf,eat'
p910
I0
sS'beaver energy high,marsh energy high,no lumber,at tree,see marsh,none wolf,move towards marsh'
p911
F0.0875
sS'beaver energy low,marsh energy high,has lumber,see tree,see marsh,see wolf,move towards tree'
p912
F0.002025
sS'beaver energy med,marsh energy low,no lumber,at tree,none marsh,see wolf,move towards marsh'
p913
I0
sS'beaver energy high,marsh energy high,no lumber,none tree,none marsh,see wolf,move towards marsh'
p914
I0
sS'beaver energy med,marsh energy low,no lumber,none tree,at marsh,see wolf,eat'
p915
I0
sS'beaver energy med,marsh energy med,no lumber,at tree,see marsh,see wolf,drop lumber'
p916
I0
sS'beaver energy med,marsh energy high,no lumber,at tree,none marsh,none wolf,pick up lumber'
p917
I0
sS'beaver energy med,marsh energy med,has lumber,at tree,see marsh,none wolf,move towards tree'
p918
I0
sS'beaver energy low,marsh energy high,has lumber,none tree,at marsh,see wolf,eat'
p919
I0
sS'beaver energy low,marsh energy med,no lumber,none tree,see marsh,none wolf,move towards marsh'
p920
F0.0039375
sS'beaver energy zero,marsh energy high,no lumber,none tree,see marsh,none wolf,move towards marsh'
p921
F0.0
sS'beaver energy high,marsh energy low,no lumber,see tree,none marsh,none wolf,move towards marsh'
p922
I0
sS'beaver energy low,marsh energy med,has lumber,at tree,none marsh,none wolf,drop lumber'
p923
F0.0052499999999999995
sS'beaver energy med,marsh energy high,has lumber,none tree,see marsh,none wolf,drop lumber'
p924
F0.01575
sS'beaver energy low,marsh energy low,has lumber,none tree,at marsh,see wolf,move towards marsh'
p925
I0
sS'beaver energy zero,marsh energy low,has lumber,none tree,none marsh,none wolf,move towards marsh'
p926
I0
sS'beaver energy low,marsh energy med,no lumber,see tree,none marsh,none wolf,eat'
p927
I0
sS'beaver energy low,marsh energy high,no lumber,see tree,none marsh,see wolf,eat'
p928
I0
sS'beaver energy high,marsh energy high,no lumber,see tree,see marsh,none wolf,move towards marsh'
p929
F0.0525
sS'beaver energy zero,marsh energy high,no lumber,see tree,none marsh,none wolf,eat'
p930
I0
sS'beaver energy med,marsh energy high,no lumber,none tree,at marsh,none wolf,eat'
p931
I0
sS'beaver energy med,marsh energy med,has lumber,at tree,none marsh,see wolf,drop lumber'
p932
F0.00075
sS'beaver energy high,marsh energy high,has lumber,none tree,see marsh,none wolf,pick up lumber'
p933
I0
sS'beaver energy zero,marsh energy high,no lumber,see tree,none marsh,see wolf,move towards marsh'
p934
I0
sS'beaver energy low,marsh energy med,no lumber,see tree,none marsh,see wolf,move towards marsh'
p935
I0
sS'beaver energy med,marsh energy high,has lumber,none tree,see marsh,see wolf,eat'
p936
I0
sS'beaver energy med,marsh energy med,no lumber,see tree,at marsh,none wolf,drop lumber'
p937
I0
sS'beaver energy med,marsh energy med,has lumber,none tree,none marsh,see wolf,pick up lumber'
p938
I0
sS'beaver energy zero,marsh energy low,no lumber,see tree,none marsh,see wolf,drop lumber'
p939
I0
sS'beaver energy zero,marsh energy high,no lumber,see tree,none marsh,none wolf,move towards tree'
p940
F0.0
sS'beaver energy zero,marsh energy low,no lumber,see tree,see marsh,none wolf,drop lumber'
p941
I0
sS'beaver energy high,marsh energy low,has lumber,at tree,none marsh,none wolf,drop lumber'
p942
F0.0035000000000000005
sS'beaver energy med,marsh energy low,has lumber,none tree,see marsh,see wolf,move towards tree'
p943
I0
sS'beaver energy zero,marsh energy high,no lumber,none tree,none marsh,see wolf,drop lumber'
p944
I0
sS'beaver energy med,marsh energy high,no lumber,none tree,see marsh,none wolf,drop lumber'
p945
I0
sS'beaver energy low,marsh energy med,no lumber,none tree,none marsh,see wolf,drop lumber'
p946
I0
sS'beaver energy med,marsh energy med,no lumber,none tree,none marsh,see wolf,move towards marsh'
p947
I0
sS'beaver energy zero,marsh energy med,no lumber,see tree,at marsh,see wolf,move towards tree'
p948
F0.0
sS'beaver energy low,marsh energy high,no lumber,none tree,see marsh,see wolf,drop lumber'
p949
I0
sS'beaver energy low,marsh energy med,no lumber,see tree,see marsh,none wolf,eat'
p950
I0
sS'beaver energy zero,marsh energy high,no lumber,see tree,see marsh,none wolf,eat'
p951
I0
sS'beaver energy zero,marsh energy med,no lumber,at tree,see marsh,none wolf,move towards marsh'
p952
F0.0
sS'beaver energy low,marsh energy low,no lumber,none tree,see marsh,see wolf,drop lumber'
p953
I0
sS'beaver energy low,marsh energy low,no lumber,see tree,see marsh,none wolf,move towards marsh'
p954
F0.0015749999999999998
sS'beaver energy high,marsh energy high,no lumber,none tree,none marsh,see wolf,pick up lumber'
p955
I0
sS'beaver energy zero,marsh energy low,has lumber,see tree,none marsh,see wolf,drop lumber'
p956
F0.0
sS'beaver energy zero,marsh energy high,has lumber,at tree,none marsh,none wolf,move towards marsh'
p957
I0
sS'beaver energy med,marsh energy med,no lumber,see tree,see marsh,none wolf,eat'
p958
I0
sS'beaver energy med,marsh energy med,has lumber,at tree,see marsh,none wolf,eat'
p959
F0.0525
sS'beaver energy high,marsh energy high,has lumber,see tree,see marsh,see wolf,eat'
p960
I0
sS'beaver energy zero,marsh energy low,has lumber,at tree,none marsh,none wolf,eat'
p961
F0.0
sS'beaver energy med,marsh energy med,no lumber,see tree,none marsh,see wolf,move towards marsh'
p962
I0
sS'beaver energy low,marsh energy med,has lumber,none tree,none marsh,none wolf,pick up lumber'
p963
I0
sS'beaver energy low,marsh energy med,has lumber,at tree,none marsh,none wolf,move towards marsh'
p964
I0
sS'beaver energy med,marsh energy high,has lumber,none tree,see marsh,see wolf,pick up lumber'
p965
I0
sS'beaver energy zero,marsh energy high,has lumber,none tree,none marsh,none wolf,pick up lumber'
p966
I0
sS'beaver energy low,marsh energy low,no lumber,none tree,at marsh,none wolf,drop lumber'
p967
I0
sS'beaver energy zero,marsh energy low,no lumber,at tree,none marsh,none wolf,move towards marsh'
p968
I0
sS'beaver energy low,marsh energy med,has lumber,at tree,see marsh,see wolf,move towards marsh'
p969
F0.0009375
sS'beaver energy zero,marsh energy low,no lumber,see tree,none marsh,none wolf,drop lumber'
p970
I0
sS'beaver energy zero,marsh energy high,has lumber,at tree,see marsh,see wolf,move towards marsh'
p971
F0.0
sS'beaver energy zero,marsh energy low,has lumber,at tree,none marsh,see wolf,move towards tree'
p972
I0
sS'beaver energy zero,marsh energy low,no lumber,see tree,see marsh,none wolf,move towards marsh'
p973
F0.0
sS'beaver energy high,marsh energy low,no lumber,at tree,see marsh,see wolf,drop lumber'
p974
I0
sS'beaver energy zero,marsh energy med,has lumber,at tree,see marsh,see wolf,move towards tree'
p975
I0
sS'beaver energy zero,marsh energy low,no lumber,see tree,at marsh,none wolf,pick up lumber'
p976
I0
sS'beaver energy high,marsh energy high,no lumber,none tree,none marsh,see wolf,eat'
p977
I0
sS'beaver energy zero,marsh energy med,no lumber,see tree,see marsh,none wolf,move towards marsh'
p978
F0.0
sS'beaver energy high,marsh energy high,no lumber,see tree,at marsh,see wolf,drop lumber'
p979
I0
sS'beaver energy low,marsh energy high,has lumber,at tree,none marsh,none wolf,eat'
p980
F0.020999999999999998
sS'beaver energy med,marsh energy high,has lumber,see tree,none marsh,none wolf,move towards marsh'
p981
I0
sS'beaver energy med,marsh energy high,has lumber,see tree,see marsh,see wolf,eat'
p982
I0
sS'beaver energy low,marsh energy high,no lumber,see tree,none marsh,see wolf,drop lumber'
p983
I0
sS'beaver energy high,marsh energy med,has lumber,see tree,at marsh,see wolf,drop lumber'
p984
F0.001875
sS'beaver energy med,marsh energy high,no lumber,none tree,see marsh,none wolf,eat'
p985
I0
sS'beaver energy high,marsh energy low,no lumber,at tree,see marsh,see wolf,move towards marsh'
p986
F0.0006250000000000001
sS'beaver energy zero,marsh energy low,no lumber,none tree,at marsh,none wolf,move towards marsh'
p987
I0
sS'beaver energy med,marsh energy med,no lumber,see tree,see marsh,see wolf,move towards tree'
p988
F0.002025
sS'beaver energy zero,marsh energy high,no lumber,none tree,at marsh,see wolf,pick up lumber'
p989
I0
sS'beaver energy high,marsh energy med,has lumber,at tree,none marsh,none wolf,move towards tree'
p990
I0
sS'beaver energy zero,marsh energy med,no lumber,at tree,see marsh,none wolf,drop lumber'
p991
I0
sS'beaver energy med,marsh energy med,has lumber,none tree,see marsh,none wolf,move towards marsh'
p992
F0.007875
sS'beaver energy low,marsh energy low,no lumber,see tree,see marsh,see wolf,pick up lumber'
p993
I0
sS'beaver energy low,marsh energy med,no lumber,none tree,at marsh,see wolf,pick up lumber'
p994
I0
sS'beaver energy zero,marsh energy high,has lumber,none tree,none marsh,see wolf,move towards marsh'
p995
I0
sS'beaver energy med,marsh energy high,no lumber,none tree,none marsh,none wolf,move towards marsh'
p996
I0
sS'beaver energy med,marsh energy med,no lumber,none tree,see marsh,none wolf,move towards tree'
p997
I0
sS'beaver energy high,marsh energy high,no lumber,at tree,none marsh,none wolf,move towards tree'
p998
I0
sS'beaver energy low,marsh energy med,has lumber,none tree,at marsh,none wolf,eat'
p999
I0
sS'beaver energy zero,marsh energy low,no lumber,at tree,see marsh,see wolf,move towards marsh'
p1000
F0.0
sS'beaver energy zero,marsh energy low,has lumber,at tree,see marsh,see wolf,move towards marsh'
p1001
F0.0
sS'beaver energy high,marsh energy high,has lumber,see tree,none marsh,see wolf,drop lumber'
p1002
F0.0015
sS'beaver energy med,marsh energy low,no lumber,none tree,none marsh,see wolf,eat'
p1003
I0
sS'beaver energy low,marsh energy med,has lumber,none tree,none marsh,see wolf,move towards marsh'
p1004
I0
sS'beaver energy zero,marsh energy med,has lumber,at tree,none marsh,see wolf,move towards tree'
p1005
I0
sS'beaver energy high,marsh energy med,no lumber,none tree,at marsh,none wolf,eat'
p1006
I0
sS'beaver energy high,marsh energy low,no lumber,none tree,at marsh,see wolf,eat'
p1007
I0
sS'beaver energy zero,marsh energy low,has lumber,see tree,at marsh,none wolf,move towards tree'
p1008
F0.0
sS'beaver energy zero,marsh energy med,has lumber,see tree,see marsh,see wolf,move towards marsh'
p1009
F0.0
sS'beaver energy high,marsh energy med,no lumber,none tree,none marsh,see wolf,pick up lumber'
p1010
I0
sS'beaver energy zero,marsh energy high,no lumber,none tree,see marsh,none wolf,drop lumber'
p1011
I0
sS'beaver energy med,marsh energy high,no lumber,see tree,see marsh,none wolf,drop lumber'
p1012
I0
sS'beaver energy high,marsh energy high,has lumber,see tree,none marsh,none wolf,pick up lumber'
p1013
I0
sS'beaver energy med,marsh energy med,no lumber,at tree,none marsh,see wolf,move towards tree'
p1014
I0
sS'beaver energy med,marsh energy med,has lumber,at tree,see marsh,none wolf,pick up lumber'
p1015
F0.02625
sS'beaver energy zero,marsh energy high,has lumber,at tree,see marsh,none wolf,move towards tree'
p1016
I0
sS'beaver energy low,marsh energy med,no lumber,none tree,see marsh,none wolf,drop lumber'
p1017
I0
sS'beaver energy high,marsh energy low,has lumber,see tree,none marsh,none wolf,drop lumber'
p1018
F0.0021
sS'beaver energy med,marsh energy high,no lumber,none tree,at marsh,none wolf,drop lumber'
p1019
I0
sS'beaver energy high,marsh energy low,has lumber,none tree,see marsh,none wolf,pick up lumber'
p1020
I0
sS'beaver energy zero,marsh energy low,no lumber,see tree,none marsh,none wolf,eat'
p1021
I0
sS'beaver energy high,marsh energy med,no lumber,none tree,none marsh,see wolf,eat'
p1022
I0
sS'beaver energy med,marsh energy high,no lumber,see tree,at marsh,none wolf,drop lumber'
p1023
I0
sS'beaver energy low,marsh energy low,no lumber,see tree,at marsh,none wolf,pick up lumber'
p1024
I0
sS'beaver energy med,marsh energy low,no lumber,at tree,none marsh,see wolf,pick up lumber'
p1025
I0
sS'beaver energy med,marsh energy low,has lumber,at tree,see marsh,see wolf,drop lumber'
p1026
F0.000375
sS'beaver energy low,marsh energy low,no lumber,none tree,at marsh,none wolf,eat'
p1027
I0
sS'beaver energy low,marsh energy high,no lumber,at tree,see marsh,none wolf,move towards tree'
p1028
I0
sS'beaver energy low,marsh energy low,has lumber,none tree,at marsh,see wolf,drop lumber'
p1029
F5.625e-05
sS'beaver energy zero,marsh energy med,has lumber,see tree,none marsh,none wolf,eat'
p1030
I0
sS'beaver energy med,marsh energy high,has lumber,at tree,none marsh,none wolf,drop lumber'
p1031
F0.020999999999999998
sS'beaver energy zero,marsh energy low,has lumber,none tree,see marsh,none wolf,pick up lumber'
p1032
I0
sS'beaver energy low,marsh energy high,has lumber,see tree,none marsh,none wolf,move towards tree'
p1033
F0.01134
sS'beaver energy high,marsh energy low,has lumber,see tree,see marsh,none wolf,move towards marsh'
p1034
F0.0052499999999999995
sS'beaver energy zero,marsh energy med,has lumber,none tree,see marsh,see wolf,pick up lumber'
p1035
I0
sS'beaver energy high,marsh energy med,has lumber,at tree,see marsh,see wolf,move towards marsh'
p1036
F0.003125
sS'beaver energy med,marsh energy high,has lumber,at tree,see marsh,see wolf,drop lumber'
p1037
F0.00375
sS'beaver energy high,marsh energy med,no lumber,at tree,none marsh,see wolf,eat'
p1038
F0.0025000000000000005
sS'beaver energy low,marsh energy high,has lumber,none tree,at marsh,see wolf,move towards marsh'
p1039
I0
sS'beaver energy med,marsh energy low,has lumber,none tree,none marsh,none wolf,pick up lumber'
p1040
I0
sS'beaver energy high,marsh energy low,has lumber,see tree,at marsh,none wolf,move towards marsh'
p1041
I0
sS'beaver energy low,marsh energy med,has lumber,none tree,at marsh,none wolf,move towards marsh'
p1042
I0
sS'beaver energy zero,marsh energy high,has lumber,none tree,at marsh,none wolf,move towards marsh'
p1043
I0
sS'beaver energy med,marsh energy med,has lumber,see tree,none marsh,none wolf,move towards tree'
p1044
F0.01134
sS'beaver energy zero,marsh energy low,has lumber,none tree,none marsh,see wolf,eat'
p1045
I0
sS'beaver energy low,marsh energy low,has lumber,see tree,see marsh,none wolf,move towards tree'
p1046
F0.002835
sS'beaver energy med,marsh energy high,no lumber,at tree,see marsh,see wolf,move towards tree'
p1047
I0
sS'beaver energy zero,marsh energy high,no lumber,at tree,see marsh,see wolf,move towards marsh'
p1048
F0.0
sS'beaver energy high,marsh energy med,has lumber,see tree,see marsh,see wolf,eat'
p1049
I0
sS'beaver energy low,marsh energy med,no lumber,none tree,none marsh,none wolf,move towards marsh'
p1050
I0
sS'beaver energy zero,marsh energy low,no lumber,none tree,none marsh,none wolf,move towards tree'
p1051
I0
sS'beaver energy med,marsh energy med,has lumber,at tree,none marsh,see wolf,move towards tree'
p1052
I0
sS'beaver energy zero,marsh energy med,has lumber,see tree,see marsh,none wolf,eat'
p1053
I0
sS'beaver energy high,marsh energy med,no lumber,at tree,see marsh,see wolf,eat'
p1054
F0.00625
sS'beaver energy zero,marsh energy high,no lumber,none tree,none marsh,none wolf,move towards marsh'
p1055
I0
sS'beaver energy low,marsh energy med,has lumber,at tree,none marsh,none wolf,move towards tree'
p1056
I0
sS'beaver energy high,marsh energy high,has lumber,none tree,at marsh,see wolf,eat'
p1057
I0
sS'beaver energy zero,marsh energy high,has lumber,at tree,none marsh,none wolf,move towards tree'
p1058
I0
sS'beaver energy high,marsh energy high,has lumber,at tree,see marsh,none wolf,move towards tree'
p1059
I0
sS'beaver energy zero,marsh energy low,no lumber,none tree,at marsh,see wolf,move towards marsh'
p1060
I0
sS'beaver energy zero,marsh energy high,no lumber,at tree,none marsh,see wolf,pick up lumber'
p1061
I0
sS'beaver energy zero,marsh energy med,has lumber,none tree,at marsh,none wolf,eat'
p1062
I0
sS'beaver energy low,marsh energy high,no lumber,none tree,see marsh,see wolf,eat'
p1063
I0
sS'beaver energy low,marsh energy med,no lumber,at tree,none marsh,see wolf,pick up lumber'
p1064
I0
sS'beaver energy high,marsh energy high,has lumber,see tree,none marsh,none wolf,drop lumber'
p1065
F0.020999999999999998
sS'beaver energy med,marsh energy med,has lumber,none tree,see marsh,none wolf,drop lumber'
p1066
F0.007875
sS'beaver energy low,marsh energy high,no lumber,none tree,at marsh,see wolf,drop lumber'
p1067
I0
sS'beaver energy high,marsh energy high,no lumber,see tree,at marsh,none wolf,eat'
p1068
I0
sS'beaver energy med,marsh energy med,no lumber,see tree,see marsh,none wolf,move towards tree'
p1069
F0.02835
sS'beaver energy zero,marsh energy low,has lumber,see tree,at marsh,see wolf,move towards marsh'
p1070
I0
sS'beaver energy high,marsh energy med,no lumber,none tree,at marsh,none wolf,move towards marsh'
p1071
I0
sS'beaver energy low,marsh energy high,no lumber,none tree,at marsh,see wolf,move towards tree'
p1072
I0
sS'beaver energy low,marsh energy med,has lumber,see tree,none marsh,see wolf,drop lumber'
p1073
F0.000225
sS'beaver energy med,marsh energy med,has lumber,see tree,at marsh,none wolf,pick up lumber'
p1074
I0
sS'beaver energy zero,marsh energy high,has lumber,see tree,none marsh,see wolf,drop lumber'
p1075
F0.0
sS'beaver energy low,marsh energy med,no lumber,see tree,at marsh,see wolf,drop lumber'
p1076
I0
sS'beaver energy zero,marsh energy high,no lumber,see tree,at marsh,see wolf,drop lumber'
p1077
I0
sS'beaver energy low,marsh energy high,has lumber,none tree,none marsh,see wolf,move towards tree'
p1078
I0
sS'beaver energy high,marsh energy high,has lumber,at tree,none marsh,none wolf,pick up lumber'
p1079
F0.034999999999999996
sS'beaver energy low,marsh energy low,has lumber,see tree,see marsh,see wolf,eat'
p1080
I0
sS'beaver energy zero,marsh energy med,has lumber,none tree,see marsh,none wolf,move towards tree'
p1081
I0
sS'beaver energy zero,marsh energy low,no lumber,see tree,at marsh,see wolf,move towards tree'
p1082
F0.0
sS'beaver energy med,marsh energy high,has lumber,none tree,none marsh,see wolf,move towards tree'
p1083
I0
sS'beaver energy low,marsh energy low,no lumber,at tree,see marsh,see wolf,pick up lumber'
p1084
I0
sS'beaver energy zero,marsh energy low,no lumber,at tree,none marsh,see wolf,move towards tree'
p1085
I0
sS'beaver energy zero,marsh energy low,no lumber,at tree,see marsh,none wolf,move towards marsh'
p1086
F0.0
sS'beaver energy zero,marsh energy high,has lumber,none tree,see marsh,see wolf,move towards tree'
p1087
I0
sS'beaver energy low,marsh energy med,has lumber,none tree,see marsh,see wolf,move towards tree'
p1088
I0
sS'beaver energy high,marsh energy med,has lumber,none tree,none marsh,none wolf,move towards marsh'
p1089
I0
sS'beaver energy high,marsh energy med,no lumber,none tree,see marsh,none wolf,drop lumber'
p1090
I0
sS'beaver energy med,marsh energy med,no lumber,see tree,at marsh,see wolf,drop lumber'
p1091
I0
sS'beaver energy high,marsh energy low,no lumber,at tree,see marsh,none wolf,pick up lumber'
p1092
I0
sS'beaver energy zero,marsh energy med,has lumber,see tree,none marsh,none wolf,pick up lumber'
p1093
I0
sS'beaver energy high,marsh energy low,no lumber,see tree,at marsh,see wolf,move towards marsh'
p1094
I0
sS'beaver energy high,marsh energy med,has lumber,see tree,none marsh,see wolf,pick up lumber'
p1095
I0
sS'beaver energy med,marsh energy med,no lumber,none tree,see marsh,none wolf,move towards marsh'
p1096
F0.007875
sS'beaver energy med,marsh energy high,has lumber,none tree,none marsh,see wolf,drop lumber'
p1097
F0.00045
sS'beaver energy med,marsh energy med,has lumber,see tree,none marsh,see wolf,drop lumber'
p1098
F0.00045
sS'beaver energy med,marsh energy med,has lumber,at tree,see marsh,see wolf,move towards tree'
p1099
I0
sS'beaver energy zero,marsh energy med,has lumber,see tree,at marsh,see wolf,eat'
p1100
I0
sS'beaver energy med,marsh energy med,has lumber,none tree,none marsh,see wolf,eat'
p1101
I0
sS'beaver energy high,marsh energy med,no lumber,see tree,see marsh,see wolf,eat'
p1102
I0
sS'beaver energy med,marsh energy low,no lumber,see tree,none marsh,see wolf,eat'
p1103
I0
sS'beaver energy low,marsh energy high,no lumber,none tree,see marsh,none wolf,eat'
p1104
I0
sS'beaver energy zero,marsh energy med,has lumber,see tree,at marsh,see wolf,move towards tree'
p1105
F0.0
sS'beaver energy high,marsh energy med,no lumber,see tree,at marsh,none wolf,move towards tree'
p1106
F0.04725
sS'beaver energy high,marsh energy med,has lumber,see tree,see marsh,see wolf,move towards marsh'
p1107
F0.001875
sS'beaver energy low,marsh energy low,has lumber,at tree,see marsh,see wolf,eat'
p1108
F0.000375
sS'beaver energy med,marsh energy low,has lumber,none tree,at marsh,see wolf,move towards marsh'
p1109
I0
sS'beaver energy med,marsh energy high,has lumber,see tree,at marsh,see wolf,eat'
p1110
I0
sS'beaver energy zero,marsh energy med,no lumber,none tree,at marsh,none wolf,drop lumber'
p1111
I0
sS'beaver energy med,marsh energy med,no lumber,see tree,none marsh,see wolf,move towards tree'
p1112
F0.00081
sS'beaver energy low,marsh energy low,no lumber,none tree,none marsh,see wolf,eat'
p1113
I0
sS'beaver energy med,marsh energy med,no lumber,at tree,none marsh,none wolf,pick up lumber'
p1114
I0
sS'beaver energy low,marsh energy high,has lumber,see tree,none marsh,see wolf,eat'
p1115
I0
sS'beaver energy zero,marsh energy high,no lumber,none tree,see marsh,none wolf,eat'
p1116
I0
sS'beaver energy high,marsh energy low,no lumber,see tree,at marsh,none wolf,drop lumber'
p1117
I0
sS'beaver energy high,marsh energy low,has lumber,at tree,none marsh,see wolf,move towards tree'
p1118
I0
sS'beaver energy zero,marsh energy high,no lumber,at tree,see marsh,see wolf,eat'
p1119
F0.0
sS'beaver energy low,marsh energy med,no lumber,none tree,at marsh,none wolf,drop lumber'
p1120
I0
sS'beaver energy low,marsh energy med,no lumber,at tree,see marsh,see wolf,eat'
p1121
F0.001875
sS'beaver energy high,marsh energy low,no lumber,none tree,see marsh,none wolf,pick up lumber'
p1122
I0
sS'beaver energy high,marsh energy high,no lumber,none tree,at marsh,none wolf,drop lumber'
p1123
I0
sS'beaver energy low,marsh energy med,no lumber,none tree,see marsh,none wolf,eat'
p1124
I0
sS'beaver energy zero,marsh energy med,has lumber,none tree,none marsh,see wolf,eat'
p1125
I0
sS'beaver energy high,marsh energy med,no lumber,none tree,none marsh,none wolf,pick up lumber'
p1126
I0
sS'beaver energy zero,marsh energy high,no lumber,none tree,none marsh,see wolf,eat'
p1127
I0
sS'beaver energy low,marsh energy high,has lumber,none tree,at marsh,see wolf,pick up lumber'
p1128
I0
sS'beaver energy low,marsh energy low,no lumber,see tree,none marsh,see wolf,drop lumber'
p1129
I0
sS'beaver energy zero,marsh energy high,no lumber,at tree,none marsh,see wolf,eat'
p1130
F0.0
sS'beaver energy low,marsh energy med,no lumber,at tree,none marsh,see wolf,eat'
p1131
F0.00075
sS'beaver energy high,marsh energy high,has lumber,none tree,none marsh,none wolf,pick up lumber'
p1132
I0
sS'beaver energy low,marsh energy med,no lumber,none tree,none marsh,see wolf,eat'
p1133
I0
sS'beaver energy zero,marsh energy low,no lumber,see tree,at marsh,none wolf,move towards tree'
p1134
F0.0
sS'beaver energy zero,marsh energy low,no lumber,none tree,none marsh,none wolf,drop lumber'
p1135
I0
sS'beaver energy high,marsh energy low,no lumber,see tree,see marsh,none wolf,move towards tree'
p1136
F0.00945
sS'beaver energy zero,marsh energy low,no lumber,at tree,none marsh,see wolf,eat'
p1137
F0.0
sS'beaver energy low,marsh energy high,no lumber,see tree,at marsh,see wolf,pick up lumber'
p1138
I0
sS'beaver energy zero,marsh energy med,has lumber,see tree,none marsh,see wolf,move towards marsh'
p1139
I0
sS'beaver energy zero,marsh energy low,has lumber,none tree,see marsh,see wolf,drop lumber'
p1140
F0.0
sS'beaver energy high,marsh energy low,no lumber,none tree,at marsh,see wolf,pick up lumber'
p1141
I0
sS'beaver energy high,marsh energy low,no lumber,see tree,none marsh,see wolf,move towards marsh'
p1142
I0
sS'beaver energy zero,marsh energy low,has lumber,see tree,see marsh,see wolf,drop lumber'
p1143
F0.0
sS'beaver energy low,marsh energy high,has lumber,see tree,see marsh,see wolf,eat'
p1144
I0
sS'beaver energy low,marsh energy high,has lumber,none tree,see marsh,see wolf,move towards tree'
p1145
I0
sS'beaver energy med,marsh energy low,has lumber,at tree,see marsh,none wolf,drop lumber'
p1146
F0.0052499999999999995
sS'beaver energy high,marsh energy low,no lumber,see tree,none marsh,see wolf,eat'
p1147
I0
sS'beaver energy high,marsh energy low,has lumber,none tree,at marsh,none wolf,eat'
p1148
I0
sS'beaver energy low,marsh energy low,has lumber,at tree,see marsh,see wolf,move towards tree'
p1149
I0
sS'beaver energy low,marsh energy med,has lumber,none tree,see marsh,none wolf,move towards tree'
p1150
I0
sS'beaver energy med,marsh energy low,has lumber,none tree,at marsh,see wolf,drop lumber'
p1151
F0.0001125
sS'beaver energy med,marsh energy med,no lumber,at tree,none marsh,see wolf,move towards marsh'
p1152
I0
sS'beaver energy zero,marsh energy high,has lumber,none tree,see marsh,none wolf,move towards tree'
p1153
I0
sS'beaver energy zero,marsh energy med,has lumber,none tree,at marsh,see wolf,move towards tree'
p1154
I0
sS'beaver energy med,marsh energy low,no lumber,see tree,at marsh,see wolf,drop lumber'
p1155
I0
sS'beaver energy zero,marsh energy low,no lumber,at tree,see marsh,none wolf,eat'
p1156
F0.0
sS'beaver energy low,marsh energy high,has lumber,none tree,none marsh,see wolf,pick up lumber'
p1157
I0
sS'beaver energy low,marsh energy high,no lumber,see tree,see marsh,none wolf,eat'
p1158
I0
sS'beaver energy high,marsh energy med,no lumber,see tree,none marsh,none wolf,drop lumber'
p1159
I0
sS'beaver energy zero,marsh energy low,has lumber,at tree,see marsh,see wolf,drop lumber'
p1160
F0.0
sS'beaver energy med,marsh energy med,no lumber,none tree,at marsh,none wolf,eat'
p1161
I0
sS'beaver energy high,marsh energy med,no lumber,at tree,see marsh,see wolf,drop lumber'
p1162
I0
sS'beaver energy low,marsh energy med,has lumber,see tree,see marsh,see wolf,move towards tree'
p1163
F0.0010125
sS'beaver energy high,marsh energy low,no lumber,see tree,at marsh,see wolf,drop lumber'
p1164
I0
sS'beaver energy zero,marsh energy low,no lumber,see tree,see marsh,none wolf,pick up lumber'
p1165
I0
sS'beaver energy med,marsh energy high,no lumber,none tree,see marsh,see wolf,drop lumber'
p1166
I0
sS'beaver energy high,marsh energy high,has lumber,none tree,at marsh,none wolf,eat'
p1167
I0
sS'beaver energy zero,marsh energy med,has lumber,see tree,see marsh,see wolf,pick up lumber'
p1168
I0
sS'beaver energy high,marsh energy med,no lumber,none tree,at marsh,see wolf,pick up lumber'
p1169
I0
sS'beaver energy low,marsh energy high,no lumber,see tree,see marsh,none wolf,move towards tree'
p1170
F0.02835
sS'beaver energy zero,marsh energy med,no lumber,see tree,none marsh,none wolf,move towards marsh'
p1171
I0
sS'beaver energy high,marsh energy high,has lumber,at tree,none marsh,see wolf,eat'
p1172
F0.005000000000000001
sS'beaver energy zero,marsh energy med,no lumber,at tree,none marsh,none wolf,move towards tree'
p1173
I0
sS'beaver energy low,marsh energy med,no lumber,see tree,at marsh,see wolf,move towards marsh'
p1174
I0
sS'beaver energy high,marsh energy low,no lumber,see tree,none marsh,see wolf,move towards tree'
p1175
F0.00027000000000000006
sS'beaver energy low,marsh energy low,has lumber,none tree,none marsh,none wolf,pick up lumber'
p1176
I0
sS'beaver energy zero,marsh energy med,no lumber,none tree,see marsh,none wolf,eat'
p1177
I0
sS'beaver energy zero,marsh energy high,no lumber,see tree,at marsh,see wolf,move towards marsh'
p1178
I0
sS'beaver energy med,marsh energy med,has lumber,see tree,at marsh,none wolf,drop lumber'
p1179
F0.01575
sS'beaver energy zero,marsh energy med,no lumber,none tree,see marsh,see wolf,move towards marsh'
p1180
F0.0
sS'beaver energy zero,marsh energy high,no lumber,at tree,see marsh,none wolf,move towards marsh'
p1181
F0.0
sS'beaver energy high,marsh energy med,no lumber,see tree,none marsh,none wolf,move towards tree'
p1182
F0.0189
sS'beaver energy zero,marsh energy med,no lumber,none tree,at marsh,none wolf,move towards tree'
p1183
I0
sS'beaver energy med,marsh energy low,has lumber,see tree,at marsh,none wolf,pick up lumber'
p1184
I0
sS'beaver energy zero,marsh energy med,no lumber,none tree,none marsh,none wolf,move towards tree'
p1185
I0
sS'beaver energy med,marsh energy high,has lumber,see tree,see marsh,none wolf,eat'
p1186
I0
sS'beaver energy high,marsh energy low,has lumber,none tree,see marsh,see wolf,eat'
p1187
I0
sS'beaver energy high,marsh energy high,no lumber,at tree,none marsh,see wolf,move towards tree'
p1188
I0
sS'beaver energy med,marsh energy med,has lumber,see tree,at marsh,see wolf,drop lumber'
p1189
F0.001125
sS'beaver energy med,marsh energy high,no lumber,none tree,see marsh,none wolf,move towards tree'
p1190
I0
sS'beaver energy zero,marsh energy med,no lumber,at tree,none marsh,see wolf,move towards tree'
p1191
I0
sS'beaver energy low,marsh energy low,has lumber,see tree,at marsh,none wolf,pick up lumber'
p1192
I0
sS'beaver energy high,marsh energy low,has lumber,none tree,see marsh,see wolf,pick up lumber'
p1193
I0
sS'beaver energy zero,marsh energy med,has lumber,see tree,none marsh,see wolf,eat'
p1194
I0
sS'beaver energy high,marsh energy low,no lumber,see tree,see marsh,see wolf,pick up lumber'
p1195
I0
sS'beaver energy zero,marsh energy low,no lumber,see tree,see marsh,none wolf,eat'
p1196
I0
sS'beaver energy low,marsh energy low,has lumber,see tree,see marsh,see wolf,drop lumber'
p1197
F0.0001125
sS'beaver energy high,marsh energy low,no lumber,none tree,none marsh,none wolf,pick up lumber'
p1198
I0
sS'beaver energy zero,marsh energy high,no lumber,none tree,at marsh,none wolf,drop lumber'
p1199
I0
sS'beaver energy med,marsh energy low,no lumber,see tree,none marsh,none wolf,pick up lumber'
p1200
I0
sS'beaver energy high,marsh energy high,no lumber,at tree,none marsh,none wolf,move towards marsh'
p1201
I0
sS'beaver energy low,marsh energy med,no lumber,see tree,see marsh,see wolf,move towards marsh'
p1202
F0.0005625
sS'beaver energy med,marsh energy med,has lumber,none tree,none marsh,none wolf,eat'
p1203
I0
sS'beaver energy zero,marsh energy high,no lumber,see tree,see marsh,see wolf,move towards marsh'
p1204
F0.0
sS'beaver energy med,marsh energy low,no lumber,at tree,see marsh,none wolf,move towards marsh'
p1205
F0.0052499999999999995
sS'beaver energy high,marsh energy med,no lumber,see tree,see marsh,see wolf,drop lumber'
p1206
I0
sS'beaver energy low,marsh energy med,has lumber,see tree,none marsh,none wolf,eat'
p1207
I0
sS'beaver energy med,marsh energy low,no lumber,see tree,at marsh,see wolf,eat'
p1208
I0
sS'beaver energy zero,marsh energy high,has lumber,see tree,none marsh,none wolf,eat'
p1209
I0
sS'beaver energy high,marsh energy med,no lumber,at tree,see marsh,see wolf,move towards marsh'
p1210
F0.003125
sS'beaver energy high,marsh energy high,no lumber,at tree,see marsh,see wolf,move towards marsh'
p1211
F0.00625
sS'beaver energy med,marsh energy low,no lumber,none tree,none marsh,none wolf,eat'
p1212
I0
sS'beaver energy high,marsh energy low,no lumber,at tree,none marsh,see wolf,move towards marsh'
p1213
I0
sS'beaver energy zero,marsh energy med,no lumber,at tree,none marsh,none wolf,move towards marsh'
p1214
I0
sS'beaver energy high,marsh energy low,has lumber,see tree,see marsh,see wolf,eat'
p1215
I0
sS'beaver energy med,marsh energy low,has lumber,at tree,see marsh,none wolf,pick up lumber'
p1216
F0.0052499999999999995
sS'beaver energy low,marsh energy low,no lumber,see tree,none marsh,none wolf,move towards tree'
p1217
F0.0011339999999999998
sS'beaver energy zero,marsh energy med,no lumber,at tree,see marsh,see wolf,move towards tree'
p1218
I0
sS'beaver energy high,marsh energy high,has lumber,none tree,at marsh,none wolf,move towards marsh'
p1219
I0
sS'beaver energy zero,marsh energy low,has lumber,none tree,at marsh,none wolf,eat'
p1220
I0
sS'beaver energy low,marsh energy high,has lumber,see tree,none marsh,see wolf,move towards tree'
p1221
F0.00081
sS'beaver energy zero,marsh energy med,has lumber,at tree,see marsh,see wolf,eat'
p1222
F0.0
sS'beaver energy med,marsh energy low,has lumber,at tree,none marsh,see wolf,move towards marsh'
p1223
I0
sS'beaver energy med,marsh energy med,no lumber,see tree,at marsh,none wolf,eat'
p1224
I0
sS'beaver energy zero,marsh energy med,no lumber,at tree,see marsh,see wolf,drop lumber'
p1225
I0
sS'beaver energy zero,marsh energy med,has lumber,none tree,none marsh,see wolf,move towards tree'
p1226
I0
sS'beaver energy high,marsh energy high,no lumber,at tree,see marsh,see wolf,pick up lumber'
p1227
I0
sS'beaver energy med,marsh energy high,has lumber,see tree,at marsh,see wolf,move towards marsh'
p1228
I0
sS'beaver energy high,marsh energy low,no lumber,none tree,at marsh,see wolf,move towards marsh'
p1229
I0
sS'beaver energy zero,marsh energy med,has lumber,at tree,none marsh,none wolf,drop lumber'
p1230
F0.0
sS'beaver energy zero,marsh energy med,has lumber,at tree,see marsh,see wolf,drop lumber'
p1231
F0.0
sS'beaver energy zero,marsh energy med,no lumber,at tree,none marsh,see wolf,drop lumber'
p1232
I0
sS'beaver energy high,marsh energy med,has lumber,none tree,none marsh,none wolf,eat'
p1233
I0
sS'beaver energy med,marsh energy med,has lumber,at tree,see marsh,see wolf,move towards marsh'
p1234
F0.001875
sS'beaver energy low,marsh energy low,no lumber,at tree,see marsh,none wolf,move towards tree'
p1235
I0
sS'beaver energy zero,marsh energy low,no lumber,none tree,at marsh,none wolf,drop lumber'
p1236
I0
sS'beaver energy zero,marsh energy low,no lumber,none tree,at marsh,none wolf,move towards tree'
p1237
I0
sS'beaver energy zero,marsh energy low,has lumber,none tree,see marsh,none wolf,move towards marsh'
p1238
F0.0
sS'beaver energy med,marsh energy high,no lumber,see tree,see marsh,none wolf,eat'
p1239
I0
sS'beaver energy high,marsh energy high,has lumber,see tree,see marsh,none wolf,eat'
p1240
I0
sS'beaver energy zero,marsh energy med,has lumber,at tree,see marsh,none wolf,drop lumber'
p1241
F0.0
sS'beaver energy high,marsh energy low,has lumber,see tree,none marsh,none wolf,eat'
p1242
I0
sS'beaver energy low,marsh energy low,has lumber,see tree,see marsh,none wolf,pick up lumber'
p1243
I0
sS'beaver energy zero,marsh energy high,no lumber,see tree,see marsh,none wolf,drop lumber'
p1244
I0
sS'beaver energy low,marsh energy med,no lumber,see tree,see marsh,none wolf,drop lumber'
p1245
I0
sS'beaver energy med,marsh energy med,has lumber,at tree,none marsh,none wolf,drop lumber'
p1246
F0.010499999999999999
sS'beaver energy high,marsh energy low,no lumber,see tree,none marsh,see wolf,drop lumber'
p1247
I0
sS'beaver energy zero,marsh energy high,has lumber,see tree,see marsh,none wolf,move towards tree'
p1248
F0.0
sS'beaver energy high,marsh energy low,no lumber,none tree,none marsh,none wolf,move towards tree'
p1249
I0
sS'beaver energy low,marsh energy med,no lumber,see tree,see marsh,see wolf,move towards tree'
p1250
F0.0010125
sS'beaver energy zero,marsh energy high,no lumber,see tree,see marsh,see wolf,move towards tree'
p1251
F0.0
sS'beaver energy low,marsh energy high,has lumber,see tree,at marsh,see wolf,move towards marsh'
p1252
I0
sS'beaver energy med,marsh energy low,has lumber,see tree,at marsh,none wolf,drop lumber'
p1253
F0.0031499999999999996
sS'beaver energy low,marsh energy med,has lumber,at tree,none marsh,see wolf,drop lumber'
p1254
F0.000375
sS'beaver energy med,marsh energy low,has lumber,at tree,see marsh,see wolf,move towards marsh'
p1255
F0.000375
sS'beaver energy high,marsh energy high,no lumber,at tree,none marsh,none wolf,eat'
p1256
F0.06999999999999999
sS'beaver energy med,marsh energy med,has lumber,none tree,at marsh,see wolf,move towards marsh'
p1257
I0
sS'beaver energy med,marsh energy high,no lumber,none tree,none marsh,see wolf,pick up lumber'
p1258
I0
sS'beaver energy med,marsh energy med,has lumber,see tree,see marsh,none wolf,move towards tree'
p1259
F0.02835
sS'beaver energy low,marsh energy high,has lumber,see tree,see marsh,see wolf,pick up lumber'
p1260
I0
sS'beaver energy high,marsh energy high,no lumber,see tree,at marsh,see wolf,pick up lumber'
p1261
I0
sS'beaver energy med,marsh energy low,no lumber,none tree,see marsh,none wolf,eat'
p1262
I0
sS'beaver energy med,marsh energy high,has lumber,see tree,none marsh,see wolf,move towards tree'
p1263
F0.00162
sS'beaver energy zero,marsh energy med,has lumber,see tree,at marsh,see wolf,pick up lumber'
p1264
I0
sS'beaver energy zero,marsh energy low,no lumber,at tree,none marsh,none wolf,pick up lumber'
p1265
I0
sS'beaver energy high,marsh energy med,has lumber,none tree,none marsh,none wolf,move towards tree'
p1266
I0
sS'beaver energy zero,marsh energy low,no lumber,see tree,see marsh,see wolf,eat'
p1267
I0
sS'beaver energy high,marsh energy low,has lumber,at tree,see marsh,none wolf,move towards tree'
p1268
I0
sS'beaver energy high,marsh energy high,has lumber,at tree,see marsh,see wolf,move towards marsh'
p1269
F0.00625
sS'beaver energy high,marsh energy med,has lumber,at tree,none marsh,none wolf,drop lumber'
p1270
F0.017499999999999998
sS'beaver energy med,marsh energy low,has lumber,see tree,see marsh,see wolf,move towards tree'
p1271
F0.000405
sS'beaver energy med,marsh energy low,no lumber,none tree,none marsh,see wolf,pick up lumber'
p1272
I0
sS'beaver energy med,marsh energy high,has lumber,at tree,see marsh,none wolf,eat'
p1273
F0.105
sS'beaver energy high,marsh energy med,no lumber,none tree,none marsh,none wolf,move towards tree'
p1274
I0
sS'beaver energy low,marsh energy high,has lumber,see tree,at marsh,none wolf,pick up lumber'
p1275
I0
sS'beaver energy zero,marsh energy med,has lumber,none tree,none marsh,none wolf,move towards tree'
p1276
I0
sS'beaver energy high,marsh energy low,has lumber,none tree,none marsh,see wolf,eat'
p1277
I0
sS'beaver energy zero,marsh energy med,no lumber,see tree,see marsh,none wolf,eat'
p1278
I0
sS'beaver energy low,marsh energy low,has lumber,at tree,see marsh,none wolf,move towards marsh'
p1279
F0.0026249999999999997
sS'beaver energy high,marsh energy low,no lumber,none tree,see marsh,see wolf,pick up lumber'
p1280
I0
sS'beaver energy high,marsh energy low,has lumber,at tree,see marsh,see wolf,move towards marsh'
p1281
F0.0006250000000000001
sS'beaver energy zero,marsh energy med,has lumber,at tree,none marsh,see wolf,eat'
p1282
F0.0
sS'beaver energy low,marsh energy high,no lumber,at tree,see marsh,see wolf,move towards tree'
p1283
I0
sS'beaver energy high,marsh energy high,no lumber,none tree,none marsh,none wolf,eat'
p1284
I0
sS'beaver energy zero,marsh energy high,has lumber,see tree,see marsh,none wolf,eat'
p1285
I0
sS'beaver energy high,marsh energy low,no lumber,see tree,see marsh,none wolf,drop lumber'
p1286
I0
sS'beaver energy high,marsh energy med,has lumber,see tree,at marsh,none wolf,pick up lumber'
p1287
I0
sS'beaver energy low,marsh energy high,has lumber,see tree,at marsh,see wolf,pick up lumber'
p1288
I0
sS'beaver energy zero,marsh energy high,has lumber,none tree,at marsh,see wolf,pick up lumber'
p1289
I0
sS'beaver energy zero,marsh energy med,has lumber,none tree,none marsh,none wolf,drop lumber'
p1290
F0.0
sS'beaver energy high,marsh energy med,no lumber,at tree,none marsh,none wolf,drop lumber'
p1291
I0
sS'beaver energy zero,marsh energy med,no lumber,see tree,none marsh,see wolf,drop lumber'
p1292
I0
sS'beaver energy low,marsh energy high,has lumber,none tree,at marsh,none wolf,pick up lumber'
p1293
I0
sS'beaver energy high,marsh energy med,has lumber,none tree,at marsh,none wolf,drop lumber'
p1294
F0.013125
sS'beaver energy med,marsh energy low,has lumber,none tree,see marsh,none wolf,move towards marsh'
p1295
F0.0015749999999999998
sS'beaver energy med,marsh energy low,no lumber,see tree,see marsh,see wolf,eat'
p1296
I0
sS'beaver energy low,marsh energy low,has lumber,see tree,at marsh,see wolf,drop lumber'
p1297
F0.0001125
sS'beaver energy high,marsh energy high,no lumber,none tree,none marsh,none wolf,drop lumber'
p1298
I0
sS'beaver energy zero,marsh energy low,no lumber,none tree,see marsh,see wolf,move towards tree'
p1299
I0
sS'beaver energy low,marsh energy low,no lumber,none tree,none marsh,none wolf,move towards tree'
p1300
I0
sS'beaver energy zero,marsh energy high,has lumber,none tree,none marsh,none wolf,drop lumber'
p1301
F0.0
sS'beaver energy med,marsh energy med,no lumber,none tree,none marsh,none wolf,move towards marsh'
p1302
I0
sS'beaver energy zero,marsh energy high,has lumber,see tree,none marsh,see wolf,move towards tree'
p1303
F0.0
sS'beaver energy low,marsh energy med,has lumber,see tree,none marsh,see wolf,move towards tree'
p1304
F0.000405
sS'beaver energy zero,marsh energy med,has lumber,none tree,none marsh,see wolf,drop lumber'
p1305
F0.0
sS'beaver energy med,marsh energy low,has lumber,none tree,at marsh,see wolf,pick up lumber'
p1306
I0
sS'beaver energy low,marsh energy med,has lumber,none tree,none marsh,see wolf,pick up lumber'
p1307
I0
sS'beaver energy high,marsh energy med,no lumber,see tree,see marsh,none wolf,eat'
p1308
I0
sS'beaver energy zero,marsh energy high,has lumber,none tree,none marsh,see wolf,pick up lumber'
p1309
I0
sS'beaver energy zero,marsh energy low,no lumber,see tree,at marsh,none wolf,eat'
p1310
I0
sS'beaver energy zero,marsh energy high,has lumber,see tree,see marsh,see wolf,drop lumber'
p1311
F0.0
sS'beaver energy med,marsh energy high,has lumber,none tree,none marsh,none wolf,eat'
p1312
I0
sS'beaver energy low,marsh energy med,has lumber,see tree,see marsh,see wolf,drop lumber'
p1313
F0.0005625
sS'beaver energy med,marsh energy high,has lumber,at tree,none marsh,none wolf,move towards marsh'
p1314
I0
sS'beaver energy low,marsh energy high,no lumber,at tree,none marsh,see wolf,drop lumber'
p1315
I0
sS'beaver energy med,marsh energy high,no lumber,none tree,see marsh,none wolf,pick up lumber'
p1316
I0
sS'beaver energy med,marsh energy high,has lumber,see tree,see marsh,see wolf,move towards marsh'
p1317
F0.00225
sS'beaver energy low,marsh energy med,no lumber,none tree,none marsh,none wolf,move towards tree'
p1318
I0
sS'beaver energy zero,marsh energy high,no lumber,none tree,none marsh,none wolf,move towards tree'
p1319
I0
sS'beaver energy high,marsh energy med,no lumber,none tree,see marsh,none wolf,move towards tree'
p1320
I0
sS'beaver energy med,marsh energy low,no lumber,see tree,see marsh,see wolf,pick up lumber'
p1321
I0
sS'beaver energy low,marsh energy med,no lumber,at tree,none marsh,see wolf,drop lumber'
p1322
I0
sS'beaver energy high,marsh energy high,has lumber,see tree,none marsh,see wolf,eat'
p1323
I0
sS'beaver energy zero,marsh energy high,no lumber,at tree,none marsh,see wolf,drop lumber'
p1324
I0
sS'beaver energy high,marsh energy med,has lumber,none tree,none marsh,see wolf,drop lumber'
p1325
F0.000375
sS'beaver energy med,marsh energy high,no lumber,see tree,see marsh,none wolf,move towards marsh'
p1326
F0.0315
sS'beaver energy high,marsh energy low,has lumber,see tree,none marsh,none wolf,move towards marsh'
p1327
I0
sS'beaver energy low,marsh energy high,has lumber,see tree,none marsh,none wolf,drop lumber'
p1328
F0.006299999999999999
sS'beaver energy high,marsh energy med,has lumber,at tree,none marsh,none wolf,move towards marsh'
p1329
I0
sS'beaver energy low,marsh energy low,has lumber,at tree,none marsh,none wolf,pick up lumber'
p1330
F0.00105
sS'beaver energy high,marsh energy med,no lumber,none tree,none marsh,see wolf,drop lumber'
p1331
I0
sS'beaver energy med,marsh energy high,has lumber,see tree,at marsh,none wolf,move towards tree'
p1332
F0.0567
sS'beaver energy zero,marsh energy high,no lumber,none tree,at marsh,none wolf,move towards marsh'
p1333
I0
sS'beaver energy med,marsh energy low,no lumber,none tree,see marsh,see wolf,drop lumber'
p1334
I0
sS'beaver energy low,marsh energy high,has lumber,none tree,none marsh,none wolf,move towards marsh'
p1335
I0
sS'beaver energy high,marsh energy low,has lumber,see tree,see marsh,none wolf,eat'
p1336
I0
sS'beaver energy med,marsh energy high,no lumber,see tree,none marsh,see wolf,move towards marsh'
p1337
I0
sS'beaver energy low,marsh energy med,has lumber,see tree,see marsh,none wolf,drop lumber'
p1338
F0.007875
sS'beaver energy low,marsh energy high,no lumber,none tree,at marsh,see wolf,pick up lumber'
p1339
I0
sS'beaver energy low,marsh energy low,has lumber,none tree,none marsh,see wolf,move towards marsh'
p1340
I0
sS'beaver energy high,marsh energy low,has lumber,none tree,none marsh,none wolf,drop lumber'
p1341
F0.00105
sS'beaver energy zero,marsh energy high,has lumber,see tree,see marsh,none wolf,drop lumber'
p1342
F0.0
sS'beaver energy zero,marsh energy low,has lumber,none tree,none marsh,none wolf,drop lumber'
p1343
F0.0
sS'beaver energy low,marsh energy high,has lumber,none tree,at marsh,see wolf,move towards tree'
p1344
I0
sS'beaver energy low,marsh energy low,no lumber,see tree,see marsh,none wolf,eat'
p1345
I0
sS'beaver energy low,marsh energy high,has lumber,none tree,none marsh,none wolf,pick up lumber'
p1346
I0
sS'beaver energy low,marsh energy high,has lumber,none tree,see marsh,none wolf,move towards marsh'
p1347
F0.007875
sS'beaver energy high,marsh energy med,no lumber,see tree,see marsh,see wolf,move towards tree'
p1348
F0.003375
sS'beaver energy high,marsh energy high,no lumber,at tree,see marsh,none wolf,pick up lumber'
p1349
I0
sS'beaver energy med,marsh energy med,no lumber,none tree,see marsh,see wolf,eat'
p1350
I0
sS'beaver energy med,marsh energy high,has lumber,at tree,none marsh,see wolf,move towards tree'
p1351
I0
sS'beaver energy med,marsh energy high,no lumber,see tree,none marsh,see wolf,move towards tree'
p1352
F0.00162
sS'beaver energy med,marsh energy med,has lumber,see tree,at marsh,see wolf,move towards marsh'
p1353
I0
sS'beaver energy med,marsh energy high,has lumber,see tree,at marsh,none wolf,eat'
p1354
I0
sS'beaver energy low,marsh energy low,has lumber,none tree,none marsh,none wolf,move towards tree'
p1355
I0
sS'beaver energy low,marsh energy low,has lumber,at tree,none marsh,none wolf,move towards marsh'
p1356
I0
sS'beaver energy low,marsh energy high,has lumber,at tree,none marsh,see wolf,move towards tree'
p1357
I0
sS'beaver energy high,marsh energy high,has lumber,none tree,none marsh,see wolf,move towards tree'
p1358
I0
sS'beaver energy high,marsh energy low,has lumber,see tree,at marsh,see wolf,drop lumber'
p1359
F0.000375
sS'beaver energy high,marsh energy low,has lumber,none tree,see marsh,see wolf,move towards marsh'
p1360
F0.0001875
sS'beaver energy zero,marsh energy med,no lumber,none tree,none marsh,see wolf,eat'
p1361
I0
sS'beaver energy high,marsh energy med,no lumber,none tree,at marsh,see wolf,drop lumber'
p1362
I0
sS'beaver energy med,marsh energy med,has lumber,at tree,see marsh,see wolf,drop lumber'
p1363
F0.001875
sS'beaver energy med,marsh energy low,no lumber,at tree,see marsh,see wolf,move towards tree'
p1364
I0
sS'beaver energy low,marsh energy low,no lumber,at tree,see marsh,none wolf,pick up lumber'
p1365
I0
sS'beaver energy med,marsh energy med,no lumber,none tree,at marsh,see wolf,move towards tree'
p1366
I0
sS'beaver energy med,marsh energy med,has lumber,at tree,none marsh,see wolf,move towards marsh'
p1367
I0
sS'beaver energy low,marsh energy med,no lumber,see tree,at marsh,see wolf,move towards tree'
p1368
F0.0010125
sS'beaver energy med,marsh energy high,has lumber,none tree,see marsh,none wolf,move towards tree'
p1369
I0
sS'beaver energy med,marsh energy med,no lumber,at tree,none marsh,none wolf,eat'
p1370
F0.020999999999999998
sS'beaver energy zero,marsh energy med,has lumber,see tree,none marsh,see wolf,move towards tree'
p1371
F0.0
sS'beaver energy low,marsh energy low,has lumber,none tree,none marsh,none wolf,move towards marsh'
p1372
I0
sS'beaver energy low,marsh energy low,has lumber,none tree,at marsh,none wolf,pick up lumber'
p1373
I0
sS'beaver energy high,marsh energy high,no lumber,none tree,see marsh,see wolf,drop lumber'
p1374
I0
sS'beaver energy med,marsh energy med,no lumber,none tree,see marsh,see wolf,move towards marsh'
p1375
F0.0005625
sS'beaver energy low,marsh energy med,has lumber,none tree,at marsh,none wolf,pick up lumber'
p1376
I0
sS'beaver energy med,marsh energy med,no lumber,none tree,none marsh,see wolf,move towards tree'
p1377
I0
sS'beaver energy zero,marsh energy high,no lumber,none tree,see marsh,see wolf,move towards marsh'
p1378
F0.0
sS'beaver energy low,marsh energy med,no lumber,none tree,see marsh,see wolf,move towards marsh'
p1379
F0.00028125
sS'beaver energy high,marsh energy med,has lumber,none tree,none marsh,none wolf,pick up lumber'
p1380
I0
sS'beaver energy high,marsh energy high,has lumber,none tree,see marsh,see wolf,move towards marsh'
p1381
F0.001875
sS'beaver energy med,marsh energy high,has lumber,see tree,see marsh,none wolf,drop lumber'
p1382
F0.0315
sS'beaver energy low,marsh energy med,has lumber,see tree,see marsh,none wolf,move towards marsh'
p1383
F0.007875
sS'beaver energy med,marsh energy high,no lumber,none tree,at marsh,none wolf,move towards tree'
p1384
I0
sS'beaver energy high,marsh energy low,no lumber,at tree,none marsh,none wolf,drop lumber'
p1385
I0
sS'beaver energy low,marsh energy low,no lumber,none tree,see marsh,see wolf,move towards marsh'
p1386
F5.625e-05
sS'beaver energy low,marsh energy high,has lumber,at tree,see marsh,see wolf,pick up lumber'
p1387
F0.001875
sS'beaver energy low,marsh energy low,no lumber,see tree,at marsh,none wolf,move towards marsh'
p1388
I0
sS'beaver energy med,marsh energy med,has lumber,see tree,at marsh,see wolf,eat'
p1389
I0
sS'beaver energy zero,marsh energy high,no lumber,see tree,none marsh,see wolf,move towards tree'
p1390
F0.0
sS'beaver energy low,marsh energy low,has lumber,at tree,see marsh,none wolf,pick up lumber'
p1391
F0.0026249999999999997
sS'beaver energy high,marsh energy low,no lumber,see tree,at marsh,none wolf,eat'
p1392
I0
sS'beaver energy low,marsh energy med,has lumber,none tree,none marsh,see wolf,drop lumber'
p1393
F0.0001125
sS'beaver energy zero,marsh energy high,has lumber,none tree,none marsh,see wolf,drop lumber'
p1394
F0.0
sS'beaver energy high,marsh energy high,has lumber,none tree,none marsh,see wolf,pick up lumber'
p1395
I0
sS'beaver energy med,marsh energy low,has lumber,see tree,none marsh,none wolf,move towards marsh'
p1396
I0
sS'beaver energy low,marsh energy med,has lumber,at tree,none marsh,none wolf,pick up lumber'
p1397
F0.0052499999999999995
sS'beaver energy zero,marsh energy high,has lumber,at tree,none marsh,none wolf,pick up lumber'
p1398
F0.0
sS'beaver energy med,marsh energy low,has lumber,none tree,see marsh,see wolf,move towards marsh'
p1399
F0.0001125
sS'beaver energy high,marsh energy high,has lumber,none tree,at marsh,none wolf,move towards tree'
p1400
I0
sS'beaver energy low,marsh energy high,has lumber,at tree,none marsh,none wolf,drop lumber'
p1401
F0.010499999999999999
sS'beaver energy low,marsh energy high,no lumber,see tree,see marsh,see wolf,move towards tree'
p1402
F0.002025
sS'beaver energy med,marsh energy med,no lumber,none tree,see marsh,see wolf,move towards tree'
p1403
I0
sS'beaver energy high,marsh energy high,has lumber,see tree,none marsh,see wolf,move towards tree'
p1404
F0.0027
sS'beaver energy high,marsh energy high,has lumber,none tree,none marsh,none wolf,drop lumber'
p1405
F0.010499999999999999
sS'beaver energy high,marsh energy med,no lumber,see tree,at marsh,see wolf,drop lumber'
p1406
I0
sS'beaver energy med,marsh energy low,no lumber,at tree,see marsh,none wolf,pick up lumber'
p1407
I0
sS'beaver energy med,marsh energy high,has lumber,see tree,see marsh,see wolf,move towards tree'
p1408
F0.00405
sS'beaver energy high,marsh energy high,no lumber,none tree,see marsh,see wolf,eat'
p1409
I0
sS'beaver energy high,marsh energy low,has lumber,see tree,at marsh,see wolf,move towards marsh'
p1410
I0
sS'beaver energy med,marsh energy med,has lumber,see tree,see marsh,see wolf,move towards marsh'
p1411
F0.001125
sS'beaver energy med,marsh energy low,no lumber,see tree,at marsh,none wolf,eat'
p1412
I0
sS'beaver energy zero,marsh energy med,has lumber,none tree,at marsh,none wolf,move towards tree'
p1413
I0
sS'beaver energy med,marsh energy med,no lumber,see tree,at marsh,none wolf,move towards marsh'
p1414
I0
sS'beaver energy high,marsh energy high,no lumber,none tree,see marsh,see wolf,pick up lumber'
p1415
I0
sS'beaver energy zero,marsh energy med,no lumber,at tree,see marsh,see wolf,move towards marsh'
p1416
F0.0
sS'beaver energy med,marsh energy high,has lumber,none tree,none marsh,see wolf,eat'
p1417
I0
sS'beaver energy high,marsh energy med,has lumber,none tree,see marsh,none wolf,move towards marsh'
p1418
F0.013125
sS'beaver energy med,marsh energy med,has lumber,none tree,at marsh,see wolf,drop lumber'
p1419
F0.0005625
sS'beaver energy high,marsh energy high,has lumber,at tree,see marsh,none wolf,pick up lumber'
p1420
F0.0875
sS'beaver energy high,marsh energy high,no lumber,none tree,at marsh,none wolf,eat'
p1421
I0
sS'beaver energy med,marsh energy low,has lumber,none tree,at marsh,see wolf,move towards tree'
p1422
I0
sS'beaver energy high,marsh energy high,has lumber,none tree,at marsh,see wolf,pick up lumber'
p1423
I0
sS'beaver energy zero,marsh energy high,no lumber,none tree,see marsh,see wolf,pick up lumber'
p1424
I0
sS'beaver energy zero,marsh energy low,has lumber,see tree,none marsh,see wolf,move towards marsh'
p1425
I0
sS'beaver energy low,marsh energy med,no lumber,none tree,see marsh,see wolf,pick up lumber'
p1426
I0
sS'beaver energy zero,marsh energy med,no lumber,at tree,none marsh,none wolf,drop lumber'
p1427
I0
sS'beaver energy med,marsh energy high,has lumber,none tree,none marsh,none wolf,pick up lumber'
p1428
I0
sS'beaver energy med,marsh energy low,no lumber,at tree,none marsh,none wolf,drop lumber'
p1429
I0
sS'beaver energy high,marsh energy med,has lumber,none tree,see marsh,see wolf,drop lumber'
p1430
F0.0009375
sS'beaver energy high,marsh energy low,has lumber,see tree,at marsh,none wolf,eat'
p1431
I0
sS'beaver energy zero,marsh energy med,has lumber,see tree,none marsh,none wolf,drop lumber'
p1432
F0.0
sS'beaver energy high,marsh energy high,has lumber,see tree,see marsh,see wolf,move towards tree'
p1433
F0.00675
sS'beaver energy zero,marsh energy high,no lumber,none tree,at marsh,none wolf,eat'
p1434
I0
sS'beaver energy low,marsh energy med,no lumber,none tree,at marsh,none wolf,eat'
p1435
I0
sS'beaver energy med,marsh energy med,has lumber,none tree,at marsh,none wolf,move towards marsh'
p1436
I0
sS'beaver energy high,marsh energy low,has lumber,see tree,at marsh,see wolf,move towards tree'
p1437
F0.000675
sS'beaver energy high,marsh energy low,has lumber,none tree,at marsh,see wolf,move towards marsh'
p1438
I0
sS'beaver energy low,marsh energy low,has lumber,at tree,none marsh,see wolf,pick up lumber'
p1439
F7.500000000000001e-05
sS'beaver energy high,marsh energy low,has lumber,see tree,see marsh,none wolf,move towards tree'
p1440
F0.00945
sS'beaver energy high,marsh energy high,has lumber,see tree,none marsh,see wolf,pick up lumber'
p1441
I0
sS'beaver energy zero,marsh energy low,has lumber,none tree,see marsh,none wolf,drop lumber'
p1442
F0.0
sS'beaver energy med,marsh energy high,no lumber,see tree,at marsh,see wolf,eat'
p1443
I0
sS'beaver energy high,marsh energy low,no lumber,at tree,none marsh,none wolf,eat'
p1444
F0.007000000000000001
sS'beaver energy zero,marsh energy med,no lumber,none tree,none marsh,none wolf,pick up lumber'
p1445
I0
sS'beaver energy low,marsh energy high,has lumber,see tree,see marsh,none wolf,move towards tree'
p1446
F0.02835
sS'beaver energy med,marsh energy med,has lumber,none tree,at marsh,none wolf,eat'
p1447
I0
sS'beaver energy med,marsh energy low,no lumber,none tree,none marsh,none wolf,pick up lumber'
p1448
I0
sS'beaver energy high,marsh energy high,has lumber,none tree,see marsh,none wolf,move towards marsh'
p1449
F0.02625
sS'beaver energy med,marsh energy high,has lumber,none tree,see marsh,see wolf,move towards tree'
p1450
I0
sS'beaver energy zero,marsh energy med,has lumber,none tree,at marsh,none wolf,pick up lumber'
p1451
I0
sS'beaver energy zero,marsh energy high,no lumber,none tree,see marsh,see wolf,drop lumber'
p1452
I0
sS'beaver energy low,marsh energy med,no lumber,none tree,see marsh,see wolf,drop lumber'
p1453
I0
sS'beaver energy low,marsh energy high,no lumber,none tree,none marsh,none wolf,eat'
p1454
I0
sS'beaver energy high,marsh energy high,has lumber,none tree,see marsh,none wolf,eat'
p1455
I0
sS'beaver energy low,marsh energy low,has lumber,none tree,none marsh,see wolf,pick up lumber'
p1456
I0
sS'beaver energy med,marsh energy low,has lumber,at tree,see marsh,none wolf,move towards marsh'
p1457
F0.0052499999999999995
sS'beaver energy high,marsh energy high,has lumber,see tree,see marsh,none wolf,pick up lumber'
p1458
I0
sS'beaver energy low,marsh energy high,has lumber,see tree,at marsh,none wolf,move towards marsh'
p1459
I0
sS'beaver energy med,marsh energy low,no lumber,none tree,at marsh,see wolf,pick up lumber'
p1460
I0
sS'beaver energy high,marsh energy high,no lumber,see tree,at marsh,none wolf,move towards tree'
p1461
F0.0945
sS'beaver energy med,marsh energy med,has lumber,none tree,none marsh,none wolf,move towards marsh'
p1462
I0
sS'beaver energy zero,marsh energy med,has lumber,none tree,see marsh,none wolf,drop lumber'
p1463
F0.0
sS'beaver energy zero,marsh energy med,has lumber,at tree,none marsh,none wolf,move towards marsh'
p1464
I0
sS'beaver energy med,marsh energy low,no lumber,see tree,at marsh,none wolf,move towards tree'
p1465
F0.00567
sS'beaver energy med,marsh energy low,has lumber,see tree,none marsh,see wolf,eat'
p1466
I0
sS'beaver energy zero,marsh energy high,no lumber,at tree,none marsh,none wolf,pick up lumber'
p1467
I0
sS'beaver energy med,marsh energy low,no lumber,none tree,none marsh,none wolf,drop lumber'
p1468
I0
sS'beaver energy low,marsh energy med,no lumber,at tree,none marsh,none wolf,pick up lumber'
p1469
I0
sS'beaver energy high,marsh energy low,has lumber,at tree,none marsh,see wolf,drop lumber'
p1470
F0.00025000000000000006
sS'beaver energy med,marsh energy low,no lumber,see tree,see marsh,see wolf,move towards marsh'
p1471
F0.000225
sS'beaver energy high,marsh energy low,no lumber,none tree,see marsh,see wolf,move towards tree'
p1472
I0
sS'beaver energy zero,marsh energy high,has lumber,none tree,see marsh,see wolf,eat'
p1473
I0
sS'beaver energy med,marsh energy med,has lumber,at tree,none marsh,none wolf,move towards tree'
p1474
I0
sS'beaver energy high,marsh energy high,no lumber,none tree,at marsh,none wolf,pick up lumber'
p1475
I0
sS'beaver energy low,marsh energy med,has lumber,none tree,see marsh,see wolf,eat'
p1476
I0
sS'beaver energy high,marsh energy low,has lumber,none tree,see marsh,none wolf,drop lumber'
p1477
F0.0026249999999999997
sS'beaver energy high,marsh energy low,no lumber,see tree,at marsh,none wolf,move towards marsh'
p1478
I0
sS'beaver energy low,marsh energy med,no lumber,see tree,at marsh,none wolf,eat'
p1479
I0
sS'beaver energy zero,marsh energy high,no lumber,see tree,at marsh,none wolf,eat'
p1480
I0
sS'beaver energy med,marsh energy low,no lumber,see tree,at marsh,see wolf,move towards tree'
p1481
F0.000405
sS'beaver energy med,marsh energy high,no lumber,see tree,none marsh,none wolf,eat'
p1482
I0
sS'beaver energy med,marsh energy med,has lumber,none tree,see marsh,see wolf,eat'
p1483
I0
sS'beaver energy high,marsh energy low,no lumber,at tree,see marsh,see wolf,move towards tree'
p1484
I0
sS'beaver energy high,marsh energy low,no lumber,none tree,none marsh,none wolf,move towards marsh'
p1485
I0
sS'beaver energy low,marsh energy med,no lumber,see tree,none marsh,none wolf,pick up lumber'
p1486
I0
sS'beaver energy zero,marsh energy high,no lumber,see tree,none marsh,none wolf,pick up lumber'
p1487
I0
sS'beaver energy high,marsh energy high,has lumber,at tree,see marsh,see wolf,pick up lumber'
p1488
F0.00625
sS'beaver energy low,marsh energy med,has lumber,none tree,at marsh,see wolf,move towards marsh'
p1489
I0
sS'beaver energy med,marsh energy high,has lumber,at tree,none marsh,see wolf,drop lumber'
p1490
F0.0015
sS'beaver energy low,marsh energy med,has lumber,see tree,at marsh,see wolf,pick up lumber'
p1491
I0
sS'beaver energy zero,marsh energy high,has lumber,see tree,at marsh,see wolf,pick up lumber'
p1492
I0
sS'beaver energy zero,marsh energy med,no lumber,none tree,none marsh,see wolf,move towards marsh'
p1493
I0
sS'beaver energy zero,marsh energy low,has lumber,none tree,see marsh,see wolf,pick up lumber'
p1494
I0
sS'beaver energy zero,marsh energy high,has lumber,at tree,see marsh,see wolf,drop lumber'
p1495
F0.0
sS'beaver energy low,marsh energy low,has lumber,see tree,at marsh,none wolf,move towards marsh'
p1496
I0
sS'beaver energy low,marsh energy med,has lumber,at tree,see marsh,see wolf,drop lumber'
p1497
F0.0009375
sS'beaver energy zero,marsh energy low,has lumber,none tree,none marsh,none wolf,move towards tree'
p1498
I0
sS'beaver energy high,marsh energy low,no lumber,none tree,none marsh,see wolf,move towards marsh'
p1499
I0
sS'beaver energy high,marsh energy high,has lumber,see tree,none marsh,none wolf,move towards marsh'
p1500
I0
sS'beaver energy high,marsh energy high,has lumber,see tree,at marsh,none wolf,drop lumber'
p1501
F0.0525
sS'beaver energy med,marsh energy high,has lumber,none tree,at marsh,none wolf,eat'
p1502
I0
sS'beaver energy high,marsh energy high,has lumber,see tree,at marsh,none wolf,pick up lumber'
p1503
I0
sS'beaver energy low,marsh energy high,no lumber,at tree,none marsh,see wolf,eat'
p1504
F0.0015
sS'beaver energy high,marsh energy high,no lumber,none tree,see marsh,see wolf,move towards tree'
p1505
I0
sS'beaver energy low,marsh energy high,has lumber,see tree,see marsh,see wolf,drop lumber'
p1506
F0.001125
sS'beaver energy med,marsh energy high,no lumber,at tree,none marsh,see wolf,move towards tree'
p1507
I0
sS'beaver energy high,marsh energy low,has lumber,at tree,see marsh,none wolf,eat'
p1508
F0.017499999999999998
sS'beaver energy high,marsh energy low,no lumber,see tree,see marsh,none wolf,eat'
p1509
I0
sS'beaver energy med,marsh energy high,has lumber,at tree,none marsh,see wolf,pick up lumber'
p1510
F0.0015
sS'beaver energy med,marsh energy low,has lumber,none tree,see marsh,none wolf,eat'
p1511
I0
sS'beaver energy zero,marsh energy med,has lumber,at tree,none marsh,none wolf,pick up lumber'
p1512
F0.0
sS'beaver energy med,marsh energy low,has lumber,at tree,none marsh,none wolf,pick up lumber'
p1513
F0.0021
sS'beaver energy high,marsh energy low,no lumber,none tree,at marsh,none wolf,pick up lumber'
p1514
I0
sS'beaver energy low,marsh energy high,has lumber,at tree,see marsh,none wolf,eat'
p1515
F0.0525
sS'beaver energy zero,marsh energy med,no lumber,see tree,at marsh,none wolf,eat'
p1516
I0
sS'beaver energy zero,marsh energy med,has lumber,none tree,none marsh,none wolf,eat'
p1517
I0
sS'beaver energy med,marsh energy low,has lumber,see tree,see marsh,none wolf,drop lumber'
p1518
F0.0031499999999999996
sS'beaver energy low,marsh energy high,no lumber,at tree,none marsh,see wolf,pick up lumber'
p1519
I0
sS'beaver energy zero,marsh energy med,has lumber,none tree,none marsh,see wolf,move towards marsh'
p1520
I0
sS'beaver energy low,marsh energy low,has lumber,none tree,see marsh,none wolf,move towards marsh'
p1521
F0.0007874999999999999
sS'beaver energy high,marsh energy low,no lumber,none tree,none marsh,none wolf,drop lumber'
p1522
I0
sS'beaver energy low,marsh energy high,has lumber,none tree,none marsh,see wolf,move towards marsh'
p1523
I0
sS'beaver energy med,marsh energy high,has lumber,at tree,none marsh,none wolf,eat'
p1524
F0.041999999999999996
sS'beaver energy med,marsh energy low,no lumber,none tree,none marsh,see wolf,move towards marsh'
p1525
I0
sS'beaver energy zero,marsh energy med,has lumber,at tree,none marsh,see wolf,pick up lumber'
p1526
F0.0
sS'beaver energy med,marsh energy low,has lumber,see tree,see marsh,see wolf,pick up lumber'
p1527
I0
sS'beaver energy med,marsh energy med,has lumber,none tree,at marsh,see wolf,pick up lumber'
p1528
I0
sS'beaver energy high,marsh energy low,has lumber,at tree,see marsh,see wolf,pick up lumber'
p1529
F0.0006250000000000001
sS'beaver energy low,marsh energy low,no lumber,see tree,at marsh,see wolf,move towards tree'
p1530
F0.0002025
sS'beaver energy zero,marsh energy med,has lumber,see tree,at marsh,see wolf,move towards marsh'
p1531
I0
sS'beaver energy zero,marsh energy low,has lumber,see tree,see marsh,see wolf,eat'
p1532
I0
sS'beaver energy high,marsh energy med,has lumber,none tree,none marsh,see wolf,move towards tree'
p1533
I0
sS'beaver energy high,marsh energy high,has lumber,see tree,none marsh,none wolf,eat'
p1534
I0
sS'beaver energy zero,marsh energy low,has lumber,see tree,none marsh,none wolf,drop lumber'
p1535
F0.0
sS'beaver energy med,marsh energy high,has lumber,at tree,see marsh,see wolf,pick up lumber'
p1536
F0.00375
sS'beaver energy high,marsh energy high,no lumber,see tree,none marsh,none wolf,move towards marsh'
p1537
I0
sS'beaver energy low,marsh energy low,has lumber,at tree,none marsh,see wolf,eat'
p1538
F0.00015000000000000001
sS'beaver energy med,marsh energy med,no lumber,see tree,none marsh,none wolf,move towards tree'
p1539
F0.01134
sS'beaver energy low,marsh energy low,no lumber,see tree,see marsh,see wolf,drop lumber'
p1540
I0
sS'beaver energy zero,marsh energy low,has lumber,see tree,see marsh,none wolf,drop lumber'
p1541
F0.0
sS'beaver energy med,marsh energy high,no lumber,none tree,see marsh,see wolf,move towards tree'
p1542
I0
sS'beaver energy high,marsh energy med,no lumber,at tree,none marsh,see wolf,pick up lumber'
p1543
I0
sS'beaver energy zero,marsh energy high,has lumber,see tree,at marsh,see wolf,eat'
p1544
I0
sS'beaver energy low,marsh energy low,no lumber,see tree,none marsh,see wolf,pick up lumber'
p1545
I0
sS'beaver energy low,marsh energy med,has lumber,see tree,at marsh,see wolf,eat'
p1546
I0
sS'beaver energy high,marsh energy med,has lumber,see tree,at marsh,see wolf,eat'
p1547
I0
sS'beaver energy med,marsh energy low,no lumber,see tree,at marsh,see wolf,pick up lumber'
p1548
I0
sS'beaver energy high,marsh energy high,has lumber,none tree,none marsh,none wolf,move towards tree'
p1549
I0
sS'beaver energy med,marsh energy med,no lumber,at tree,none marsh,see wolf,drop lumber'
p1550
I0
sS'beaver energy med,marsh energy high,has lumber,see tree,at marsh,see wolf,pick up lumber'
p1551
I0
sS'beaver energy low,marsh energy med,has lumber,none tree,at marsh,see wolf,eat'
p1552
I0
sS'beaver energy zero,marsh energy high,has lumber,none tree,at marsh,see wolf,eat'
p1553
I0
sS'beaver energy high,marsh energy low,no lumber,none tree,none marsh,see wolf,drop lumber'
p1554
I0
sS'beaver energy med,marsh energy med,no lumber,none tree,see marsh,none wolf,pick up lumber'
p1555
I0
sS'beaver energy med,marsh energy med,no lumber,at tree,see marsh,none wolf,drop lumber'
p1556
I0
sS'beaver energy med,marsh energy low,no lumber,at tree,none marsh,see wolf,move towards tree'
p1557
I0
sS'beaver energy high,marsh energy high,no lumber,see tree,at marsh,none wolf,drop lumber'
p1558
I0
sS'beaver energy med,marsh energy low,has lumber,none tree,none marsh,none wolf,move towards marsh'
p1559
I0
sS'beaver energy high,marsh energy med,has lumber,at tree,see marsh,none wolf,pick up lumber'
p1560
F0.04375
sS'beaver energy low,marsh energy low,no lumber,at tree,see marsh,none wolf,move towards marsh'
p1561
F0.0026249999999999997
sS'beaver energy med,marsh energy med,has lumber,none tree,none marsh,see wolf,drop lumber'
p1562
F0.000225
sS'beaver energy med,marsh energy med,has lumber,none tree,see marsh,none wolf,eat'
p1563
I0
sS'beaver energy high,marsh energy med,has lumber,none tree,at marsh,see wolf,move towards marsh'
p1564
I0
sS'beaver energy high,marsh energy low,has lumber,at tree,see marsh,see wolf,drop lumber'
p1565
F0.0006250000000000001
sS'beaver energy high,marsh energy low,has lumber,at tree,none marsh,none wolf,eat'
p1566
F0.007000000000000001
sS'beaver energy high,marsh energy low,no lumber,see tree,at marsh,none wolf,move towards tree'
p1567
F0.00945
sS'beaver energy med,marsh energy low,has lumber,none tree,at marsh,none wolf,move towards marsh'
p1568
I0
sS'beaver energy high,marsh energy med,has lumber,at tree,none marsh,see wolf,eat'
p1569
F0.0025000000000000005
sS'beaver energy med,marsh energy high,has lumber,at tree,see marsh,none wolf,drop lumber'
p1570
F0.0525
sS'beaver energy zero,marsh energy high,no lumber,none tree,at marsh,see wolf,move towards marsh'
p1571
I0
sS'beaver energy low,marsh energy low,has lumber,none tree,none marsh,see wolf,move towards tree'
p1572
I0
sS'beaver energy zero,marsh energy high,no lumber,at tree,see marsh,see wolf,pick up lumber'
p1573
I0
sS'beaver energy low,marsh energy low,no lumber,none tree,see marsh,see wolf,pick up lumber'
p1574
I0
sS'beaver energy zero,marsh energy med,has lumber,at tree,see marsh,none wolf,eat'
p1575
F0.0
sS'beaver energy low,marsh energy med,no lumber,at tree,see marsh,see wolf,pick up lumber'
p1576
I0
sS'beaver energy zero,marsh energy med,has lumber,see tree,see marsh,none wolf,move towards tree'
p1577
F0.0
sS'beaver energy low,marsh energy high,has lumber,none tree,see marsh,see wolf,pick up lumber'
p1578
I0
sS'beaver energy high,marsh energy high,has lumber,at tree,none marsh,none wolf,move towards tree'
p1579
I0
sS'beaver energy high,marsh energy low,no lumber,none tree,see marsh,see wolf,move towards marsh'
p1580
F0.0001875
sS'beaver energy high,marsh energy high,has lumber,at tree,see marsh,none wolf,eat'
p1581
F0.175
sS'beaver energy zero,marsh energy med,has lumber,none tree,see marsh,see wolf,drop lumber'
p1582
F0.0
sS'beaver energy high,marsh energy low,has lumber,none tree,at marsh,none wolf,drop lumber'
p1583
F0.0026249999999999997
sS'beaver energy low,marsh energy med,has lumber,none tree,see marsh,none wolf,eat'
p1584
I0
sS'beaver energy zero,marsh energy low,has lumber,none tree,none marsh,none wolf,eat'
p1585
I0
sS'beaver energy med,marsh energy high,no lumber,see tree,at marsh,see wolf,pick up lumber'
p1586
I0
sS'beaver energy zero,marsh energy med,has lumber,at tree,see marsh,none wolf,move towards tree'
p1587
I0
sS'beaver energy high,marsh energy high,no lumber,see tree,none marsh,none wolf,eat'
p1588
I0
sS'beaver energy med,marsh energy low,no lumber,see tree,see marsh,see wolf,move towards tree'
p1589
F0.000405
sS'beaver energy low,marsh energy high,has lumber,at tree,see marsh,see wolf,move towards tree'
p1590
I0
sS'beaver energy high,marsh energy high,no lumber,none tree,at marsh,see wolf,move towards tree'
p1591
I0
sS'beaver energy med,marsh energy high,has lumber,at tree,see marsh,see wolf,move towards tree'
p1592
I0
sS'beaver energy high,marsh energy low,has lumber,see tree,at marsh,see wolf,eat'
p1593
I0
sS'beaver energy med,marsh energy high,no lumber,none tree,none marsh,none wolf,drop lumber'
p1594
I0
sS'beaver energy low,marsh energy med,has lumber,at tree,none marsh,see wolf,move towards marsh'
p1595
I0
sS'beaver energy zero,marsh energy high,has lumber,at tree,none marsh,see wolf,move towards marsh'
p1596
I0
sS'beaver energy zero,marsh energy high,has lumber,see tree,see marsh,see wolf,pick up lumber'
p1597
I0
sS'beaver energy med,marsh energy high,no lumber,at tree,see marsh,none wolf,move towards tree'
p1598
I0
sS'beaver energy low,marsh energy med,has lumber,see tree,see marsh,see wolf,pick up lumber'
p1599
I0
sS'beaver energy low,marsh energy high,no lumber,at tree,none marsh,see wolf,move towards tree'
p1600
I0
sS'beaver energy high,marsh energy med,no lumber,none tree,see marsh,none wolf,move towards marsh'
p1601
F0.013125
sS'beaver energy med,marsh energy low,no lumber,see tree,at marsh,none wolf,pick up lumber'
p1602
I0
sS'beaver energy zero,marsh energy low,has lumber,see tree,none marsh,none wolf,pick up lumber'
p1603
I0
sS'beaver energy high,marsh energy med,no lumber,see tree,see marsh,none wolf,move towards marsh'
p1604
F0.02625
sS'beaver energy high,marsh energy low,has lumber,at tree,see marsh,none wolf,pick up lumber'
p1605
F0.008749999999999999
sS'beaver energy zero,marsh energy med,no lumber,see tree,see marsh,see wolf,drop lumber'
p1606
I0
sS'beaver energy low,marsh energy low,no lumber,at tree,none marsh,none wolf,pick up lumber'
p1607
I0
sS'beaver energy low,marsh energy low,has lumber,see tree,see marsh,see wolf,move towards tree'
p1608
F0.0002025
sS'beaver energy high,marsh energy med,no lumber,none tree,none marsh,none wolf,drop lumber'
p1609
I0
sS'beaver energy zero,marsh energy high,has lumber,at tree,see marsh,none wolf,drop lumber'
p1610
F0.0
sS'beaver energy high,marsh energy low,has lumber,see tree,see marsh,see wolf,move towards marsh'
p1611
F0.000375
sS'beaver energy low,marsh energy med,has lumber,at tree,see marsh,none wolf,drop lumber'
p1612
F0.013125
sS'beaver energy low,marsh energy high,no lumber,see tree,see marsh,none wolf,move towards marsh'
p1613
F0.01575
sS'beaver energy med,marsh energy low,no lumber,at tree,see marsh,none wolf,eat'
p1614
F0.010499999999999999
sS'beaver energy zero,marsh energy med,no lumber,see tree,see marsh,none wolf,pick up lumber'
p1615
I0
sS'beaver energy high,marsh energy low,has lumber,none tree,none marsh,see wolf,pick up lumber'
p1616
I0
sS'beaver energy med,marsh energy high,has lumber,none tree,none marsh,see wolf,pick up lumber'
p1617
I0
sS'beaver energy zero,marsh energy med,no lumber,see tree,at marsh,none wolf,drop lumber'
p1618
I0
sS'beaver energy med,marsh energy med,no lumber,none tree,at marsh,none wolf,drop lumber'
p1619
I0
sS'beaver energy med,marsh energy low,has lumber,see tree,see marsh,none wolf,move towards marsh'
p1620
F0.0031499999999999996
sS'beaver energy low,marsh energy high,has lumber,see tree,see marsh,none wolf,drop lumber'
p1621
F0.01575
sS'beaver energy high,marsh energy med,no lumber,see tree,at marsh,none wolf,move towards marsh'
p1622
I0
sS'beaver energy med,marsh energy med,has lumber,none tree,see marsh,see wolf,pick up lumber'
p1623
I0
sS'beaver energy zero,marsh energy low,no lumber,none tree,none marsh,see wolf,drop lumber'
p1624
I0
sS'beaver energy zero,marsh energy high,no lumber,at tree,see marsh,none wolf,move towards tree'
p1625
I0
sS'beaver energy zero,marsh energy low,no lumber,none tree,see marsh,none wolf,move towards marsh'
p1626
F0.0
sS'beaver energy low,marsh energy med,no lumber,at tree,see marsh,none wolf,move towards tree'
p1627
I0
sS'beaver energy med,marsh energy high,has lumber,at tree,see marsh,none wolf,pick up lumber'
p1628
F0.0525
sS'beaver energy low,marsh energy low,no lumber,none tree,see marsh,none wolf,move towards marsh'
p1629
F0.0007874999999999999
sS'beaver energy zero,marsh energy med,no lumber,at tree,none marsh,none wolf,eat'
p1630
F0.0
sS'beaver energy med,marsh energy med,has lumber,at tree,none marsh,see wolf,pick up lumber'
p1631
F0.00075
sS'beaver energy high,marsh energy med,no lumber,see tree,at marsh,see wolf,pick up lumber'
p1632
I0
sS'beaver energy zero,marsh energy low,has lumber,see tree,at marsh,see wolf,move towards tree'
p1633
F0.0
sS'beaver energy med,marsh energy low,has lumber,none tree,at marsh,none wolf,pick up lumber'
p1634
I0
sS'beaver energy low,marsh energy high,no lumber,see tree,none marsh,see wolf,move towards tree'
p1635
F0.00081
sS'beaver energy low,marsh energy high,has lumber,at tree,see marsh,see wolf,eat'
p1636
F0.00375
sS'beaver energy zero,marsh energy med,no lumber,see tree,see marsh,see wolf,pick up lumber'
p1637
I0
sS'beaver energy med,marsh energy med,has lumber,see tree,none marsh,none wolf,move towards marsh'
p1638
I0
sS'beaver energy zero,marsh energy high,no lumber,at tree,none marsh,none wolf,eat'
p1639
F0.0
sS'beaver energy low,marsh energy med,no lumber,at tree,none marsh,none wolf,eat'
p1640
F0.010499999999999999
sS'beaver energy low,marsh energy med,has lumber,see tree,at marsh,see wolf,move towards marsh'
p1641
I0
sS'beaver energy zero,marsh energy high,has lumber,see tree,at marsh,see wolf,move towards marsh'
p1642
I0
sS'beaver energy med,marsh energy low,has lumber,none tree,none marsh,see wolf,pick up lumber'
p1643
I0
sS'beaver energy high,marsh energy high,has lumber,at tree,none marsh,none wolf,move towards marsh'
p1644
I0
sS'beaver energy med,marsh energy high,has lumber,none tree,none marsh,none wolf,drop lumber'
p1645
F0.006299999999999999
sS'beaver energy med,marsh energy med,has lumber,none tree,none marsh,none wolf,move towards tree'
p1646
I0
sS'beaver energy zero,marsh energy low,no lumber,at tree,none marsh,see wolf,drop lumber'
p1647
I0
sS'beaver energy high,marsh energy med,no lumber,see tree,at marsh,see wolf,move towards marsh'
p1648
I0
sS'beaver energy high,marsh energy high,no lumber,see tree,see marsh,see wolf,eat'
p1649
I0
sS'beaver energy zero,marsh energy med,has lumber,see tree,at marsh,none wolf,pick up lumber'
p1650
I0
sS'beaver energy med,marsh energy high,no lumber,at tree,none marsh,see wolf,drop lumber'
p1651
I0
sS'beaver energy med,marsh energy low,no lumber,at tree,none marsh,none wolf,pick up lumber'
p1652
I0
sS'beaver energy zero,marsh energy low,has lumber,at tree,see marsh,none wolf,eat'
p1653
F0.0
sS'beaver energy med,marsh energy med,has lumber,see tree,see marsh,none wolf,eat'
p1654
I0
sS'beaver energy zero,marsh energy med,no lumber,none tree,none marsh,none wolf,move towards marsh'
p1655
I0
sS'beaver energy med,marsh energy low,no lumber,none tree,none marsh,see wolf,move towards tree'
p1656
I0
sS'beaver energy low,marsh energy low,has lumber,see tree,see marsh,none wolf,drop lumber'
p1657
F0.0015749999999999998
sS'beaver energy low,marsh energy high,no lumber,see tree,see marsh,see wolf,eat'
p1658
I0
sS'beaver energy zero,marsh energy low,has lumber,at tree,see marsh,see wolf,pick up lumber'
p1659
F0.0
sS'beaver energy high,marsh energy low,no lumber,none tree,see marsh,none wolf,move towards marsh'
p1660
F0.0026249999999999997
sS'beaver energy low,marsh energy high,no lumber,see tree,none marsh,none wolf,move towards marsh'
p1661
I0
sS'beaver energy low,marsh energy high,no lumber,none tree,at marsh,none wolf,eat'
p1662
I0
sS'beaver energy zero,marsh energy low,has lumber,none tree,see marsh,none wolf,move towards tree'
p1663
I0
sS'beaver energy low,marsh energy low,no lumber,none tree,at marsh,see wolf,eat'
p1664
I0
sS'beaver energy med,marsh energy low,no lumber,none tree,at marsh,see wolf,drop lumber'
p1665
I0
sS'beaver energy med,marsh energy high,has lumber,none tree,see marsh,see wolf,move towards marsh'
p1666
F0.001125
sS'beaver energy low,marsh energy med,no lumber,none tree,see marsh,see wolf,move towards tree'
p1667
I0
sS'beaver energy high,marsh energy high,no lumber,see tree,at marsh,see wolf,eat'
p1668
I0
sS'beaver energy zero,marsh energy high,no lumber,none tree,see marsh,see wolf,move towards tree'
p1669
I0
sS'beaver energy med,marsh energy high,no lumber,at tree,none marsh,see wolf,move towards marsh'
p1670
I0
sS'beaver energy high,marsh energy med,has lumber,see tree,none marsh,none wolf,move towards tree'
p1671
F0.0189
sS'beaver energy high,marsh energy low,has lumber,at tree,none marsh,none wolf,move towards tree'
p1672
I0
sS'beaver energy low,marsh energy high,no lumber,none tree,at marsh,see wolf,move towards marsh'
p1673
I0
sS'beaver energy zero,marsh energy med,has lumber,none tree,see marsh,see wolf,move towards marsh'
p1674
F0.0
sS'beaver energy low,marsh energy med,has lumber,see tree,none marsh,see wolf,move towards marsh'
p1675
I0
sS'beaver energy zero,marsh energy high,has lumber,see tree,none marsh,see wolf,move towards marsh'
p1676
I0
sS'beaver energy low,marsh energy high,has lumber,see tree,none marsh,none wolf,pick up lumber'
p1677
I0
sS'beaver energy low,marsh energy low,has lumber,at tree,none marsh,see wolf,drop lumber'
p1678
F7.500000000000001e-05
sS'beaver energy high,marsh energy high,no lumber,at tree,none marsh,see wolf,move towards marsh'
p1679
I0
sS'beaver energy med,marsh energy med,no lumber,none tree,at marsh,see wolf,drop lumber'
p1680
I0
sS'beaver energy med,marsh energy med,no lumber,at tree,none marsh,none wolf,move towards tree'
p1681
I0
sS'beaver energy med,marsh energy low,no lumber,none tree,at marsh,none wolf,drop lumber'
p1682
I0
sS'beaver energy low,marsh energy low,no lumber,at tree,see marsh,see wolf,move towards tree'
p1683
I0
sS'beaver energy med,marsh energy high,has lumber,none tree,none marsh,none wolf,move towards marsh'
p1684
I0
sS'beaver energy low,marsh energy low,has lumber,at tree,see marsh,none wolf,drop lumber'
p1685
F0.0026249999999999997
sS'beaver energy high,marsh energy low,no lumber,see tree,none marsh,see wolf,pick up lumber'
p1686
I0
sS'beaver energy zero,marsh energy med,no lumber,see tree,at marsh,see wolf,drop lumber'
p1687
I0
sS'beaver energy high,marsh energy high,has lumber,none tree,see marsh,none wolf,drop lumber'
p1688
F0.02625
sS'beaver energy high,marsh energy high,no lumber,see tree,at marsh,none wolf,pick up lumber'
p1689
I0
sS'beaver energy high,marsh energy med,has lumber,see tree,at marsh,see wolf,move towards tree'
p1690
F0.003375
sS'beaver energy zero,marsh energy med,no lumber,at tree,none marsh,see wolf,move towards marsh'
p1691
I0
sS'beaver energy high,marsh energy high,has lumber,at tree,see marsh,none wolf,move towards marsh'
p1692
F0.0875
sS'beaver energy low,marsh energy med,no lumber,see tree,at marsh,see wolf,pick up lumber'
p1693
I0
sS'beaver energy high,marsh energy med,has lumber,at tree,see marsh,see wolf,drop lumber'
p1694
F0.003125
sS'beaver energy zero,marsh energy high,has lumber,none tree,at marsh,see wolf,move towards tree'
p1695
I0
sS'beaver energy zero,marsh energy high,no lumber,see tree,at marsh,see wolf,pick up lumber'
p1696
I0
sS'beaver energy low,marsh energy med,has lumber,none tree,at marsh,see wolf,move towards tree'
p1697
I0
sS'beaver energy zero,marsh energy med,has lumber,none tree,none marsh,see wolf,pick up lumber'
p1698
I0
sS'beaver energy high,marsh energy med,no lumber,see tree,see marsh,see wolf,pick up lumber'
p1699
I0
sS'beaver energy zero,marsh energy low,no lumber,see tree,none marsh,none wolf,move towards marsh'
p1700
I0
sS'beaver energy zero,marsh energy med,no lumber,see tree,at marsh,none wolf,pick up lumber'
p1701
I0
sS'beaver energy zero,marsh energy med,no lumber,see tree,at marsh,none wolf,move towards tree'
p1702
F0.0
sS'beaver energy high,marsh energy med,has lumber,see tree,see marsh,none wolf,move towards tree'
p1703
F0.04725
sS'beaver energy low,marsh energy low,no lumber,see tree,at marsh,none wolf,move towards tree'
p1704
F0.002835
sS'beaver energy high,marsh energy high,no lumber,none tree,at marsh,see wolf,pick up lumber'
p1705
I0
sS'beaver energy med,marsh energy med,has lumber,none tree,none marsh,see wolf,move towards tree'
p1706
I0
sS'beaver energy med,marsh energy high,no lumber,see tree,none marsh,none wolf,move towards tree'
p1707
F0.02268
sS'beaver energy zero,marsh energy med,no lumber,none tree,at marsh,see wolf,pick up lumber'
p1708
I0
sS'beaver energy high,marsh energy med,no lumber,see tree,none marsh,see wolf,pick up lumber'
p1709
I0
sS'beaver energy zero,marsh energy med,no lumber,none tree,see marsh,none wolf,pick up lumber'
p1710
I0
sS'beaver energy zero,marsh energy low,has lumber,none tree,at marsh,see wolf,move towards tree'
p1711
I0
sS'beaver energy zero,marsh energy low,no lumber,none tree,none marsh,see wolf,pick up lumber'
p1712
I0
sS'beaver energy med,marsh energy high,no lumber,see tree,none marsh,none wolf,drop lumber'
p1713
I0
sS'beaver energy med,marsh energy low,has lumber,none tree,see marsh,see wolf,pick up lumber'
p1714
I0
sS'beaver energy zero,marsh energy med,no lumber,see tree,none marsh,see wolf,eat'
p1715
I0
sS'beaver energy zero,marsh energy med,no lumber,none tree,see marsh,none wolf,move towards tree'
p1716
I0
sS'beaver energy low,marsh energy med,no lumber,none tree,none marsh,see wolf,move towards marsh'
p1717
I0
sS'beaver energy zero,marsh energy high,no lumber,none tree,none marsh,see wolf,move towards marsh'
p1718
I0
sS'beaver energy zero,marsh energy med,no lumber,at tree,none marsh,see wolf,eat'
p1719
F0.0
sS'beaver energy low,marsh energy low,has lumber,see tree,none marsh,none wolf,pick up lumber'
p1720
I0
sS'beaver energy high,marsh energy med,has lumber,see tree,see marsh,none wolf,pick up lumber'
p1721
I0
sS'beaver energy high,marsh energy low,no lumber,none tree,at marsh,none wolf,eat'
p1722
I0
sS'beaver energy zero,marsh energy low,no lumber,none tree,see marsh,see wolf,pick up lumber'
p1723
I0
sS'beaver energy low,marsh energy low,no lumber,none tree,none marsh,none wolf,pick up lumber'
p1724
I0
sS'beaver energy low,marsh energy low,no lumber,none tree,none marsh,see wolf,move towards tree'
p1725
I0
sS'beaver energy zero,marsh energy med,has lumber,see tree,none marsh,see wolf,pick up lumber'
p1726
I0
sS'beaver energy med,marsh energy med,no lumber,none tree,none marsh,none wolf,eat'
p1727
I0
sS'beaver energy low,marsh energy low,no lumber,none tree,at marsh,see wolf,drop lumber'
p1728
I0
sS'beaver energy low,marsh energy high,has lumber,at tree,see marsh,none wolf,move towards tree'
p1729
I0
sS'beaver energy med,marsh energy med,has lumber,see tree,see marsh,see wolf,move towards tree'
p1730
F0.002025
sS'beaver energy zero,marsh energy high,has lumber,at tree,none marsh,none wolf,eat'
p1731
F0.0
sS'beaver energy high,marsh energy low,has lumber,none tree,see marsh,see wolf,drop lumber'
p1732
F0.0001875
sS'beaver energy zero,marsh energy low,has lumber,see tree,see marsh,see wolf,pick up lumber'
p1733
I0
sS'beaver energy zero,marsh energy med,has lumber,at tree,none marsh,see wolf,drop lumber'
p1734
F0.0
sS'beaver energy low,marsh energy med,has lumber,at tree,none marsh,none wolf,eat'
p1735
F0.010499999999999999
sS'beaver energy high,marsh energy med,no lumber,none tree,see marsh,see wolf,pick up lumber'
p1736
I0
sS'beaver energy zero,marsh energy high,has lumber,none tree,at marsh,see wolf,move towards marsh'
p1737
I0
sS'beaver energy zero,marsh energy med,has lumber,see tree,see marsh,see wolf,eat'
p1738
I0
sS'beaver energy high,marsh energy low,no lumber,see tree,none marsh,none wolf,move towards tree'
p1739
F0.00378
sS'beaver energy med,marsh energy low,no lumber,none tree,none marsh,none wolf,move towards marsh'
p1740
I0
sS'beaver energy high,marsh energy high,no lumber,see tree,none marsh,see wolf,eat'
p1741
I0
sS'beaver energy high,marsh energy low,has lumber,see tree,at marsh,none wolf,drop lumber'
p1742
F0.0052499999999999995
sS'beaver energy high,marsh energy low,no lumber,at tree,none marsh,see wolf,drop lumber'
p1743
I0
sS'beaver energy high,marsh energy low,no lumber,at tree,none marsh,none wolf,move towards tree'
p1744
I0
sS'beaver energy high,marsh energy med,has lumber,none tree,see marsh,see wolf,eat'
p1745
I0
sS'beaver energy low,marsh energy high,no lumber,none tree,at marsh,none wolf,pick up lumber'
p1746
I0
sS'beaver energy zero,marsh energy med,has lumber,none tree,at marsh,see wolf,move towards marsh'
p1747
I0
sS'beaver energy high,marsh energy low,no lumber,at tree,see marsh,none wolf,drop lumber'
p1748
I0
sS'beaver energy high,marsh energy med,no lumber,see tree,at marsh,none wolf,pick up lumber'
p1749
I0
sS'beaver energy low,marsh energy high,no lumber,see tree,see marsh,none wolf,pick up lumber'
p1750
I0
sS'beaver energy med,marsh energy med,no lumber,at tree,none marsh,see wolf,eat'
p1751
F0.0015
sS'beaver energy low,marsh energy low,no lumber,at tree,none marsh,none wolf,move towards tree'
p1752
I0
sS'beaver energy low,marsh energy high,no lumber,see tree,none marsh,none wolf,pick up lumber'
p1753
I0
sS'beaver energy zero,marsh energy low,no lumber,none tree,see marsh,none wolf,eat'
p1754
I0
sS'beaver energy zero,marsh energy high,has lumber,none tree,at marsh,none wolf,eat'
p1755
I0
sS'beaver energy low,marsh energy high,no lumber,at tree,see marsh,see wolf,drop lumber'
p1756
I0
sS'beaver energy low,marsh energy high,has lumber,see tree,at marsh,see wolf,move towards tree'
p1757
F0.002025
sS'beaver energy zero,marsh energy low,no lumber,none tree,see marsh,none wolf,move towards tree'
p1758
I0
sS'beaver energy med,marsh energy high,no lumber,see tree,see marsh,none wolf,pick up lumber'
p1759
I0
sS'beaver energy high,marsh energy low,has lumber,see tree,none marsh,none wolf,pick up lumber'
p1760
I0
sS'beaver energy high,marsh energy high,has lumber,at tree,none marsh,see wolf,drop lumber'
p1761
F0.0025000000000000005
sS'beaver energy med,marsh energy high,no lumber,none tree,at marsh,see wolf,pick up lumber'
p1762
I0
sS'beaver energy high,marsh energy high,has lumber,none tree,at marsh,see wolf,move towards tree'
p1763
I0
sS'beaver energy zero,marsh energy low,has lumber,at tree,none marsh,see wolf,move towards marsh'
p1764
I0
sS'beaver energy med,marsh energy high,no lumber,at tree,see marsh,see wolf,pick up lumber'
p1765
I0
sS'beaver energy med,marsh energy low,no lumber,see tree,at marsh,see wolf,move towards marsh'
p1766
I0
sS'beaver energy low,marsh energy med,no lumber,at tree,see marsh,see wolf,move towards marsh'
p1767
F0.0009375
sS'beaver energy high,marsh energy high,no lumber,none tree,none marsh,see wolf,move towards tree'
p1768
I0
sS'beaver energy med,marsh energy low,has lumber,none tree,none marsh,none wolf,eat'
p1769
I0
sS'beaver energy med,marsh energy low,no lumber,see tree,none marsh,none wolf,eat'
p1770
I0
sS'beaver energy low,marsh energy low,has lumber,see tree,at marsh,see wolf,pick up lumber'
p1771
I0
sS'beaver energy high,marsh energy med,has lumber,at tree,see marsh,see wolf,eat'
p1772
F0.00625
sS'beaver energy low,marsh energy med,has lumber,none tree,none marsh,none wolf,move towards marsh'
p1773
I0
sS'beaver energy low,marsh energy low,has lumber,none tree,at marsh,see wolf,move towards tree'
p1774
I0
sS'beaver energy med,marsh energy low,has lumber,none tree,see marsh,see wolf,eat'
p1775
I0
sS'beaver energy med,marsh energy low,no lumber,at tree,none marsh,see wolf,drop lumber'
p1776
I0
sS'beaver energy high,marsh energy low,no lumber,see tree,at marsh,none wolf,pick up lumber'
p1777
I0
sS'beaver energy high,marsh energy high,no lumber,at tree,see marsh,none wolf,eat'
p1778
F0.175
sS'beaver energy low,marsh energy high,no lumber,none tree,see marsh,none wolf,drop lumber'
p1779
I0
sS'beaver energy med,marsh energy high,no lumber,none tree,at marsh,see wolf,eat'
p1780
I0
sS'beaver energy med,marsh energy low,no lumber,none tree,see marsh,none wolf,move towards marsh'
p1781
F0.0015749999999999998
sS'beaver energy zero,marsh energy low,has lumber,at tree,see marsh,none wolf,drop lumber'
p1782
F0.0
sS'beaver energy zero,marsh energy high,has lumber,see tree,see marsh,see wolf,move towards tree'
p1783
F0.0
sS'beaver energy low,marsh energy low,has lumber,none tree,see marsh,see wolf,pick up lumber'
p1784
I0
sS'beaver energy high,marsh energy med,no lumber,at tree,see marsh,none wolf,move towards marsh'
p1785
F0.04375
sS'beaver energy med,marsh energy low,has lumber,see tree,at marsh,see wolf,eat'
p1786
I0
sS'beaver energy low,marsh energy high,no lumber,see tree,none marsh,see wolf,move towards marsh'
p1787
I0
sS'beaver energy low,marsh energy high,no lumber,see tree,at marsh,none wolf,move towards marsh'
p1788
I0
sS'beaver energy high,marsh energy high,no lumber,see tree,at marsh,none wolf,move towards marsh'
p1789
I0
sS'beaver energy zero,marsh energy low,no lumber,at tree,none marsh,see wolf,pick up lumber'
p1790
I0
sS'beaver energy high,marsh energy high,no lumber,none tree,at marsh,see wolf,eat'
p1791
I0
sS'beaver energy zero,marsh energy med,no lumber,at tree,see marsh,none wolf,eat'
p1792
F0.0
sS'beaver energy high,marsh energy low,has lumber,see tree,at marsh,see wolf,pick up lumber'
p1793
I0
sS'beaver energy low,marsh energy high,no lumber,none tree,see marsh,see wolf,pick up lumber'
p1794
I0
sS'beaver energy low,marsh energy low,has lumber,at tree,see marsh,see wolf,pick up lumber'
p1795
F0.0001875
sS'beaver energy high,marsh energy low,has lumber,see tree,see marsh,see wolf,move towards tree'
p1796
F0.000675
sS'beaver energy high,marsh energy low,no lumber,see tree,see marsh,none wolf,pick up lumber'
p1797
I0
sS'beaver energy high,marsh energy low,has lumber,at tree,see marsh,see wolf,move towards tree'
p1798
I0
sS'beaver energy zero,marsh energy med,no lumber,see tree,none marsh,none wolf,drop lumber'
p1799
I0
sS'beaver energy zero,marsh energy med,no lumber,none tree,none marsh,see wolf,drop lumber'
p1800
I0
sS'beaver energy high,marsh energy med,has lumber,none tree,at marsh,none wolf,eat'
p1801
I0
sS'beaver energy high,marsh energy med,no lumber,none tree,at marsh,see wolf,move towards tree'
p1802
I0
sS'beaver energy low,marsh energy low,has lumber,see tree,none marsh,see wolf,move towards tree'
p1803
F8.1e-05
sS'beaver energy low,marsh energy low,no lumber,at tree,see marsh,see wolf,move towards marsh'
p1804
F0.0001875
sS'beaver energy med,marsh energy high,no lumber,at tree,none marsh,none wolf,drop lumber'
p1805
I0
sS'beaver energy high,marsh energy high,has lumber,see tree,at marsh,see wolf,drop lumber'
p1806
F0.00375
sS'beaver energy zero,marsh energy low,no lumber,at tree,see marsh,none wolf,move towards tree'
p1807
I0
sS'beaver energy high,marsh energy high,no lumber,none tree,at marsh,none wolf,move towards tree'
p1808
I0
sS'beaver energy high,marsh energy low,has lumber,see tree,see marsh,see wolf,pick up lumber'
p1809
I0
sS'beaver energy zero,marsh energy low,has lumber,none tree,see marsh,see wolf,move towards marsh'
p1810
F0.0
sS'beaver energy med,marsh energy low,has lumber,see tree,none marsh,see wolf,move towards tree'
p1811
F0.000162
sS'beaver energy high,marsh energy med,has lumber,at tree,none marsh,none wolf,pick up lumber'
p1812
F0.017499999999999998
sS'beaver energy high,marsh energy low,no lumber,none tree,none marsh,see wolf,eat'
p1813
I0
sS'beaver energy high,marsh energy high,no lumber,see tree,see marsh,see wolf,move towards marsh'
p1814
F0.00375
sS'beaver energy low,marsh energy med,no lumber,see tree,none marsh,none wolf,move towards marsh'
p1815
I0
sS'beaver energy low,marsh energy low,no lumber,see tree,see marsh,none wolf,drop lumber'
p1816
I0
sS'beaver energy zero,marsh energy high,no lumber,see tree,none marsh,none wolf,move towards marsh'
p1817
I0
sS'beaver energy med,marsh energy low,no lumber,see tree,none marsh,see wolf,pick up lumber'
p1818
I0
sS'beaver energy zero,marsh energy low,has lumber,at tree,see marsh,see wolf,move towards tree'
p1819
I0
sS'beaver energy med,marsh energy low,has lumber,see tree,none marsh,none wolf,move towards tree'
p1820
F0.0022679999999999996
sS'beaver energy zero,marsh energy high,has lumber,none tree,none marsh,see wolf,eat'
p1821
I0
sS'beaver energy med,marsh energy med,no lumber,none tree,see marsh,see wolf,drop lumber'
p1822
I0
sS'beaver energy zero,marsh energy low,no lumber,at tree,none marsh,none wolf,move towards tree'
p1823
I0
sS'beaver energy zero,marsh energy med,has lumber,at tree,see marsh,none wolf,pick up lumber'
p1824
F0.0
sS'beaver energy med,marsh energy med,no lumber,at tree,see marsh,none wolf,eat'
p1825
F0.0525
sS'beaver energy high,marsh energy high,has lumber,at tree,see marsh,none wolf,drop lumber'
p1826
F0.0875
sS'beaver energy low,marsh energy med,has lumber,none tree,none marsh,see wolf,eat'
p1827
I0
sS'beaver energy zero,marsh energy high,has lumber,see tree,at marsh,none wolf,pick up lumber'
p1828
I0
sS'beaver energy zero,marsh energy low,no lumber,see tree,at marsh,see wolf,pick up lumber'
p1829
I0
sS'beaver energy low,marsh energy med,has lumber,see tree,at marsh,none wolf,pick up lumber'
p1830
I0
sS'beaver energy high,marsh energy med,has lumber,see tree,at marsh,none wolf,drop lumber'
p1831
F0.02625
sS'beaver energy med,marsh energy high,has lumber,none tree,see marsh,none wolf,pick up lumber'
p1832
I0
sS'beaver energy high,marsh energy high,no lumber,see tree,see marsh,see wolf,drop lumber'
p1833
I0
sS'beaver energy med,marsh energy high,has lumber,see tree,see marsh,none wolf,pick up lumber'
p1834
I0
sS'beaver energy med,marsh energy med,has lumber,at tree,none marsh,see wolf,eat'
p1835
F0.0015
sS'beaver energy low,marsh energy low,no lumber,see tree,none marsh,see wolf,move towards marsh'
p1836
I0
sS'beaver energy low,marsh energy high,has lumber,at tree,see marsh,see wolf,move towards marsh'
p1837
F0.001875
sS'beaver energy high,marsh energy high,no lumber,at tree,see marsh,see wolf,move towards tree'
p1838
I0
sS'beaver energy high,marsh energy low,has lumber,see tree,see marsh,none wolf,drop lumber'
p1839
F0.0052499999999999995
sS'beaver energy med,marsh energy high,no lumber,see tree,none marsh,none wolf,move towards marsh'
p1840
I0
sS'beaver energy high,marsh energy med,has lumber,see tree,see marsh,see wolf,move towards tree'
p1841
F0.003375
sS'beaver energy low,marsh energy low,no lumber,see tree,at marsh,see wolf,eat'
p1842
I0
sS'beaver energy med,marsh energy low,no lumber,at tree,see marsh,none wolf,move towards tree'
p1843
I0
sS'beaver energy zero,marsh energy med,no lumber,none tree,none marsh,none wolf,drop lumber'
p1844
I0
sS'beaver energy low,marsh energy high,no lumber,see tree,at marsh,none wolf,move towards tree'
p1845
F0.02835
sS'beaver energy low,marsh energy low,has lumber,none tree,at marsh,none wolf,move towards tree'
p1846
I0
sS'beaver energy low,marsh energy high,no lumber,none tree,at marsh,see wolf,eat'
p1847
I0
sS'beaver energy zero,marsh energy med,no lumber,see tree,none marsh,see wolf,move towards tree'
p1848
F0.0
sS'beaver energy med,marsh energy high,no lumber,at tree,none marsh,see wolf,pick up lumber'
p1849
I0
sS'beaver energy low,marsh energy low,has lumber,none tree,see marsh,see wolf,eat'
p1850
I0
sS'beaver energy med,marsh energy med,no lumber,at tree,see marsh,none wolf,move towards marsh'
p1851
F0.02625
sS'beaver energy zero,marsh energy high,no lumber,at tree,see marsh,see wolf,move towards tree'
p1852
I0
sS'beaver energy low,marsh energy med,no lumber,at tree,see marsh,see wolf,move towards tree'
p1853
I0
sS'beaver energy high,marsh energy low,no lumber,at tree,none marsh,see wolf,pick up lumber'
p1854
I0
sS'beaver energy zero,marsh energy med,no lumber,none tree,see marsh,see wolf,eat'
p1855
I0
sS'beaver energy zero,marsh energy high,no lumber,see tree,see marsh,none wolf,pick up lumber'
p1856
I0
sS'beaver energy med,marsh energy high,has lumber,see tree,see marsh,see wolf,pick up lumber'
p1857
I0
sS'beaver energy low,marsh energy med,no lumber,see tree,see marsh,none wolf,pick up lumber'
p1858
I0
sS'beaver energy med,marsh energy high,no lumber,see tree,at marsh,see wolf,move towards marsh'
p1859
I0
sS'beaver energy zero,marsh energy high,no lumber,none tree,at marsh,see wolf,eat'
p1860
I0
sS'beaver energy low,marsh energy med,no lumber,none tree,at marsh,see wolf,eat'
p1861
I0
sS'beaver energy high,marsh energy high,no lumber,none tree,at marsh,see wolf,move towards marsh'
p1862
I0
sS'beaver energy zero,marsh energy low,no lumber,see tree,at marsh,none wolf,drop lumber'
p1863
I0
sS'beaver energy low,marsh energy high,no lumber,see tree,at marsh,none wolf,pick up lumber'
p1864
I0
sS'beaver energy med,marsh energy low,no lumber,see tree,none marsh,see wolf,move towards marsh'
p1865
I0
sS'beaver energy zero,marsh energy high,no lumber,none tree,see marsh,see wolf,eat'
p1866
I0
sS'beaver energy high,marsh energy high,no lumber,at tree,none marsh,see wolf,pick up lumber'
p1867
I0
sS'beaver energy high,marsh energy low,no lumber,see tree,none marsh,none wolf,drop lumber'
p1868
I0
sS'beaver energy med,marsh energy low,no lumber,see tree,none marsh,none wolf,move towards tree'
p1869
F0.0022679999999999996
sS'beaver energy zero,marsh energy med,no lumber,none tree,at marsh,none wolf,eat'
p1870
I0
sS'beaver energy high,marsh energy med,no lumber,see tree,none marsh,none wolf,eat'
p1871
I0
sS'beaver energy low,marsh energy high,no lumber,at tree,see marsh,none wolf,pick up lumber'
p1872
I0
sS'beaver energy zero,marsh energy high,no lumber,see tree,at marsh,none wolf,move towards tree'
p1873
F0.0
sS'beaver energy low,marsh energy med,no lumber,see tree,at marsh,none wolf,move towards tree'
p1874
F0.014175
sS'beaver energy low,marsh energy med,no lumber,none tree,at marsh,see wolf,drop lumber'
p1875
I0
sS'beaver energy zero,marsh energy high,no lumber,none tree,at marsh,see wolf,drop lumber'
p1876
I0
sS'beaver energy low,marsh energy med,has lumber,see tree,none marsh,see wolf,pick up lumber'
p1877
I0
sS'beaver energy zero,marsh energy high,has lumber,see tree,none marsh,see wolf,pick up lumber'
p1878
I0
sS'beaver energy low,marsh energy high,no lumber,see tree,none marsh,none wolf,move towards tree'
p1879
F0.01134
sS'beaver energy low,marsh energy low,has lumber,see tree,none marsh,none wolf,drop lumber'
p1880
F0.0006299999999999999
sS'beaver energy zero,marsh energy low,has lumber,none tree,at marsh,none wolf,move towards tree'
p1881
I0
sS'beaver energy high,marsh energy med,no lumber,at tree,none marsh,none wolf,eat'
p1882
F0.034999999999999996
sS'beaver energy low,marsh energy med,has lumber,none tree,none marsh,see wolf,move towards tree'
p1883
I0
sS'beaver energy zero,marsh energy med,has lumber,none tree,at marsh,see wolf,drop lumber'
p1884
F0.0
sS'beaver energy zero,marsh energy high,has lumber,none tree,none marsh,see wolf,move towards tree'
p1885
I0
sS'beaver energy med,marsh energy high,has lumber,none tree,see marsh,see wolf,drop lumber'
p1886
F0.001125
sS'beaver energy high,marsh energy low,no lumber,none tree,at marsh,see wolf,drop lumber'
p1887
I0
sS'beaver energy med,marsh energy med,no lumber,none tree,none marsh,see wolf,drop lumber'
p1888
I0
sS'beaver energy zero,marsh energy med,no lumber,see tree,none marsh,see wolf,move towards marsh'
p1889
I0
sS'beaver energy low,marsh energy low,no lumber,see tree,none marsh,none wolf,pick up lumber'
p1890
I0
sS'beaver energy zero,marsh energy low,no lumber,at tree,see marsh,see wolf,drop lumber'
p1891
I0
sS'beaver energy low,marsh energy low,has lumber,see tree,at marsh,none wolf,move towards tree'
p1892
F0.002835
sS'beaver energy low,marsh energy low,no lumber,see tree,none marsh,see wolf,move towards tree'
p1893
F8.1e-05
sS'beaver energy high,marsh energy high,no lumber,see tree,see marsh,none wolf,eat'
p1894
I0
sS'beaver energy med,marsh energy low,no lumber,see tree,see marsh,none wolf,move towards tree'
p1895
F0.00567
sS'beaver energy zero,marsh energy low,has lumber,none tree,at marsh,see wolf,drop lumber'
p1896
F0.0
sS'beaver energy low,marsh energy high,no lumber,none tree,none marsh,see wolf,pick up lumber'
p1897
I0
sS'beaver energy zero,marsh energy low,no lumber,at tree,see marsh,none wolf,drop lumber'
p1898
I0
sS'beaver energy med,marsh energy med,has lumber,at tree,none marsh,none wolf,eat'
p1899
F0.020999999999999998
sS'beaver energy zero,marsh energy low,has lumber,see tree,none marsh,see wolf,pick up lumber'
p1900
I0
sS'beaver energy low,marsh energy high,has lumber,see tree,see marsh,see wolf,move towards marsh'
p1901
F0.001125
sS'beaver energy med,marsh energy low,no lumber,see tree,see marsh,none wolf,pick up lumber'
p1902
I0
sS'beaver energy high,marsh energy high,no lumber,at tree,see marsh,none wolf,move towards tree'
p1903
I0
sS'beaver energy zero,marsh energy med,has lumber,none tree,see marsh,see wolf,move towards tree'
p1904
I0
sS'beaver energy low,marsh energy low,has lumber,none tree,at marsh,none wolf,eat'
p1905
I0
sS'beaver energy high,marsh energy high,has lumber,none tree,see marsh,see wolf,move towards tree'
p1906
I0
sS'beaver energy med,marsh energy high,has lumber,see tree,see marsh,none wolf,move towards tree'
p1907
F0.0567
sS'beaver energy low,marsh energy high,has lumber,at tree,see marsh,none wolf,drop lumber'
p1908
F0.02625
sS'beaver energy med,marsh energy med,has lumber,none tree,at marsh,none wolf,drop lumber'
p1909
F0.007875
sS'beaver energy low,marsh energy low,no lumber,at tree,none marsh,none wolf,eat'
p1910
F0.0021
sS'beaver energy high,marsh energy high,no lumber,see tree,at marsh,see wolf,move towards tree'
p1911
F0.00675
sS'beaver energy low,marsh energy high,has lumber,see tree,none marsh,none wolf,move towards marsh'
p1912
I0
sS'beaver energy high,marsh energy med,no lumber,at tree,none marsh,see wolf,drop lumber'
p1913
I0
sS'beaver energy zero,marsh energy low,has lumber,at tree,none marsh,none wolf,drop lumber'
p1914
F0.0
sS'beaver energy zero,marsh energy low,no lumber,see tree,none marsh,see wolf,pick up lumber'
p1915
I0
sS'beaver energy high,marsh energy low,no lumber,at tree,see marsh,none wolf,move towards marsh'
p1916
F0.008749999999999999
sS'beaver energy med,marsh energy med,no lumber,see tree,see marsh,see wolf,eat'
p1917
I0
sS'beaver energy zero,marsh energy low,has lumber,see tree,none marsh,see wolf,move towards tree'
p1918
F0.0
sS'beaver energy med,marsh energy high,has lumber,at tree,see marsh,none wolf,move towards marsh'
p1919
F0.0525
sS'beaver energy low,marsh energy med,no lumber,none tree,at marsh,see wolf,move towards marsh'
p1920
I0
s.