(dp0
(S'beaver energy high'
p1
S'marsh energy high'
p2
S'no lumber'
p3
S'see tree'
p4
S'at marsh'
p5
S'none wolf'
p6
S'pick up lumber'
p7
tp8
I0
s(S'beaver energy med'
p9
g2
S'has lumber'
p10
S'at tree'
p11
S'none marsh'
p12
S'see wolf'
p13
S'eat'
p14
tp15
F0.003
s(g1
S'marsh energy low'
p16
g3
g11
g12
g13
S'drop lumber'
p17
tp18
I0
s(g9
g2
g10
g4
g5
g6
g14
tp19
I0
s(S'beaver energy zero'
p20
g16
g3
g4
g12
g13
g14
tp21
I0
s(g20
S'marsh energy med'
p22
g10
g4
g12
g13
S'move towards marsh'
p23
tp24
I0
s(g1
g2
g3
S'none tree'
p25
S'see marsh'
p26
g6
g17
tp27
I0
s(g9
g22
g3
g11
g12
g13
g7
tp28
I0
s(g9
g2
g3
g25
g12
g6
g23
tp29
I0
s(g20
g16
g10
g25
g5
g13
g14
tp30
I0
s(g1
g2
g10
g11
g12
g13
g23
tp31
I0
s(g20
g22
g10
g25
g5
g13
g7
tp32
I0
s(g1
g16
g3
g11
g12
g6
g14
tp33
F0.007000000000000001
s(g9
g22
g3
g11
g26
g6
g14
tp34
F0.0525
s(g9
g16
g10
g4
g5
g6
g23
tp35
I0
s(S'beaver energy low'
p36
g22
g10
g11
g26
g6
g23
tp37
F0.013125
s(g1
g22
g3
g11
g12
g13
g23
tp38
I0
s(g20
g22
g3
g11
g12
g6
S'move towards tree'
p39
tp40
I0
s(g9
g2
g10
g11
g26
g13
g7
tp41
F0.00375
s(g20
g16
g10
g4
g12
g13
g39
tp42
F0.0
s(g36
g16
g3
g4
g12
g13
g39
tp43
F8.1e-05
s(g20
g22
g10
g4
g5
g6
g23
tp44
I0
s(g20
g16
g10
g25
g12
g13
g7
tp45
I0
s(g36
g16
g3
g11
g26
g13
g14
tp46
F0.000375
s(g20
g22
g3
g11
g26
g6
g14
tp47
F0.0
s(g9
g2
g10
g4
g26
g13
g39
tp48
F0.00405
s(g9
g2
g3
g4
g26
g13
g7
tp49
I0
s(g1
g22
g10
g25
g12
g6
g14
tp50
I0
s(g1
g2
g10
g4
g12
g6
g39
tp51
F0.0378
s(g1
g16
g3
g11
g12
g6
g7
tp52
I0
s(g36
g2
g10
g25
g26
g6
g7
tp53
I0
s(g20
g2
g3
g25
g26
g13
g17
tp54
I0
s(g1
g22
g10
g11
g12
g13
g7
tp55
F0.0012500000000000002
s(g1
g2
g10
g4
g12
g6
g7
tp56
I0
s(g36
g16
g10
g25
g12
g13
g23
tp57
I0
s(g1
g2
g3
g11
g26
g6
g14
tp58
F0.175
s(g9
g2
g10
g25
g5
g13
g14
tp59
I0
s(g1
g16
g3
g11
g12
g6
g23
tp60
I0
s(g9
g22
g10
g4
g5
g13
g39
tp61
F0.002025
s(g9
g16
g3
g25
g5
g6
g17
tp62
I0
s(g36
g22
g3
g25
g5
g6
g14
tp63
I0
s(g20
g22
g10
g25
g12
g13
g14
tp64
I0
s(g20
g22
g10
g4
g5
g13
g7
tp65
I0
s(g36
g2
g10
g25
g26
g6
g17
tp66
F0.007875
s(g9
g16
g10
g25
g5
g13
g39
tp67
I0
s(g20
g22
g3
g4
g12
g6
g7
tp68
I0
s(g20
g2
g3
g25
g12
g6
g17
tp69
I0
s(g20
g2
g10
g11
g26
g6
g7
tp70
F0.0
s(g9
g16
g10
g25
g26
g6
g23
tp71
F0.0015749999999999998
s(g36
g16
g10
g4
g12
g13
g14
tp72
I0
s(g9
g22
g10
g25
g5
g6
g17
tp73
F0.007875
s(g1
g16
g10
g11
g12
g6
g7
tp74
F0.0035000000000000005
s(g1
g16
g10
g25
g5
g6
g14
tp75
I0
s(g9
g22
g10
g4
g12
g6
g23
tp76
I0
s(g9
g16
g10
g4
g26
g6
g14
tp77
I0
s(g1
g22
g10
g25
g26
g6
g17
tp78
F0.013125
s(g20
g16
g10
g25
g26
g6
g17
tp79
F0.0
s(g20
g16
g3
g25
g26
g6
g17
tp80
I0
s(g9
g22
g3
g25
g5
g13
g14
tp81
I0
s(g1
g22
g3
g11
g12
g13
g7
tp82
I0
s(g9
g22
g3
g11
g26
g13
g39
tp83
I0
s(g36
g22
g10
g4
g5
g13
g39
tp84
F0.0010125
s(g36
g16
g3
g4
g26
g6
g23
tp85
F0.0015749999999999998
s(g9
g16
g3
g25
g12
g13
g14
tp86
I0
s(g36
g2
g10
g4
g5
g6
g23
tp87
I0
s(g9
g2
g3
g4
g12
g6
g17
tp88
I0
s(g20
g16
g10
g25
g26
g13
g23
tp89
F0.0
s(g1
g22
g10
g4
g26
g13
g14
tp90
I0
s(g20
g22
g10
g4
g12
g6
g23
tp91
I0
s(g20
g16
g3
g11
g12
g6
g23
tp92
I0
s(g36
g2
g10
g4
g26
g13
g14
tp93
I0
s(g20
g2
g10
g4
g26
g6
g14
tp94
I0
s(g1
g22
g3
g25
g5
g6
g39
tp95
I0
s(g9
g2
g3
g4
g12
g13
g39
tp96
F0.00162
s(g1
g2
g10
g25
g5
g13
g23
tp97
I0
s(g36
g2
g3
g25
g26
g13
g14
tp98
I0
s(g36
g22
g3
g4
g12
g13
g23
tp99
I0
s(g1
g22
g10
g4
g5
g13
g23
tp100
I0
s(g9
g16
g10
g25
g5
g13
g14
tp101
I0
s(g36
g22
g10
g4
g12
g6
g7
tp102
I0
s(g20
g2
g10
g4
g12
g13
g23
tp103
I0
s(g1
g22
g10
g4
g5
g6
g17
tp104
F0.02625
s(g36
g2
g3
g11
g26
g6
g7
tp105
I0
s(g1
g2
g3
g4
g5
g13
g7
tp106
I0
s(g1
g2
g3
g4
g26
g6
g39
tp107
F0.0945
s(g20
g2
g3
g11
g12
g13
g17
tp108
I0
s(g1
g16
g10
g11
g12
g13
g23
tp109
I0
s(g1
g2
g3
g11
g12
g13
g39
tp110
I0
s(g1
g2
g10
g11
g26
g13
g17
tp111
F0.00625
s(g20
g16
g3
g25
g12
g6
g14
tp112
I0
s(g36
g2
g3
g4
g26
g6
g14
tp113
I0
s(g1
g16
g10
g25
g12
g6
g7
tp114
I0
s(g9
g22
g10
g25
g5
g13
g23
tp115
I0
s(g36
g2
g3
g4
g12
g6
g17
tp116
I0
s(g9
g16
g10
g25
g12
g13
g14
tp117
I0
s(g1
g16
g3
g11
g26
g6
g39
tp118
I0
s(g9
g22
g3
g11
g26
g6
g17
tp119
I0
s(g36
g2
g3
g25
g5
g13
g39
tp120
I0
s(g36
g2
g3
g11
g12
g13
g14
tp121
F0.0015
s(g1
g22
g3
g25
g5
g6
g17
tp122
I0
s(g1
g16
g3
g4
g26
g13
g14
tp123
I0
s(g9
g2
g3
g25
g26
g13
g39
tp124
I0
s(g9
g22
g10
g11
g26
g13
g23
tp125
F0.001875
s(g9
g2
g10
g25
g5
g6
g39
tp126
I0
s(g36
g2
g3
g25
g26
g6
g14
tp127
I0
s(g9
g22
g3
g4
g5
g6
g23
tp128
I0
s(g20
g22
g3
g11
g12
g13
g39
tp129
I0
s(g1
g16
g10
g25
g5
g6
g17
tp130
F0.0026249999999999997
s(g20
g22
g3
g4
g26
g6
g14
tp131
I0
s(g9
g16
g10
g11
g26
g13
g14
tp132
F0.00075
s(g20
g2
g3
g11
g12
g6
g23
tp133
I0
s(g9
g2
g3
g11
g12
g6
g39
tp134
I0
s(g20
g22
g10
g4
g26
g13
g17
tp135
F0.0
s(g36
g2
g10
g25
g12
g13
g17
tp136
F0.000225
s(g20
g2
g10
g25
g26
g13
g39
tp137
I0
s(g1
g2
g3
g25
g12
g13
g39
tp138
I0
s(g1
g2
g3
g4
g26
g6
g7
tp139
I0
s(g1
g16
g3
g25
g26
g6
g17
tp140
I0
s(g20
g16
g10
g11
g26
g6
g7
tp141
F0.0
s(g9
g16
g10
g25
g12
g13
g39
tp142
I0
s(g1
g16
g3
g11
g12
g13
g39
tp143
I0
s(g36
g22
g3
g25
g26
g13
g7
tp144
I0
s(g20
g22
g3
g25
g5
g13
g17
tp145
I0
s(g20
g16
g3
g4
g26
g13
g7
tp146
I0
s(g1
g22
g3
g4
g5
g13
g23
tp147
I0
s(g1
g2
g10
g25
g26
g13
g39
tp148
I0
s(g36
g2
g10
g4
g5
g13
g23
tp149
I0
s(g36
g2
g3
g25
g12
g13
g14
tp150
I0
s(g36
g16
g3
g4
g12
g6
g7
tp151
I0
s(g36
g2
g3
g4
g12
g13
g14
tp152
I0
s(g9
g16
g3
g25
g26
g13
g39
tp153
I0
s(g36
g22
g10
g4
g5
g13
g7
tp154
I0
s(g20
g2
g3
g4
g26
g13
g39
tp155
F0.0
s(g20
g2
g3
g25
g12
g13
g14
tp156
I0
s(g9
g16
g3
g11
g26
g6
g14
tp157
F0.010499999999999999
s(g36
g22
g3
g4
g26
g13
g7
tp158
I0
s(g36
g16
g3
g4
g5
g13
g7
tp159
I0
s(g20
g2
g10
g4
g12
g6
g39
tp160
F0.0
s(g1
g16
g10
g4
g12
g6
g39
tp161
F0.00378
s(g1
g2
g10
g4
g5
g13
g14
tp162
I0
s(g1
g16
g10
g25
g5
g13
g7
tp163
I0
s(g20
g22
g3
g4
g26
g13
g14
tp164
I0
s(g9
g16
g3
g11
g12
g6
g7
tp165
I0
s(g36
g2
g10
g4
g12
g6
g17
tp166
F0.006299999999999999
s(g1
g16
g3
g25
g5
g13
g17
tp167
I0
s(g9
g16
g3
g4
g26
g13
g7
tp168
I0
s(g9
g22
g3
g11
g26
g13
g17
tp169
I0
s(g20
g22
g3
g11
g26
g13
g23
tp170
F0.0
s(g36
g22
g3
g4
g5
g6
g14
tp171
I0
s(g9
g2
g10
g4
g5
g6
g39
tp172
F0.0567
s(g1
g16
g3
g4
g12
g6
g14
tp173
I0
s(g20
g16
g3
g4
g5
g13
g23
tp174
I0
s(g9
g16
g10
g4
g26
g13
g39
tp175
F0.000405
s(g36
g22
g10
g11
g26
g13
g14
tp176
F0.001875
s(g1
g16
g3
g11
g26
g6
g14
tp177
F0.017499999999999998
s(g1
g16
g3
g4
g5
g13
g7
tp178
I0
s(g1
g2
g10
g11
g12
g6
g14
tp179
F0.06999999999999999
s(g36
g2
g10
g4
g12
g6
g39
tp180
F0.01134
s(g1
g16
g3
g25
g5
g6
g39
tp181
I0
s(g20
g22
g10
g25
g5
g6
g23
tp182
I0
s(g20
g22
g3
g25
g12
g13
g39
tp183
I0
s(g36
g22
g10
g4
g12
g13
g39
tp184
F0.000405
s(g9
g2
g10
g4
g12
g6
g23
tp185
I0
s(g9
g22
g3
g25
g26
g13
g23
tp186
F0.0005625
s(g1
g16
g3
g4
g5
g13
g23
tp187
I0
s(g1
g22
g10
g25
g12
g13
g23
tp188
I0
s(g36
g2
g10
g25
g5
g6
g14
tp189
I0
s(g20
g2
g10
g25
g5
g6
g7
tp190
I0
s(g1
g16
g3
g11
g26
g13
g39
tp191
I0
s(g20
g16
g10
g4
g26
g6
g7
tp192
I0
s(g1
g16
g3
g25
g12
g6
g17
tp193
I0
s(g20
g22
g3
g11
g12
g6
g7
tp194
I0
s(g1
g22
g10
g11
g26
g6
g39
tp195
I0
s(g9
g16
g3
g25
g26
g6
g17
tp196
I0
s(g9
g22
g10
g25
g12
g13
g17
tp197
F0.000225
s(g36
g22
g10
g4
g12
g6
g23
tp198
I0
s(g36
g22
g3
g25
g12
g6
g39
tp199
I0
s(g1
g22
g3
g25
g26
g6
g23
tp200
F0.013125
s(g1
g16
g10
g4
g12
g6
g7
tp201
I0
s(g36
g2
g3
g11
g26
g6
g23
tp202
F0.02625
s(g36
g16
g3
g4
g5
g13
g39
tp203
F0.0002025
s(g9
g22
g3
g25
g26
g6
g7
tp204
I0
s(g9
g22
g10
g25
g5
g13
g7
tp205
I0
s(g9
g2
g10
g11
g26
g13
g17
tp206
F0.00375
s(g9
g2
g3
g11
g26
g6
g7
tp207
I0
s(g36
g2
g3
g11
g12
g13
g39
tp208
I0
s(g36
g2
g3
g25
g5
g6
g17
tp209
I0
s(g20
g16
g10
g25
g5
g6
g17
tp210
F0.0
s(g1
g22
g3
g25
g26
g13
g14
tp211
I0
s(g1
g2
g3
g25
g12
g13
g23
tp212
I0
s(g36
g22
g10
g4
g26
g13
g7
tp213
I0
s(g20
g2
g3
g4
g12
g13
g17
tp214
I0
s(g9
g16
g10
g25
g12
g6
g39
tp215
I0
s(g20
g2
g3
g4
g26
g6
g7
tp216
I0
s(g9
g2
g10
g11
g26
g6
g7
tp217
F0.0525
s(g9
g22
g3
g25
g26
g6
g39
tp218
I0
s(g20
g22
g10
g11
g26
g13
g7
tp219
F0.0
s(g36
g16
g3
g4
g5
g6
g14
tp220
I0
s(g20
g22
g3
g25
g26
g13
g17
tp221
I0
s(g36
g2
g10
g11
g12
g6
g7
tp222
F0.010499999999999999
s(g20
g16
g10
g4
g5
g6
g14
tp223
I0
s(g36
g22
g10
g25
g26
g13
g23
tp224
F0.00028125
s(g9
g22
g10
g4
g12
g6
g7
tp225
I0
s(g9
g22
g10
g4
g26
g6
g23
tp226
F0.01575
s(g1
g2
g10
g11
g26
g6
g23
tp227
F0.0875
s(g9
g22
g10
g25
g12
g6
g14
tp228
I0
s(g9
g16
g3
g25
g12
g13
g17
tp229
I0
s(g20
g16
g3
g11
g26
g6
g7
tp230
I0
s(g36
g2
g3
g11
g26
g13
g23
tp231
F0.001875
s(g20
g16
g10
g25
g12
g6
g39
tp232
I0
s(g1
g2
g10
g4
g12
g13
g7
tp233
I0
s(g36
g22
g10
g11
g12
g13
g14
tp234
F0.00075
s(g9
g2
g10
g25
g12
g13
g14
tp235
I0
s(g1
g16
g10
g4
g5
g6
g23
tp236
I0
s(g9
g2
g10
g4
g5
g13
g39
tp237
F0.00405
s(g20
g2
g10
g25
g12
g13
g39
tp238
I0
s(g1
g2
g3
g25
g26
g6
g14
tp239
I0
s(g36
g22
g3
g4
g5
g6
g39
tp240
F0.014175
s(g1
g22
g10
g4
g26
g6
g14
tp241
I0
s(g9
g2
g10
g4
g12
g6
g7
tp242
I0
s(g9
g16
g3
g4
g26
g6
g7
tp243
I0
s(g20
g22
g10
g4
g26
g13
g14
tp244
I0
s(g36
g16
g10
g25
g26
g6
g23
tp245
F0.0007874999999999999
s(g20
g22
g10
g11
g26
g6
g7
tp246
F0.0
s(g9
g2
g3
g25
g26
g13
g14
tp247
I0
s(g9
g16
g3
g4
g26
g6
g23
tp248
F0.0031499999999999996
s(g36
g22
g3
g25
g12
g13
g39
tp249
I0
s(g1
g16
g3
g4
g26
g6
g23
tp250
F0.0052499999999999995
s(g9
g22
g3
g4
g26
g13
g14
tp251
I0
s(g1
g16
g3
g4
g5
g6
g7
tp252
I0
s(g1
g2
g3
g25
g26
g13
g17
tp253
I0
s(g9
g16
g3
g25
g5
g13
g7
tp254
I0
s(g9
g2
g10
g25
g12
g6
g23
tp255
I0
s(g20
g16
g3
g11
g12
g13
g7
tp256
I0
s(g36
g2
g3
g4
g26
g13
g39
tp257
F0.002025
s(g36
g22
g3
g11
g12
g13
g17
tp258
I0
s(g9
g16
g10
g4
g26
g6
g39
tp259
F0.00567
s(g1
g16
g10
g25
g12
g13
g17
tp260
F7.500000000000001e-05
s(g20
g22
g3
g25
g12
g13
g17
tp261
I0
s(g9
g22
g10
g4
g26
g13
g39
tp262
F0.002025
s(g9
g16
g3
g4
g12
g6
g39
tp263
F0.0022679999999999996
s(g1
g2
g3
g25
g12
g6
g17
tp264
I0
s(g36
g16
g3
g25
g5
g6
g7
tp265
I0
s(g20
g22
g10
g25
g5
g13
g14
tp266
I0
s(g20
g16
g10
g11
g12
g13
g39
tp267
I0
s(g36
g2
g10
g11
g26
g6
g17
tp268
F0.02625
s(g20
g22
g10
g11
g12
g6
g17
tp269
F0.0
s(g36
g22
g10
g25
g26
g13
g7
tp270
I0
s(g1
g2
g3
g11
g12
g6
g7
tp271
I0
s(g9
g16
g3
g4
g5
g13
g7
tp272
I0
s(g9
g22
g3
g11
g12
g13
g23
tp273
I0
s(g9
g2
g3
g25
g5
g13
g23
tp274
I0
s(g1
g2
g10
g4
g26
g13
g23
tp275
F0.00375
s(g20
g16
g3
g4
g12
g6
g14
tp276
I0
s(g9
g16
g10
g25
g26
g6
g14
tp277
I0
s(g36
g2
g10
g4
g5
g6
g7
tp278
I0
s(g36
g22
g10
g25
g26
g6
g23
tp279
F0.0039375
s(g9
g16
g10
g4
g5
g13
g14
tp280
I0
s(g36
g22
g10
g11
g12
g6
g14
tp281
F0.010499999999999999
s(g20
g22
g3
g25
g5
g13
g39
tp282
I0
s(g36
g2
g3
g4
g26
g13
g14
tp283
I0
s(g1
g22
g3
g4
g5
g6
g7
tp284
I0
s(g36
g22
g3
g4
g26
g13
g17
tp285
I0
s(g36
g22
g10
g11
g26
g6
g39
tp286
I0
s(g1
g2
g3
g25
g12
g6
g23
tp287
I0
s(g1
g2
g3
g25
g5
g13
g17
tp288
I0
s(g36
g2
g10
g25
g12
g6
g7
tp289
I0
s(g20
g22
g3
g4
g26
g6
g39
tp290
F0.0
s(g9
g2
g10
g11
g12
g13
g17
tp291
F0.0015
s(g36
g16
g3
g25
g26
g6
g17
tp292
I0
s(g1
g22
g3
g4
g26
g13
g7
tp293
I0
s(g36
g16
g3
g25
g26
g13
g17
tp294
I0
s(g36
g16
g10
g4
g12
g6
g14
tp295
I0
s(g36
g16
g10
g4
g12
g13
g39
tp296
F8.1e-05
s(g36
g16
g10
g25
g26
g6
g7
tp297
I0
s(g20
g22
g3
g11
g12
g6
g23
tp298
I0
s(g1
g22
g3
g25
g26
g6
g7
tp299
I0
s(g20
g16
g3
g25
g26
g13
g23
tp300
F0.0
s(g9
g16
g10
g25
g5
g13
g23
tp301
I0
s(g1
g22
g3
g25
g12
g6
g7
tp302
I0
s(g36
g16
g3
g25
g26
g13
g7
tp303
I0
s(g1
g2
g3
g4
g26
g13
g39
tp304
F0.00675
s(g9
g22
g10
g25
g12
g6
g17
tp305
F0.0031499999999999996
s(g36
g16
g3
g4
g12
g13
g23
tp306
I0
s(g9
g2
g3
g11
g12
g13
g23
tp307
I0
s(g36
g22
g3
g11
g26
g6
g17
tp308
I0
s(g36
g16
g10
g4
g26
g13
g7
tp309
I0
s(g1
g22
g3
g25
g5
g13
g17
tp310
I0
s(g9
g16
g10
g4
g5
g6
g14
tp311
I0
s(g36
g2
g10
g4
g12
g6
g14
tp312
I0
s(g1
g2
g10
g4
g12
g6
g23
tp313
I0
s(g36
g2
g3
g25
g5
g13
g7
tp314
I0
s(g9
g16
g10
g4
g12
g13
g23
tp315
I0
s(g9
g22
g3
g4
g12
g13
g39
tp316
F0.00081
s(g9
g2
g3
g4
g5
g6
g14
tp317
I0
s(g20
g22
g10
g25
g26
g6
g7
tp318
I0
s(g36
g2
g10
g4
g26
g6
g7
tp319
I0
s(g36
g2
g3
g25
g12
g6
g14
tp320
I0
s(g36
g22
g3
g4
g5
g13
g39
tp321
F0.0010125
s(g1
g2
g3
g11
g26
g13
g17
tp322
I0
s(g20
g2
g3
g4
g5
g13
g39
tp323
F0.0
s(g9
g2
g3
g4
g12
g13
g23
tp324
I0
s(g1
g22
g10
g25
g5
g6
g7
tp325
I0
s(g9
g2
g10
g25
g26
g6
g14
tp326
I0
s(g20
g2
g3
g4
g26
g6
g39
tp327
F0.0
s(g36
g22
g10
g11
g26
g6
g7
tp328
F0.013125
s(g20
g2
g10
g4
g12
g13
g39
tp329
F0.0
s(g9
g16
g10
g4
g12
g6
g7
tp330
I0
s(g1
g22
g10
g11
g26
g13
g7
tp331
F0.003125
s(g20
g16
g3
g25
g5
g13
g14
tp332
I0
s(g9
g16
g10
g4
g12
g6
g23
tp333
I0
s(g20
g22
g3
g4
g12
g13
g14
tp334
I0
s(g9
g22
g10
g25
g5
g13
g39
tp335
I0
s(g36
g22
g10
g4
g5
g13
g23
tp336
I0
s(g20
g16
g3
g11
g12
g13
g17
tp337
I0
s(g20
g2
g10
g11
g12
g13
g39
tp338
I0
s(g20
g16
g3
g4
g12
g6
g39
tp339
F0.0
s(g20
g2
g3
g25
g26
g6
g7
tp340
I0
s(g9
g16
g10
g25
g5
g6
g17
tp341
F0.0015749999999999998
s(g36
g16
g10
g4
g5
g13
g7
tp342
I0
s(g20
g16
g10
g25
g26
g6
g7
tp343
I0
s(g9
g2
g10
g4
g12
g13
g7
tp344
I0
s(g20
g16
g3
g25
g5
g6
g17
tp345
I0
s(g1
g22
g10
g4
g5
g13
g39
tp346
F0.003375
s(g36
g2
g10
g4
g26
g6
g39
tp347
F0.02835
s(g1
g22
g10
g11
g12
g6
g17
tp348
F0.017499999999999998
s(g9
g22
g3
g25
g12
g6
g7
tp349
I0
s(g1
g16
g10
g4
g12
g13
g39
tp350
F0.00027000000000000006
s(g20
g22
g3
g11
g12
g13
g23
tp351
I0
s(g36
g22
g10
g25
g12
g6
g17
tp352
F0.0015749999999999998
s(g1
g16
g10
g11
g12
g13
g39
tp353
I0
s(g20
g22
g10
g11
g12
g13
g14
tp354
F0.0
s(g36
g16
g10
g4
g26
g13
g23
tp355
F0.0001125
s(g1
g2
g10
g4
g5
g13
g17
tp356
F0.00375
s(g9
g22
g3
g25
g5
g6
g17
tp357
I0
s(g36
g22
g3
g25
g26
g6
g17
tp358
I0
s(g36
g2
g3
g25
g5
g13
g23
tp359
I0
s(g9
g22
g10
g25
g26
g13
g14
tp360
I0
s(g36
g22
g10
g4
g5
g6
g17
tp361
F0.007875
s(g1
g2
g3
g4
g12
g6
g14
tp362
I0
s(g20
g16
g3
g4
g26
g6
g14
tp363
I0
s(g9
g22
g10
g11
g26
g13
g7
tp364
F0.001875
s(g9
g16
g10
g4
g26
g13
g7
tp365
I0
s(g9
g2
g10
g25
g5
g6
g14
tp366
I0
s(g9
g16
g10
g25
g26
g13
g7
tp367
I0
s(g20
g16
g10
g4
g12
g6
g17
tp368
F0.0
s(g9
g22
g3
g4
g5
g6
g7
tp369
I0
s(g1
g22
g3
g11
g26
g6
g17
tp370
I0
s(g36
g16
g10
g11
g26
g6
g17
tp371
F0.0026249999999999997
s(g9
g16
g3
g25
g26
g13
g23
tp372
F0.0001125
s(g9
g2
g10
g4
g26
g6
g7
tp373
I0
s(g20
g16
g3
g4
g5
g13
g14
tp374
I0
s(g36
g22
g10
g11
g26
g13
g23
tp375
F0.0009375
s(g9
g2
g3
g25
g26
g6
g7
tp376
I0
s(g1
g22
g3
g4
g5
g6
g23
tp377
I0
s(g20
g22
g10
g25
g26
g13
g39
tp378
I0
s(g9
g22
g3
g11
g12
g6
g7
tp379
I0
s(g36
g22
g3
g4
g26
g6
g17
tp380
I0
s(g20
g2
g3
g25
g26
g6
g39
tp381
I0
s(g36
g16
g3
g25
g12
g13
g39
tp382
I0
s(g9
g22
g10
g11
g12
g13
g23
tp383
I0
s(g20
g22
g3
g4
g5
g6
g23
tp384
I0
s(g20
g16
g10
g4
g26
g13
g14
tp385
I0
s(g20
g16
g3
g25
g5
g6
g14
tp386
I0
s(g36
g2
g10
g4
g12
g13
g14
tp387
I0
s(g36
g16
g3
g25
g12
g6
g14
tp388
I0
s(g1
g16
g10
g25
g12
g6
g23
tp389
I0
s(g20
g2
g3
g4
g5
g13
g14
tp390
I0
s(g20
g16
g3
g25
g5
g6
g23
tp391
I0
s(g36
g22
g3
g4
g12
g6
g39
tp392
F0.00567
s(g1
g22
g3
g11
g12
g6
g14
tp393
F0.034999999999999996
s(g20
g22
g10
g25
g5
g13
g17
tp394
F0.0
s(g36
g2
g10
g4
g26
g13
g39
tp395
F0.002025
s(g1
g16
g10
g11
g26
g13
g14
tp396
F0.0012500000000000002
s(g36
g22
g3
g4
g12
g13
g39
tp397
F0.000405
s(g20
g16
g3
g4
g5
g13
g39
tp398
F0.0
s(g20
g2
g3
g4
g12
g6
g17
tp399
I0
s(g20
g16
g3
g4
g5
g6
g14
tp400
I0
s(g1
g16
g3
g11
g12
g13
g7
tp401
I0
s(g36
g2
g10
g25
g26
g13
g7
tp402
I0
s(g36
g22
g10
g25
g5
g13
g17
tp403
F0.00028125
s(g20
g16
g3
g4
g26
g13
g39
tp404
F0.0
s(g36
g2
g3
g11
g12
g6
g14
tp405
F0.020999999999999998
s(g9
g16
g3
g11
g26
g13
g39
tp406
I0
s(g9
g2
g10
g11
g12
g6
g23
tp407
I0
s(g36
g2
g3
g25
g5
g6
g7
tp408
I0
s(g36
g22
g3
g25
g12
g6
g14
tp409
I0
s(g36
g2
g10
g11
g12
g13
g14
tp410
F0.0015
s(g20
g22
g10
g11
g26
g13
g23
tp411
F0.0
s(g1
g22
g3
g11
g26
g6
g14
tp412
F0.0875
s(g20
g22
g3
g25
g12
g13
g7
tp413
I0
s(g20
g16
g10
g4
g12
g6
g7
tp414
I0
s(g9
g16
g10
g11
g26
g13
g23
tp415
F0.000375
s(g20
g2
g3
g25
g12
g6
g14
tp416
I0
s(g1
g16
g10
g4
g26
g13
g17
tp417
F0.000375
s(g20
g2
g3
g11
g26
g13
g7
tp418
I0
s(g1
g22
g3
g25
g26
g6
g39
tp419
I0
s(g20
g2
g10
g25
g12
g13
g7
tp420
I0
s(g20
g22
g3
g25
g26
g13
g7
tp421
I0
s(g1
g22
g10
g11
g12
g6
g39
tp422
I0
s(g9
g2
g3
g4
g26
g6
g14
tp423
I0
s(g9
g22
g3
g25
g5
g13
g17
tp424
I0
s(g20
g2
g10
g11
g26
g13
g7
tp425
F0.0
s(g20
g2
g3
g11
g12
g13
g7
tp426
I0
s(g1
g22
g3
g4
g26
g6
g17
tp427
I0
s(g9
g16
g3
g4
g5
g6
g7
tp428
I0
s(g1
g16
g10
g11
g12
g13
g17
tp429
F0.00025000000000000006
s(g20
g2
g10
g25
g12
g6
g14
tp430
I0
s(g36
g22
g10
g25
g12
g13
g17
tp431
F0.0001125
s(g20
g22
g10
g11
g12
g13
g17
tp432
F0.0
s(g36
g22
g3
g11
g12
g6
g23
tp433
I0
s(g1
g16
g10
g11
g26
g6
g17
tp434
F0.008749999999999999
s(g1
g22
g10
g11
g26
g13
g17
tp435
F0.003125
s(g9
g16
g3
g4
g26
g13
g17
tp436
I0
s(g1
g16
g10
g4
g26
g13
g39
tp437
F0.000675
s(g9
g22
g10
g4
g26
g6
g39
tp438
F0.02835
s(g1
g22
g10
g25
g5
g6
g17
tp439
F0.013125
s(g1
g22
g10
g25
g5
g13
g7
tp440
I0
s(g9
g16
g3
g11
g26
g6
g39
tp441
I0
s(g36
g22
g10
g11
g12
g6
g23
tp442
I0
s(g36
g22
g3
g4
g12
g6
g14
tp443
I0
s(g36
g16
g3
g11
g12
g13
g39
tp444
I0
s(g1
g2
g10
g25
g12
g6
g39
tp445
I0
s(g9
g2
g3
g11
g26
g13
g17
tp446
I0
s(g1
g16
g10
g4
g5
g13
g7
tp447
I0
s(g1
g16
g3
g4
g26
g13
g17
tp448
I0
s(g1
g22
g3
g25
g5
g13
g7
tp449
I0
s(g20
g2
g10
g25
g5
g6
g23
tp450
I0
s(g36
g16
g3
g4
g12
g6
g17
tp451
I0
s(g36
g2
g10
g11
g26
g13
g7
tp452
F0.001875
s(g1
g2
g10
g11
g26
g6
g39
tp453
I0
s(g9
g2
g10
g4
g5
g6
g23
tp454
I0
s(g36
g16
g10
g25
g26
g13
g17
tp455
F5.625e-05
s(g20
g22
g10
g25
g5
g6
g14
tp456
I0
s(g20
g16
g10
g25
g12
g6
g23
tp457
I0
s(g9
g2
g3
g25
g12
g6
g14
tp458
I0
s(g36
g2
g3
g4
g26
g13
g23
tp459
F0.001125
s(g36
g2
g10
g11
g26
g13
g17
tp460
F0.001875
s(g1
g16
g3
g25
g5
g6
g14
tp461
I0
s(g36
g22
g10
g4
g26
g13
g23
tp462
F0.0005625
s(g1
g16
g10
g25
g12
g13
g14
tp463
I0
s(g1
g2
g3
g11
g26
g13
g14
tp464
F0.0125
s(g9
g16
g3
g11
g12
g6
g17
tp465
I0
s(g9
g22
g10
g4
g26
g13
g7
tp466
I0
s(g1
g2
g10
g25
g5
g6
g17
tp467
F0.02625
s(g1
g22
g10
g4
g12
g6
g23
tp468
I0
s(g9
g16
g10
g4
g26
g6
g17
tp469
F0.0031499999999999996
s(g9
g2
g3
g11
g12
g13
g7
tp470
I0
s(g1
g2
g3
g4
g12
g6
g39
tp471
F0.0378
s(g9
g22
g3
g11
g26
g6
g23
tp472
F0.02625
s(g36
g16
g10
g25
g5
g13
g7
tp473
I0
s(g20
g16
g10
g4
g12
g13
g7
tp474
I0
s(g9
g22
g3
g4
g12
g6
g39
tp475
F0.01134
s(g9
g2
g3
g25
g5
g13
g39
tp476
I0
s(g9
g2
g3
g25
g12
g13
g17
tp477
I0
s(g9
g22
g3
g4
g5
g13
g14
tp478
I0
s(g20
g22
g3
g11
g26
g6
g23
tp479
F0.0
s(g1
g2
g10
g25
g12
g6
g17
tp480
F0.010499999999999999
s(g20
g16
g3
g25
g26
g6
g14
tp481
I0
s(g9
g16
g10
g11
g12
g13
g39
tp482
I0
s(g20
g2
g10
g25
g5
g13
g23
tp483
I0
s(g36
g22
g3
g11
g26
g6
g14
tp484
F0.02625
s(g20
g16
g10
g11
g26
g6
g14
tp485
F0.0
s(g20
g2
g10
g4
g26
g13
g23
tp486
F0.0
s(g20
g16
g3
g4
g12
g13
g23
tp487
I0
s(g1
g22
g10
g25
g5
g13
g17
tp488
F0.0009375
s(g20
g2
g3
g4
g5
g6
g17
tp489
I0
s(g1
g16
g3
g4
g26
g6
g14
tp490
I0
s(g36
g2
g3
g4
g5
g13
g17
tp491
I0
s(g20
g16
g3
g4
g26
g13
g17
tp492
I0
s(g20
g22
g3
g4
g26
g6
g23
tp493
F0.0
s(g36
g16
g3
g25
g12
g6
g39
tp494
I0
s(g20
g22
g10
g4
g12
g13
g39
tp495
F0.0
s(g36
g16
g10
g25
g5
g6
g23
tp496
I0
s(g1
g22
g10
g11
g26
g13
g39
tp497
I0
s(g36
g22
g3
g4
g12
g13
g14
tp498
I0
s(g36
g16
g10
g4
g12
g13
g23
tp499
I0
s(g9
g2
g3
g25
g26
g6
g23
tp500
F0.01575
s(g20
g22
g10
g4
g5
g13
g17
tp501
F0.0
s(g1
g16
g3
g4
g12
g6
g17
tp502
I0
s(g20
g16
g10
g25
g5
g13
g7
tp503
I0
s(g36
g2
g3
g4
g26
g6
g17
tp504
I0
s(g36
g22
g3
g4
g5
g13
g7
tp505
I0
s(g1
g2
g10
g25
g5
g6
g7
tp506
I0
s(g9
g22
g3
g4
g12
g6
g7
tp507
I0
s(g36
g22
g3
g25
g26
g6
g14
tp508
I0
s(g36
g16
g3
g25
g12
g13
g23
tp509
I0
s(g20
g2
g10
g25
g12
g6
g7
tp510
I0
s(g1
g22
g10
g4
g26
g6
g23
tp511
F0.02625
s(g9
g16
g10
g4
g12
g13
g39
tp512
F0.000162
s(g36
g16
g10
g25
g12
g13
g14
tp513
I0
s(g36
g2
g3
g25
g26
g13
g17
tp514
I0
s(g9
g2
g3
g11
g26
g13
g14
tp515
F0.0075
s(g20
g22
g3
g4
g12
g13
g23
tp516
I0
s(g20
g22
g10
g11
g26
g6
g23
tp517
F0.0
s(g9
g2
g10
g25
g26
g13
g14
tp518
I0
s(g9
g22
g3
g25
g12
g13
g39
tp519
I0
s(g20
g2
g10
g25
g12
g6
g23
tp520
I0
s(g20
g22
g10
g25
g12
g13
g23
tp521
I0
s(g1
g22
g3
g4
g26
g13
g17
tp522
I0
s(g20
g22
g3
g25
g5
g6
g23
tp523
I0
s(g20
g22
g3
g4
g12
g13
g39
tp524
F0.0
s(g9
g16
g3
g11
g12
g13
g17
tp525
I0
s(g20
g16
g3
g25
g12
g6
g23
tp526
I0
s(g1
g22
g3
g4
g12
g6
g17
tp527
I0
s(g20
g16
g10
g25
g5
g6
g14
tp528
I0
s(g20
g2
g10
g11
g12
g6
g7
tp529
F0.0
s(g20
g2
g10
g4
g5
g13
g39
tp530
F0.0
s(g1
g2
g3
g4
g5
g13
g17
tp531
I0
s(g9
g2
g3
g4
g26
g13
g14
tp532
I0
s(g9
g22
g10
g25
g26
g13
g17
tp533
F0.0005625
s(g9
g16
g10
g11
g26
g6
g7
tp534
F0.0052499999999999995
s(g20
g22
g10
g25
g26
g6
g17
tp535
F0.0
s(g20
g16
g10
g4
g5
g13
g14
tp536
I0
s(g20
g22
g3
g11
g26
g13
g17
tp537
I0
s(g9
g22
g10
g11
g12
g6
g23
tp538
I0
s(g9
g2
g10
g25
g12
g13
g7
tp539
I0
s(g1
g22
g10
g11
g12
g13
g17
tp540
F0.0012500000000000002
s(g9
g22
g3
g4
g12
g13
g23
tp541
I0
s(g1
g2
g3
g4
g12
g13
g7
tp542
I0
s(g20
g2
g3
g25
g5
g6
g17
tp543
I0
s(g1
g2
g10
g25
g26
g13
g7
tp544
I0
s(g36
g16
g3
g25
g5
g6
g17
tp545
I0
s(g1
g2
g3
g4
g5
g13
g39
tp546
F0.00675
s(g9
g16
g3
g11
g12
g13
g14
tp547
F0.00030000000000000003
s(g20
g16
g10
g11
g12
g6
g17
tp548
F0.0
s(g36
g16
g3
g4
g26
g6
g14
tp549
I0
s(g9
g22
g3
g4
g26
g13
g23
tp550
F0.001125
s(g20
g22
g10
g4
g26
g6
g23
tp551
F0.0
s(g1
g22
g10
g25
g26
g6
g7
tp552
I0
s(g1
g16
g3
g25
g5
g13
g14
tp553
I0
s(g20
g2
g3
g25
g5
g6
g7
tp554
I0
s(g36
g16
g10
g25
g5
g6
g7
tp555
I0
s(g9
g2
g3
g11
g26
g6
g17
tp556
I0
s(g9
g2
g3
g4
g12
g13
g7
tp557
I0
s(g9
g2
g10
g25
g12
g13
g17
tp558
F0.00045
s(g9
g22
g3
g11
g12
g6
g23
tp559
I0
s(g20
g2
g10
g4
g12
g13
g14
tp560
I0
s(g36
g2
g3
g25
g12
g13
g23
tp561
I0
s(g1
g22
g3
g4
g12
g13
g7
tp562
I0
s(g20
g16
g10
g11
g12
g6
g7
tp563
F0.0
s(g1
g2
g3
g25
g5
g6
g7
tp564
I0
s(g1
g2
g10
g25
g12
g13
g7
tp565
I0
s(g20
g2
g10
g4
g5
g6
g23
tp566
I0
s(g1
g22
g10
g4
g12
g6
g7
tp567
I0
s(g9
g2
g3
g25
g26
g6
g39
tp568
I0
s(g1
g22
g10
g11
g26
g6
g17
tp569
F0.04375
s(g36
g22
g10
g4
g26
g6
g17
tp570
F0.007875
s(g20
g2
g10
g11
g12
g13
g23
tp571
I0
s(g20
g16
g10
g4
g5
g13
g39
tp572
F0.0
s(g20
g2
g3
g11
g26
g13
g17
tp573
I0
s(g9
g16
g10
g25
g5
g13
g7
tp574
I0
s(g9
g2
g3
g11
g12
g6
g7
tp575
I0
s(g9
g16
g10
g11
g26
g6
g23
tp576
F0.0052499999999999995
s(g36
g16
g3
g25
g5
g6
g39
tp577
I0
s(g9
g16
g10
g11
g12
g13
g17
tp578
F0.00015000000000000001
s(g20
g16
g3
g25
g5
g13
g23
tp579
I0
s(g20
g2
g10
g4
g12
g6
g14
tp580
I0
s(g9
g22
g10
g4
g5
g13
g7
tp581
I0
s(g1
g2
g10
g4
g12
g6
g14
tp582
I0
s(g9
g2
g3
g25
g5
g6
g17
tp583
I0
s(g20
g16
g3
g25
g12
g6
g7
tp584
I0
s(g9
g2
g3
g4
g5
g13
g23
tp585
I0
s(g20
g2
g3
g11
g26
g13
g39
tp586
I0
s(g36
g2
g3
g4
g26
g6
g7
tp587
I0
s(g1
g2
g3
g4
g26
g13
g14
tp588
I0
s(g9
g16
g3
g4
g12
g13
g17
tp589
I0
s(g20
g16
g10
g25
g26
g13
g39
tp590
I0
s(g36
g16
g10
g25
g12
g6
g14
tp591
I0
s(g9
g22
g3
g4
g5
g13
g17
tp592
I0
s(g36
g2
g3
g25
g26
g6
g39
tp593
I0
s(g1
g16
g10
g25
g12
g6
g39
tp594
I0
s(g9
g2
g10
g25
g5
g13
g17
tp595
F0.001125
s(g36
g2
g3
g11
g12
g13
g17
tp596
I0
s(g36
g2
g10
g4
g26
g13
g23
tp597
F0.001125
s(g36
g2
g3
g4
g12
g13
g23
tp598
I0
s(g1
g16
g10
g4
g12
g13
g14
tp599
I0
s(g20
g2
g10
g11
g26
g13
g17
tp600
F0.0
s(g20
g16
g10
g25
g12
g13
g17
tp601
F0.0
s(g1
g16
g3
g4
g12
g13
g17
tp602
I0
s(g20
g22
g10
g4
g12
g6
g14
tp603
I0
s(g1
g2
g10
g25
g26
g6
g23
tp604
F0.02625
s(g9
g2
g3
g25
g12
g13
g7
tp605
I0
s(g20
g2
g3
g11
g12
g6
g14
tp606
F0.0
s(g20
g22
g10
g25
g26
g13
g14
tp607
I0
s(g1
g22
g10
g4
g26
g13
g7
tp608
I0
s(g36
g2
g10
g4
g26
g13
g7
tp609
I0
s(g1
g22
g10
g4
g12
g13
g14
tp610
I0
s(g36
g16
g10
g11
g12
g6
g7
tp611
F0.00105
s(g20
g2
g10
g25
g12
g13
g17
tp612
F0.0
s(g20
g2
g10
g4
g26
g6
g39
tp613
F0.0
s(g20
g2
g10
g4
g5
g13
g17
tp614
F0.0
s(g20
g22
g3
g25
g12
g6
g14
tp615
I0
s(g20
g16
g10
g11
g26
g13
g17
tp616
F0.0
s(g1
g16
g3
g25
g26
g6
g39
tp617
I0
s(g20
g16
g10
g11
g12
g13
g7
tp618
F0.0
s(g36
g16
g3
g11
g26
g6
g23
tp619
F0.0026249999999999997
s(g1
g16
g10
g25
g12
g6
g14
tp620
I0
s(g36
g16
g10
g11
g26
g13
g17
tp621
F0.0001875
s(g1
g22
g3
g11
g12
g6
g17
tp622
I0
s(g20
g16
g10
g4
g12
g13
g17
tp623
F0.0
s(g9
g22
g10
g4
g12
g13
g17
tp624
F0.00045
s(g36
g16
g10
g11
g26
g13
g7
tp625
F0.0001875
s(g9
g16
g3
g11
g26
g13
g23
tp626
F0.000375
s(g36
g16
g3
g4
g5
g6
g17
tp627
I0
s(g1
g2
g3
g11
g26
g6
g23
tp628
F0.0875
s(g1
g16
g3
g25
g5
g13
g39
tp629
I0
s(g1
g2
g10
g25
g26
g6
g7
tp630
I0
s(g20
g22
g10
g25
g26
g13
g23
tp631
F0.0
s(g20
g22
g3
g25
g12
g6
g39
tp632
I0
s(g1
g22
g3
g4
g26
g6
g14
tp633
I0
s(g1
g16
g10
g4
g5
g13
g23
tp634
I0
s(g36
g22
g3
g11
g12
g6
g39
tp635
I0
s(g36
g16
g3
g4
g5
g6
g39
tp636
F0.002835
s(g36
g22
g10
g4
g12
g13
g14
tp637
I0
s(g20
g22
g3
g25
g12
g6
g7
tp638
I0
s(g36
g2
g3
g4
g5
g6
g23
tp639
I0
s(g1
g2
g3
g11
g12
g13
g17
tp640
I0
s(g20
g2
g10
g4
g5
g6
g7
tp641
I0
s(g9
g22
g3
g4
g26
g6
g7
tp642
I0
s(g1
g2
g10
g25
g12
g13
g23
tp643
I0
s(g20
g16
g3
g4
g26
g6
g17
tp644
I0
s(g36
g16
g3
g4
g12
g13
g14
tp645
I0
s(g1
g22
g3
g11
g12
g13
g17
tp646
I0
s(g36
g22
g10
g25
g26
g6
g14
tp647
I0
s(g20
g22
g10
g25
g26
g6
g23
tp648
F0.0
s(g9
g2
g3
g4
g5
g6
g17
tp649
I0
s(g36
g22
g10
g4
g5
g13
g14
tp650
I0
s(g1
g2
g3
g4
g12
g13
g17
tp651
I0
s(g9
g16
g3
g25
g12
g13
g39
tp652
I0
s(g20
g22
g3
g25
g26
g6
g14
tp653
I0
s(g36
g16
g3
g25
g5
g13
g23
tp654
I0
s(g9
g16
g10
g25
g12
g6
g7
tp655
I0
s(g9
g16
g10
g25
g26
g13
g17
tp656
F0.0001125
s(g1
g2
g10
g4
g5
g6
g7
tp657
I0
s(g1
g16
g10
g25
g26
g6
g14
tp658
I0
s(g36
g22
g10
g25
g12
g13
g7
tp659
I0
s(g9
g16
g10
g4
g26
g13
g17
tp660
F0.000225
s(g36
g22
g3
g11
g26
g13
g7
tp661
I0
s(g36
g2
g10
g25
g12
g13
g7
tp662
I0
s(g9
g2
g10
g4
g26
g13
g7
tp663
I0
s(g1
g16
g10
g4
g26
g13
g7
tp664
I0
s(g1
g2
g10
g25
g12
g13
g17
tp665
F0.00075
s(g20
g2
g3
g4
g5
g6
g7
tp666
I0
s(g20
g22
g3
g4
g26
g13
g7
tp667
I0
s(g1
g22
g3
g11
g26
g13
g39
tp668
I0
s(g36
g16
g10
g25
g5
g13
g17
tp669
F5.625e-05
s(g1
g2
g3
g25
g26
g13
g7
tp670
I0
s(g1
g2
g3
g4
g5
g6
g14
tp671
I0
s(g20
g22
g3
g4
g12
g6
g23
tp672
I0
s(g9
g16
g10
g11
g12
g13
g7
tp673
F0.00015000000000000001
s(g1
g22
g10
g25
g26
g13
g17
tp674
F0.0009375
s(g9
g22
g3
g11
g12
g13
g14
tp675
F0.0015
s(g36
g16
g10
g25
g5
g13
g39
tp676
I0
s(g36
g22
g3
g11
g26
g6
g39
tp677
I0
s(g1
g2
g3
g4
g12
g6
g23
tp678
I0
s(g1
g22
g10
g11
g12
g6
g7
tp679
F0.017499999999999998
s(g9
g16
g10
g4
g5
g13
g17
tp680
F0.000225
s(g1
g16
g3
g4
g5
g13
g14
tp681
I0
s(g9
g22
g3
g11
g26
g6
g7
tp682
I0
s(g1
g16
g3
g25
g12
g6
g14
tp683
I0
s(g36
g2
g3
g4
g12
g6
g7
tp684
I0
s(g36
g22
g10
g11
g12
g13
g7
tp685
F0.000375
s(g9
g22
g3
g4
g12
g6
g23
tp686
I0
s(g1
g22
g3
g25
g12
g6
g39
tp687
I0
s(g1
g2
g10
g11
g12
g13
g7
tp688
F0.0025000000000000005
s(g20
g2
g10
g25
g26
g13
g17
tp689
F0.0
s(g1
g22
g3
g4
g12
g13
g17
tp690
I0
s(g1
g22
g10
g4
g26
g6
g7
tp691
I0
s(g20
g22
g3
g11
g12
g6
g14
tp692
F0.0
s(g1
g2
g3
g11
g26
g13
g39
tp693
I0
s(g1
g2
g3
g25
g26
g6
g23
tp694
F0.02625
s(g36
g16
g10
g4
g12
g6
g23
tp695
I0
s(g1
g22
g3
g25
g12
g13
g17
tp696
I0
s(g9
g2
g3
g25
g12
g6
g17
tp697
I0
s(g9
g2
g10
g25
g26
g6
g17
tp698
F0.01575
s(g20
g16
g3
g25
g12
g13
g39
tp699
I0
s(g20
g2
g3
g4
g26
g13
g23
tp700
F0.0
s(g20
g2
g10
g4
g12
g13
g17
tp701
F0.0
s(g36
g16
g3
g25
g12
g6
g23
tp702
I0
s(g9
g2
g10
g25
g26
g13
g23
tp703
F0.001125
s(g1
g16
g3
g4
g5
g6
g14
tp704
I0
s(g1
g2
g10
g4
g26
g13
g14
tp705
I0
s(g36
g2
g10
g25
g5
g6
g17
tp706
F0.007875
s(g1
g2
g3
g11
g12
g6
g17
tp707
I0
s(g20
g2
g10
g4
g5
g13
g23
tp708
I0
s(g1
g2
g10
g25
g12
g6
g7
tp709
I0
s(g20
g22
g10
g25
g26
g13
g7
tp710
I0
s(g1
g16
g10
g11
g26
g13
g23
tp711
F0.0006250000000000001
s(g20
g2
g10
g11
g26
g6
g14
tp712
F0.0
s(g20
g22
g10
g11
g26
g13
g17
tp713
F0.0
s(g9
g22
g10
g11
g26
g6
g17
tp714
F0.02625
s(g1
g2
g3
g25
g5
g6
g39
tp715
I0
s(g36
g2
g3
g25
g5
g13
g17
tp716
I0
s(g20
g16
g10
g4
g5
g6
g23
tp717
I0
s(g36
g22
g3
g4
g5
g6
g17
tp718
I0
s(g9
g16
g3
g25
g12
g6
g17
tp719
I0
s(g1
g22
g10
g25
g26
g13
g14
tp720
I0
s(g36
g22
g3
g25
g12
g13
g17
tp721
I0
s(g9
g16
g3
g25
g5
g13
g23
tp722
I0
s(g1
g16
g3
g25
g26
g13
g17
tp723
I0
s(g9
g22
g3
g25
g5
g13
g7
tp724
I0
s(g36
g22
g10
g11
g12
g13
g17
tp725
F0.000375
s(g9
g2
g3
g25
g5
g6
g14
tp726
I0
s(g1
g2
g3
g25
g12
g13
g14
tp727
I0
s(g20
g16
g3
g11
g26
g6
g14
tp728
F0.0
s(g9
g22
g10
g25
g26
g6
g17
tp729
F0.007875
s(g36
g2
g3
g25
g26
g13
g7
tp730
I0
s(g9
g2
g10
g25
g26
g6
g39
tp731
I0
s(g36
g2
g3
g4
g26
g13
g7
tp732
I0
s(g20
g22
g10
g4
g26
g13
g23
tp733
F0.0
s(g36
g16
g3
g11
g26
g13
g7
tp734
I0
s(g1
g2
g3
g4
g5
g13
g14
tp735
I0
s(g36
g2
g10
g25
g12
g6
g14
tp736
I0
s(g9
g2
g10
g4
g26
g13
g23
tp737
F0.00225
s(g1
g22
g10
g25
g12
g6
g7
tp738
I0
s(g1
g22
g10
g4
g26
g6
g39
tp739
F0.04725
s(g36
g22
g3
g4
g5
g13
g17
tp740
I0
s(g9
g2
g3
g25
g12
g6
g39
tp741
I0
s(g1
g2
g3
g25
g5
g13
g39
tp742
I0
s(g1
g16
g3
g11
g12
g6
g39
tp743
I0
s(g20
g22
g3
g4
g26
g13
g17
tp744
I0
s(g20
g22
g10
g25
g12
g13
g7
tp745
I0
s(g20
g22
g10
g25
g12
g13
g39
tp746
I0
s(g9
g22
g3
g4
g26
g13
g39
tp747
F0.002025
s(g1
g22
g3
g25
g26
g6
g14
tp748
I0
s(g20
g16
g10
g4
g12
g6
g39
tp749
F0.0
s(g9
g16
g10
g4
g5
g6
g39
tp750
F0.00567
s(g20
g16
g3
g4
g5
g6
g7
tp751
I0
s(g9
g16
g10
g25
g26
g13
g14
tp752
I0
s(g20
g16
g3
g25
g12
g6
g39
tp753
I0
s(g36
g22
g3
g11
g12
g6
g14
tp754
F0.010499999999999999
s(g20
g22
g3
g11
g12
g13
g17
tp755
I0
s(g9
g16
g3
g25
g12
g6
g7
tp756
I0
s(g1
g2
g10
g11
g12
g13
g14
tp757
F0.005000000000000001
s(g36
g22
g10
g11
g12
g6
g7
tp758
F0.0052499999999999995
s(g36
g16
g10
g4
g12
g13
g7
tp759
I0
s(g1
g2
g3
g25
g12
g6
g14
tp760
I0
s(g1
g2
g10
g11
g12
g6
g23
tp761
I0
s(g20
g22
g3
g4
g26
g6
g7
tp762
I0
s(g9
g22
g10
g4
g12
g6
g39
tp763
F0.01134
s(g9
g16
g3
g4
g12
g13
g14
tp764
I0
s(g36
g16
g10
g25
g12
g13
g39
tp765
I0
s(g9
g16
g3
g4
g5
g13
g14
tp766
I0
s(g9
g16
g10
g11
g12
g6
g23
tp767
I0
s(g36
g2
g10
g4
g26
g6
g17
tp768
F0.01575
s(g9
g22
g10
g25
g5
g13
g17
tp769
F0.0005625
s(g20
g16
g10
g25
g26
g13
g14
tp770
I0
s(g9
g22
g3
g11
g26
g13
g23
tp771
F0.001875
s(g9
g16
g10
g11
g12
g6
g7
tp772
F0.0021
s(g20
g16
g3
g25
g5
g13
g7
tp773
I0
s(g36
g2
g10
g4
g5
g6
g39
tp774
F0.02835
s(g36
g2
g3
g4
g5
g6
g7
tp775
I0
s(g1
g22
g3
g25
g5
g6
g23
tp776
I0
s(g36
g22
g10
g4
g12
g6
g14
tp777
I0
s(g20
g22
g10
g4
g12
g13
g7
tp778
I0
s(g9
g22
g10
g4
g12
g13
g14
tp779
I0
s(g1
g22
g10
g11
g26
g13
g14
tp780
F0.00625
s(g9
g16
g10
g25
g26
g6
g39
tp781
I0
s(g36
g2
g3
g11
g26
g6
g14
tp782
F0.0525
s(g36
g2
g3
g25
g12
g13
g7
tp783
I0
s(g36
g2
g3
g4
g12
g13
g7
tp784
I0
s(g9
g22
g3
g4
g5
g6
g17
tp785
I0
s(g20
g2
g10
g11
g12
g6
g23
tp786
I0
s(g1
g2
g3
g4
g26
g6
g23
tp787
F0.0525
s(g36
g2
g10
g25
g26
g6
g23
tp788
F0.007875
s(g20
g16
g3
g25
g26
g13
g14
tp789
I0
s(g20
g2
g3
g4
g5
g13
g7
tp790
I0
s(g20
g2
g10
g4
g26
g13
g39
tp791
F0.0
s(g20
g22
g3
g11
g26
g13
g14
tp792
F0.0
s(g1
g22
g10
g4
g12
g13
g23
tp793
I0
s(g9
g2
g10
g4
g26
g6
g39
tp794
F0.0567
s(g36
g22
g3
g25
g5
g13
g17
tp795
I0
s(g1
g2
g10
g4
g5
g13
g7
tp796
I0
s(g1
g16
g10
g25
g5
g13
g14
tp797
I0
s(g20
g22
g10
g4
g12
g6
g39
tp798
F0.0
s(g1
g16
g3
g4
g26
g13
g7
tp799
I0
s(g20
g16
g10
g25
g26
g6
g23
tp800
F0.0
s(g9
g22
g10
g4
g12
g6
g17
tp801
F0.006299999999999999
s(g1
g2
g10
g4
g26
g6
g23
tp802
F0.0525
s(g1
g22
g10
g25
g26
g6
g23
tp803
F0.013125
s(g9
g22
g10
g11
g26
g13
g39
tp804
I0
s(g36
g2
g10
g11
g26
g6
g39
tp805
I0
s(g20
g2
g10
g4
g5
g13
g7
tp806
I0
s(g36
g16
g3
g4
g26
g6
g17
tp807
I0
s(g9
g16
g10
g25
g5
g6
g39
tp808
I0
s(g36
g22
g3
g11
g12
g13
g14
tp809
F0.00075
s(g9
g2
g3
g4
g5
g6
g7
tp810
I0
s(g20
g2
g3
g11
g26
g6
g23
tp811
F0.0
s(g20
g22
g10
g4
g12
g13
g17
tp812
F0.0
s(g1
g2
g10
g25
g26
g6
g39
tp813
I0
s(g1
g22
g10
g4
g5
g13
g17
tp814
F0.001875
s(g1
g22
g10
g25
g5
g13
g14
tp815
I0
s(g1
g16
g10
g25
g26
g13
g17
tp816
F0.0001875
s(g1
g16
g10
g4
g5
g6
g17
tp817
F0.0052499999999999995
s(g1
g16
g3
g11
g26
g6
g23
tp818
F0.008749999999999999
s(g36
g22
g3
g25
g26
g13
g14
tp819
I0
s(g20
g16
g3
g4
g26
g13
g14
tp820
I0
s(g20
g22
g3
g4
g5
g6
g14
tp821
I0
s(g9
g2
g10
g25
g26
g6
g7
tp822
I0
s(g36
g22
g10
g4
g26
g13
g17
tp823
F0.0005625
s(g20
g2
g3
g25
g12
g6
g7
tp824
I0
s(g36
g2
g10
g25
g5
g6
g7
tp825
I0
s(g36
g22
g10
g25
g26
g6
g39
tp826
I0
s(g36
g22
g10
g11
g12
g6
g39
tp827
I0
s(g1
g22
g10
g4
g5
g13
g7
tp828
I0
s(g9
g2
g10
g25
g5
g6
g23
tp829
I0
s(g1
g16
g10
g4
g26
g6
g23
tp830
F0.0052499999999999995
s(g9
g2
g10
g11
g12
g13
g39
tp831
I0
s(g9
g2
g10
g4
g26
g6
g14
tp832
I0
s(g36
g2
g3
g11
g26
g13
g17
tp833
I0
s(g1
g16
g10
g25
g5
g13
g39
tp834
I0
s(g36
g2
g3
g4
g12
g13
g39
tp835
F0.00081
s(g1
g16
g10
g4
g26
g6
g7
tp836
I0
s(g9
g2
g3
g4
g12
g6
g39
tp837
F0.02268
s(g36
g16
g3
g11
g26
g6
g39
tp838
I0
s(g1
g2
g10
g4
g12
g13
g39
tp839
F0.0027
s(g36
g22
g3
g4
g26
g13
g14
tp840
I0
s(g20
g2
g3
g11
g12
g6
g39
tp841
I0
s(g36
g16
g10
g4
g5
g13
g14
tp842
I0
s(g1
g16
g3
g25
g12
g13
g14
tp843
I0
s(g9
g22
g10
g25
g5
g13
g14
tp844
I0
s(g36
g16
g3
g25
g12
g6
g7
tp845
I0
s(g1
g22
g10
g25
g12
g13
g7
tp846
I0
s(g9
g22
g3
g25
g5
g6
g39
tp847
I0
s(g9
g2
g10
g4
g12
g6
g17
tp848
F0.012599999999999998
s(g1
g22
g3
g25
g26
g13
g7
tp849
I0
s(g9
g16
g10
g4
g12
g13
g7
tp850
I0
s(g36
g2
g10
g25
g5
g13
g17
tp851
F0.0005625
s(g1
g22
g3
g11
g12
g6
g7
tp852
I0
s(g9
g16
g10
g25
g26
g13
g39
tp853
I0
s(g36
g16
g10
g25
g26
g13
g14
tp854
I0
s(g20
g22
g10
g25
g12
g6
g7
tp855
I0
s(g9
g2
g3
g25
g5
g13
g14
tp856
I0
s(g1
g22
g10
g25
g12
g6
g17
tp857
F0.0052499999999999995
s(g36
g22
g3
g25
g26
g13
g39
tp858
I0
s(g36
g22
g3
g4
g12
g13
g17
tp859
I0
s(g1
g16
g3
g25
g26
g6
g23
tp860
F0.0026249999999999997
s(g20
g2
g3
g25
g12
g13
g17
tp861
I0
s(g9
g22
g10
g25
g12
g13
g23
tp862
I0
s(g20
g2
g3
g11
g26
g6
g7
tp863
I0
s(g1
g22
g3
g25
g26
g13
g17
tp864
I0
s(g9
g2
g10
g4
g26
g6
g17
tp865
F0.0315
s(g20
g16
g3
g4
g12
g6
g17
tp866
I0
s(g1
g22
g3
g25
g26
g6
g17
tp867
I0
s(g36
g2
g10
g25
g26
g13
g17
tp868
F0.0005625
s(g9
g16
g3
g25
g5
g6
g23
tp869
I0
s(g1
g2
g10
g4
g5
g6
g17
tp870
F0.0525
s(g36
g2
g10
g4
g5
g13
g17
tp871
F0.001125
s(g9
g2
g10
g4
g12
g6
g39
tp872
F0.02268
s(g9
g2
g10
g25
g5
g6
g7
tp873
I0
s(g20
g22
g10
g4
g12
g6
g17
tp874
F0.0
s(g20
g2
g10
g25
g5
g6
g14
tp875
I0
s(g1
g16
g3
g11
g26
g13
g23
tp876
F0.0006250000000000001
s(g20
g16
g10
g4
g12
g6
g14
tp877
I0
s(g20
g2
g3
g4
g5
g6
g23
tp878
I0
s(g36
g2
g3
g4
g5
g13
g7
tp879
I0
s(g1
g2
g10
g11
g26
g6
g7
tp880
F0.0875
s(g20
g22
g10
g11
g26
g6
g14
tp881
F0.0
s(g9
g22
g3
g11
g12
g6
g14
tp882
F0.020999999999999998
s(g36
g16
g3
g11
g26
g13
g39
tp883
I0
s(g1
g2
g3
g11
g12
g13
g7
tp884
I0
s(g36
g2
g10
g4
g12
g13
g7
tp885
I0
s(g36
g16
g3
g4
g5
g13
g23
tp886
I0
s(g36
g2
g10
g4
g12
g6
g23
tp887
I0
s(g36
g16
g10
g4
g26
g6
g7
tp888
I0
s(g20
g16
g10
g25
g5
g6
g7
tp889
I0
s(g36
g22
g10
g4
g12
g13
g23
tp890
I0
s(g1
g22
g3
g25
g26
g13
g39
tp891
I0
s(g36
g22
g10
g4
g26
g6
g14
tp892
I0
s(g36
g16
g10
g4
g5
g6
g17
tp893
F0.0015749999999999998
s(g9
g22
g10
g4
g26
g6
g14
tp894
I0
s(g36
g16
g3
g11
g12
g6
g14
tp895
F0.0021
s(g36
g22
g10
g4
g26
g13
g39
tp896
F0.0010125
s(g9
g2
g3
g4
g26
g6
g17
tp897
I0
s(g9
g22
g10
g11
g26
g13
g17
tp898
F0.001875
s(g9
g2
g3
g11
g12
g13
g17
tp899
I0
s(g36
g22
g3
g11
g26
g6
g23
tp900
F0.013125
s(g9
g22
g3
g25
g26
g6
g23
tp901
F0.007875
s(g36
g22
g10
g25
g26
g13
g39
tp902
I0
s(g36
g16
g10
g4
g5
g6
g39
tp903
F0.002835
s(g9
g22
g10
g25
g12
g6
g7
tp904
I0
s(g36
g2
g3
g25
g5
g6
g14
tp905
I0
s(g20
g2
g3
g25
g5
g6
g39
tp906
I0
s(g1
g2
g3
g25
g26
g13
g23
tp907
F0.001875
s(g1
g22
g3
g11
g26
g13
g23
tp908
F0.003125
s(g1
g22
g10
g11
g26
g6
g7
tp909
F0.04375
s(g9
g16
g10
g4
g5
g13
g7
tp910
I0
s(g9
g16
g3
g4
g12
g6
g7
tp911
I0
s(g20
g16
g10
g11
g26
g6
g39
tp912
I0
s(g1
g22
g3
g25
g12
g13
g7
tp913
I0
s(g20
g22
g10
g25
g26
g6
g39
tp914
I0
s(g1
g2
g3
g11
g26
g13
g23
tp915
F0.00625
s(g1
g16
g3
g4
g5
g6
g39
tp916
F0.00945
s(g36
g16
g3
g4
g26
g13
g14
tp917
I0
s(g36
g2
g3
g4
g5
g13
g39
tp918
F0.002025
s(g36
g22
g3
g25
g12
g13
g7
tp919
I0
s(g36
g16
g10
g11
g12
g6
g17
tp920
F0.00105
s(g20
g22
g10
g11
g12
g6
g23
tp921
I0
s(g1
g22
g3
g11
g26
g6
g39
tp922
I0
s(g36
g16
g10
g4
g5
g13
g17
tp923
F0.0001125
s(g20
g2
g3
g25
g26
g6
g14
tp924
I0
s(g1
g16
g3
g25
g5
g6
g7
tp925
I0
s(g9
g16
g3
g4
g26
g6
g39
tp926
F0.00567
s(g20
g2
g3
g4
g12
g6
g39
tp927
F0.0
s(g9
g16
g10
g25
g26
g6
g17
tp928
F0.0015749999999999998
s(g36
g22
g3
g11
g26
g13
g17
tp929
I0
s(g1
g16
g10
g11
g12
g13
g7
tp930
F0.00025000000000000006
s(g36
g16
g10
g11
g12
g13
g23
tp931
I0
s(g36
g16
g10
g4
g26
g13
g14
tp932
I0
s(g36
g16
g10
g11
g12
g13
g7
tp933
F7.500000000000001e-05
s(g20
g16
g3
g25
g5
g6
g39
tp934
I0
s(g36
g22
g10
g25
g26
g13
g17
tp935
F0.00028125
s(g1
g2
g3
g25
g26
g6
g39
tp936
I0
s(g36
g2
g3
g25
g5
g13
g14
tp937
I0
s(g20
g16
g3
g11
g26
g6
g39
tp938
I0
s(g1
g2
g10
g25
g5
g6
g39
tp939
I0
s(g36
g16
g3
g4
g26
g13
g39
tp940
F0.0002025
s(g36
g16
g10
g25
g5
g13
g14
tp941
I0
s(g1
g16
g3
g25
g26
g6
g7
tp942
I0
s(g9
g2
g10
g11
g26
g6
g39
tp943
I0
s(g36
g16
g3
g25
g26
g13
g23
tp944
F5.625e-05
s(g36
g2
g3
g25
g12
g6
g7
tp945
I0
s(g1
g16
g3
g4
g26
g6
g39
tp946
F0.00945
s(g36
g2
g10
g25
g5
g13
g14
tp947
I0
s(g9
g22
g10
g25
g12
g6
g23
tp948
I0
s(g36
g16
g3
g11
g26
g6
g14
tp949
F0.0052499999999999995
s(g1
g2
g10
g25
g26
g13
g14
tp950
I0
s(g9
g22
g10
g4
g5
g13
g17
tp951
F0.001125
s(g20
g2
g3
g25
g12
g6
g39
tp952
I0
s(g1
g22
g3
g4
g5
g6
g14
tp953
I0
s(g20
g16
g10
g11
g12
g6
g39
tp954
I0
s(g36
g2
g3
g11
g12
g6
g17
tp955
I0
s(g9
g16
g3
g4
g12
g6
g23
tp956
I0
s(g9
g16
g3
g4
g26
g6
g17
tp957
I0
s(g36
g16
g3
g11
g26
g13
g17
tp958
I0
s(g20
g16
g10
g4
g26
g13
g23
tp959
F0.0
s(g36
g16
g3
g11
g12
g6
g17
tp960
I0
s(g36
g22
g3
g4
g12
g13
g7
tp961
I0
s(g20
g2
g3
g25
g5
g13
g23
tp962
I0
s(g9
g22
g10
g25
g26
g13
g39
tp963
I0
s(g1
g16
g10
g25
g12
g13
g23
tp964
I0
s(g9
g16
g3
g11
g26
g6
g17
tp965
I0
s(g20
g2
g10
g4
g26
g6
g17
tp966
F0.0
s(g20
g22
g10
g4
g5
g6
g14
tp967
I0
s(g9
g22
g3
g4
g26
g6
g39
tp968
F0.02835
s(g20
g22
g10
g4
g26
g13
g39
tp969
F0.0
s(g9
g2
g10
g11
g26
g13
g23
tp970
F0.00375
s(g9
g2
g3
g11
g12
g13
g39
tp971
I0
s(g9
g2
g3
g4
g26
g13
g23
tp972
F0.00225
s(g20
g16
g10
g25
g5
g6
g23
tp973
I0
s(g20
g22
g3
g4
g5
g6
g17
tp974
I0
s(g9
g16
g10
g4
g5
g6
g7
tp975
I0
s(g1
g2
g3
g25
g12
g6
g39
tp976
I0
s(g36
g2
g10
g4
g12
g6
g7
tp977
I0
s(g9
g22
g10
g25
g5
g6
g14
tp978
I0
s(g36
g16
g10
g4
g26
g6
g23
tp979
F0.0015749999999999998
s(g9
g22
g3
g4
g12
g13
g14
tp980
I0
s(g36
g2
g3
g4
g26
g6
g39
tp981
F0.02835
s(g9
g2
g10
g25
g26
g13
g7
tp982
I0
s(g36
g16
g3
g4
g26
g13
g17
tp983
I0
s(g20
g22
g10
g11
g12
g13
g23
tp984
I0
s(g9
g2
g3
g25
g12
g13
g39
tp985
I0
s(g20
g16
g3
g11
g12
g13
g23
tp986
I0
s(g36
g16
g3
g4
g12
g6
g23
tp987
I0
s(g36
g2
g10
g4
g26
g6
g14
tp988
I0
s(g1
g22
g10
g4
g5
g6
g7
tp989
I0
s(g36
g2
g10
g4
g12
g13
g17
tp990
F0.00045
s(g20
g22
g3
g4
g5
g13
g7
tp991
I0
s(g36
g2
g10
g11
g26
g13
g39
tp992
I0
s(g1
g16
g3
g25
g5
g6
g17
tp993
I0
s(g9
g2
g10
g4
g26
g13
g14
tp994
I0
s(g36
g16
g10
g11
g26
g13
g39
tp995
I0
s(g20
g16
g3
g25
g26
g13
g39
tp996
I0
s(g1
g16
g3
g4
g12
g6
g39
tp997
F0.00378
s(g1
g2
g10
g11
g26
g6
g17
tp998
F0.0875
s(g9
g16
g10
g4
g26
g13
g14
tp999
I0
s(g1
g2
g3
g4
g26
g13
g23
tp1000
F0.00375
s(g9
g22
g3
g4
g26
g6
g17
tp1001
I0
s(g9
g2
g3
g11
g26
g13
g39
tp1002
I0
s(g9
g16
g10
g4
g12
g6
g14
tp1003
I0
s(g20
g16
g10
g4
g5
g13
g7
tp1004
I0
s(g20
g2
g3
g4
g26
g6
g23
tp1005
F0.0
s(g36
g2
g3
g25
g26
g6
g17
tp1006
I0
s(g20
g16
g10
g11
g26
g6
g23
tp1007
F0.0
s(g20
g22
g3
g11
g12
g6
g17
tp1008
I0
s(g20
g16
g3
g11
g12
g6
g7
tp1009
I0
s(g9
g2
g3
g25
g26
g6
g14
tp1010
I0
s(g36
g16
g3
g4
g26
g6
g7
tp1011
I0
s(g20
g16
g10
g25
g5
g13
g39
tp1012
I0
s(g36
g16
g3
g4
g12
g13
g17
tp1013
I0
s(g36
g16
g3
g25
g12
g13
g14
tp1014
I0
s(g36
g22
g10
g4
g26
g6
g39
tp1015
F0.014175
s(g1
g16
g10
g11
g12
g6
g17
tp1016
F0.0035000000000000005
s(g9
g22
g3
g25
g12
g13
g17
tp1017
I0
s(g36
g22
g3
g25
g26
g6
g23
tp1018
F0.0039375
s(g20
g16
g3
g4
g5
g6
g23
tp1019
I0
s(g20
g16
g10
g4
g26
g6
g23
tp1020
F0.0
s(g1
g16
g10
g25
g5
g6
g39
tp1021
I0
s(g36
g22
g3
g25
g5
g13
g14
tp1022
I0
s(g36
g22
g10
g11
g26
g6
g17
tp1023
F0.013125
s(g36
g22
g3
g4
g5
g13
g14
tp1024
I0
s(g20
g16
g10
g25
g26
g6
g39
tp1025
I0
s(g9
g16
g10
g4
g12
g13
g17
tp1026
F9e-05
s(g20
g16
g10
g11
g12
g6
g14
tp1027
F0.0
s(g9
g16
g3
g25
g5
g6
g14
tp1028
I0
s(g20
g16
g3
g11
g12
g6
g17
tp1029
I0
s(g1
g22
g10
g25
g26
g6
g39
tp1030
I0
s(g9
g22
g10
g4
g5
g6
g17
tp1031
F0.01575
s(g36
g2
g10
g25
g26
g13
g23
tp1032
F0.0005625
s(g36
g2
g10
g4
g12
g13
g39
tp1033
F0.00081
s(g36
g16
g10
g25
g12
g13
g7
tp1034
I0
s(g9
g2
g3
g11
g26
g13
g7
tp1035
I0
s(g1
g22
g10
g4
g12
g6
g14
tp1036
I0
s(g1
g2
g3
g25
g5
g6
g23
tp1037
I0
s(g9
g2
g10
g25
g12
g13
g39
tp1038
I0
s(g20
g22
g10
g4
g5
g13
g39
tp1039
F0.0
s(g9
g2
g3
g25
g26
g13
g17
tp1040
I0
s(g9
g2
g10
g25
g5
g13
g39
tp1041
I0
s(g20
g22
g3
g4
g5
g13
g39
tp1042
F0.0
s(g36
g2
g3
g11
g12
g6
g7
tp1043
I0
s(g9
g22
g10
g4
g5
g6
g39
tp1044
F0.02835
s(g1
g16
g10
g25
g26
g13
g14
tp1045
I0
s(g1
g16
g10
g25
g12
g6
g17
tp1046
F0.00105
s(g9
g22
g3
g11
g12
g13
g17
tp1047
I0
s(g9
g22
g3
g25
g12
g6
g23
tp1048
I0
s(g1
g2
g10
g11
g26
g13
g7
tp1049
F0.00625
s(g36
g2
g10
g11
g12
g13
g23
tp1050
I0
s(g1
g16
g10
g25
g5
g13
g23
tp1051
I0
s(g1
g16
g10
g4
g12
g13
g23
tp1052
I0
s(g20
g16
g3
g11
g26
g13
g7
tp1053
I0
s(g36
g2
g3
g11
g12
g6
g39
tp1054
I0
s(g9
g16
g10
g25
g5
g6
g23
tp1055
I0
s(g36
g22
g10
g25
g5
g6
g39
tp1056
I0
s(g9
g16
g3
g11
g26
g13
g14
tp1057
F0.00075
s(g20
g22
g3
g25
g5
g13
g14
tp1058
I0
s(g20
g2
g3
g11
g26
g6
g17
tp1059
I0
s(g9
g22
g3
g25
g26
g13
g7
tp1060
I0
s(g20
g2
g10
g25
g12
g13
g14
tp1061
I0
s(g36
g16
g10
g25
g12
g6
g23
tp1062
I0
s(g36
g16
g10
g25
g5
g6
g14
tp1063
I0
s(g9
g2
g10
g4
g5
g13
g7
tp1064
I0
s(g36
g2
g10
g4
g5
g13
g7
tp1065
I0
s(g20
g2
g10
g25
g26
g13
g23
tp1066
F0.0
s(g36
g22
g10
g25
g12
g6
g14
tp1067
I0
s(g20
g22
g10
g25
g12
g6
g39
tp1068
I0
s(g20
g2
g3
g4
g26
g13
g17
tp1069
I0
s(g20
g16
g3
g25
g26
g13
g17
tp1070
I0
s(g1
g2
g3
g25
g5
g6
g14
tp1071
I0
s(g9
g16
g3
g4
g5
g6
g23
tp1072
I0
s(g36
g22
g3
g25
g26
g13
g23
tp1073
F0.00028125
s(g20
g2
g10
g11
g12
g13
g14
tp1074
F0.0
s(g9
g2
g3
g4
g12
g6
g23
tp1075
I0
s(g36
g16
g3
g25
g26
g6
g14
tp1076
I0
s(g1
g16
g3
g4
g12
g13
g39
tp1077
F0.00027000000000000006
s(g20
g2
g3
g25
g5
g13
g7
tp1078
I0
s(g9
g2
g3
g11
g26
g6
g39
tp1079
I0
s(g9
g2
g3
g4
g12
g6
g7
tp1080
I0
s(g9
g16
g3
g11
g12
g6
g23
tp1081
I0
s(g1
g2
g3
g11
g12
g6
g39
tp1082
I0
s(g20
g2
g10
g4
g12
g6
g23
tp1083
I0
s(g9
g22
g10
g4
g12
g13
g39
tp1084
F0.00081
s(g9
g22
g3
g4
g5
g13
g39
tp1085
F0.002025
s(g20
g22
g3
g25
g26
g6
g23
tp1086
F0.0
s(g1
g2
g10
g25
g5
g13
g14
tp1087
I0
s(g20
g22
g3
g4
g5
g6
g39
tp1088
F0.0
s(g9
g16
g3
g25
g26
g6
g39
tp1089
I0
s(g1
g16
g10
g11
g12
g6
g39
tp1090
I0
s(g9
g16
g3
g25
g26
g13
g17
tp1091
I0
s(g1
g16
g10
g25
g26
g6
g23
tp1092
F0.0026249999999999997
s(g1
g16
g3
g25
g26
g13
g14
tp1093
I0
s(g1
g2
g10
g25
g26
g13
g17
tp1094
F0.001875
s(g1
g2
g3
g4
g12
g13
g39
tp1095
F0.0027
s(g36
g22
g3
g4
g12
g6
g23
tp1096
I0
s(g1
g16
g10
g4
g5
g13
g14
tp1097
I0
s(g1
g2
g3
g25
g5
g13
g14
tp1098
I0
s(g1
g2
g10
g4
g26
g6
g14
tp1099
I0
s(g9
g22
g10
g11
g12
g6
g14
tp1100
F0.020999999999999998
s(g36
g2
g3
g11
g26
g13
g7
tp1101
I0
s(g36
g16
g10
g25
g12
g6
g7
tp1102
I0
s(g9
g16
g3
g4
g26
g13
g23
tp1103
F0.000225
s(g36
g16
g3
g4
g5
g6
g7
tp1104
I0
s(g20
g2
g3
g11
g26
g13
g14
tp1105
F0.0
s(g9
g16
g10
g25
g5
g6
g7
tp1106
I0
s(g1
g22
g3
g4
g5
g13
g7
tp1107
I0
s(g9
g2
g3
g4
g5
g6
g39
tp1108
F0.0567
s(g1
g22
g10
g25
g5
g6
g23
tp1109
I0
s(g20
g16
g3
g4
g26
g13
g23
tp1110
F0.0
s(g36
g2
g3
g25
g12
g6
g17
tp1111
I0
s(g36
g2
g10
g11
g12
g6
g23
tp1112
I0
s(g20
g16
g3
g11
g26
g13
g23
tp1113
F0.0
s(g36
g22
g10
g25
g26
g6
g17
tp1114
F0.0039375
s(g9
g16
g10
g25
g12
g13
g17
tp1115
F4.5e-05
s(g36
g22
g10
g11
g12
g13
g39
tp1116
I0
s(g20
g2
g3
g11
g12
g13
g14
tp1117
F0.0
s(g1
g2
g3
g25
g12
g6
g7
tp1118
I0
s(g20
g16
g10
g25
g12
g6
g14
tp1119
I0
s(g1
g22
g3
g4
g26
g6
g7
tp1120
I0
s(g36
g2
g10
g25
g12
g6
g23
tp1121
I0
s(g9
g16
g3
g4
g5
g13
g23
tp1122
I0
s(g20
g22
g10
g4
g12
g6
g7
tp1123
I0
s(g36
g16
g10
g4
g5
g6
g14
tp1124
I0
s(g36
g2
g3
g25
g5
g6
g39
tp1125
I0
s(g9
g22
g10
g11
g26
g6
g39
tp1126
I0
s(g1
g2
g10
g4
g26
g6
g39
tp1127
F0.0945
s(g36
g22
g10
g4
g5
g6
g14
tp1128
I0
s(g9
g22
g3
g4
g5
g13
g7
tp1129
I0
s(g1
g2
g10
g4
g26
g13
g17
tp1130
F0.00375
s(g9
g16
g3
g25
g12
g6
g23
tp1131
I0
s(g36
g22
g10
g25
g5
g13
g14
tp1132
I0
s(g1
g2
g3
g25
g26
g13
g39
tp1133
I0
s(g20
g22
g3
g4
g26
g13
g39
tp1134
F0.0
s(g9
g2
g10
g11
g12
g6
g7
tp1135
F0.020999999999999998
s(g36
g22
g3
g4
g12
g6
g7
tp1136
I0
s(g9
g2
g10
g25
g12
g6
g7
tp1137
I0
s(g9
g16
g3
g11
g12
g13
g23
tp1138
I0
s(g1
g16
g3
g4
g26
g6
g7
tp1139
I0
s(g1
g16
g3
g4
g5
g6
g23
tp1140
I0
s(g36
g2
g3
g25
g12
g6
g39
tp1141
I0
s(g1
g16
g3
g11
g12
g6
g17
tp1142
I0
s(g20
g2
g10
g11
g26
g6
g23
tp1143
F0.0
s(g1
g22
g3
g11
g26
g6
g23
tp1144
F0.04375
s(g1
g22
g3
g25
g12
g6
g17
tp1145
I0
s(g9
g22
g10
g11
g26
g6
g14
tp1146
F0.0525
s(g36
g22
g10
g11
g26
g13
g17
tp1147
F0.0009375
s(g36
g2
g10
g11
g26
g13
g14
tp1148
F0.00375
s(g1
g22
g3
g4
g26
g6
g23
tp1149
F0.02625
s(g20
g2
g3
g25
g5
g6
g23
tp1150
I0
s(g20
g22
g3
g25
g12
g6
g17
tp1151
I0
s(g1
g2
g10
g25
g5
g6
g14
tp1152
I0
s(g9
g22
g3
g4
g12
g6
g14
tp1153
I0
s(g36
g16
g10
g11
g26
g6
g14
tp1154
F0.0052499999999999995
s(g1
g22
g10
g25
g5
g13
g23
tp1155
I0
s(g36
g22
g10
g4
g12
g13
g7
tp1156
I0
s(g20
g16
g3
g11
g26
g6
g23
tp1157
F0.0
s(g20
g2
g3
g4
g12
g6
g7
tp1158
I0
s(g36
g2
g3
g4
g5
g13
g23
tp1159
I0
s(g20
g16
g3
g25
g26
g6
g23
tp1160
F0.0
s(g9
g16
g10
g25
g12
g6
g17
tp1161
F0.0006299999999999999
s(g20
g22
g10
g25
g5
g13
g23
tp1162
I0
s(g9
g2
g10
g4
g12
g13
g23
tp1163
I0
s(g36
g16
g10
g25
g5
g6
g17
tp1164
F0.0007874999999999999
s(g1
g2
g10
g4
g26
g6
g17
tp1165
F0.0525
s(g20
g16
g3
g25
g12
g13
g23
tp1166
I0
s(g36
g16
g3
g25
g26
g13
g39
tp1167
I0
s(g36
g22
g3
g25
g12
g6
g17
tp1168
I0
s(g20
g2
g3
g4
g12
g6
g23
tp1169
I0
s(g1
g16
g10
g4
g5
g6
g39
tp1170
F0.00945
s(g20
g2
g3
g11
g12
g13
g39
tp1171
I0
s(g20
g16
g3
g25
g26
g6
g7
tp1172
I0
s(g36
g22
g3
g4
g26
g6
g7
tp1173
I0
s(g9
g16
g10
g4
g5
g6
g17
tp1174
F0.0031499999999999996
s(g9
g2
g10
g4
g5
g13
g17
tp1175
F0.00225
s(g1
g22
g10
g4
g26
g6
g17
tp1176
F0.02625
s(g20
g16
g3
g4
g12
g13
g39
tp1177
F0.0
s(g1
g22
g3
g11
g12
g6
g39
tp1178
I0
s(g1
g2
g10
g11
g26
g13
g23
tp1179
F0.00625
s(g1
g22
g10
g4
g12
g6
g39
tp1180
F0.0189
s(g20
g2
g10
g4
g26
g13
g17
tp1181
F0.0
s(g1
g2
g3
g4
g5
g6
g23
tp1182
I0
s(g1
g16
g10
g25
g26
g6
g7
tp1183
I0
s(g9
g2
g3
g4
g5
g13
g7
tp1184
I0
s(g1
g2
g3
g25
g5
g13
g23
tp1185
I0
s(g9
g16
g3
g11
g12
g13
g7
tp1186
I0
s(g20
g2
g10
g25
g26
g6
g7
tp1187
I0
s(g36
g22
g3
g4
g26
g13
g39
tp1188
F0.0010125
s(g20
g2
g10
g25
g26
g6
g23
tp1189
F0.0
s(g9
g16
g10
g11
g26
g13
g17
tp1190
F0.000375
s(g36
g16
g10
g11
g12
g13
g39
tp1191
I0
s(g1
g2
g10
g25
g12
g6
g14
tp1192
I0
s(g20
g22
g10
g25
g26
g6
g14
tp1193
I0
s(g1
g22
g3
g4
g12
g13
g39
tp1194
F0.00135
s(g1
g22
g3
g11
g26
g13
g14
tp1195
F0.00625
s(g1
g22
g3
g11
g12
g13
g39
tp1196
I0
s(g36
g16
g3
g11
g12
g13
g14
tp1197
F0.00015000000000000001
s(g9
g16
g3
g25
g26
g13
g7
tp1198
I0
s(g9
g16
g10
g11
g12
g13
g14
tp1199
F0.00030000000000000003
s(g36
g16
g3
g11
g12
g13
g17
tp1200
I0
s(g36
g22
g3
g25
g26
g6
g7
tp1201
I0
s(g1
g16
g10
g4
g12
g6
g23
tp1202
I0
s(g9
g16
g3
g4
g12
g6
g14
tp1203
I0
s(g9
g22
g10
g4
g26
g13
g17
tp1204
F0.001125
s(g9
g22
g3
g11
g26
g13
g14
tp1205
F0.00375
s(g36
g16
g10
g4
g26
g6
g39
tp1206
F0.002835
s(g20
g22
g10
g11
g12
g6
g14
tp1207
F0.0
s(g20
g2
g3
g4
g26
g13
g14
tp1208
I0
s(g20
g16
g10
g11
g12
g13
g17
tp1209
F0.0
s(g20
g2
g3
g4
g12
g13
g14
tp1210
I0
s(g1
g2
g3
g25
g12
g13
g7
tp1211
I0
s(g36
g22
g3
g11
g12
g6
g17
tp1212
I0
s(g9
g16
g10
g25
g12
g13
g23
tp1213
I0
s(g20
g16
g3
g11
g12
g13
g39
tp1214
I0
s(g1
g16
g10
g25
g12
g13
g39
tp1215
I0
s(g1
g22
g10
g11
g26
g13
g23
tp1216
F0.003125
s(g1
g22
g10
g4
g26
g13
g23
tp1217
F0.001875
s(g1
g2
g10
g4
g12
g13
g23
tp1218
I0
s(g1
g16
g10
g4
g5
g6
g7
tp1219
I0
s(g20
g22
g3
g11
g12
g13
g7
tp1220
I0
s(g20
g2
g10
g11
g12
g6
g14
tp1221
F0.0
s(g20
g2
g3
g25
g26
g6
g17
tp1222
I0
s(g20
g22
g10
g4
g5
g6
g39
tp1223
F0.0
s(g36
g16
g10
g11
g26
g6
g39
tp1224
I0
s(g9
g16
g10
g11
g26
g6
g14
tp1225
F0.010499999999999999
s(g9
g2
g3
g4
g26
g13
g39
tp1226
F0.00405
s(g20
g16
g10
g25
g12
g13
g14
tp1227
I0
s(g36
g2
g10
g11
g26
g6
g7
tp1228
F0.02625
s(g36
g22
g10
g11
g12
g6
g17
tp1229
F0.0052499999999999995
s(g1
g2
g3
g4
g26
g13
g7
tp1230
I0
s(g9
g22
g10
g25
g12
g13
g14
tp1231
I0
s(g1
g2
g3
g25
g12
g13
g17
tp1232
I0
s(g20
g16
g3
g4
g26
g6
g7
tp1233
I0
s(g36
g2
g3
g4
g26
g6
g23
tp1234
F0.01575
s(g20
g22
g10
g25
g12
g6
g23
tp1235
I0
s(g1
g22
g10
g4
g5
g6
g23
tp1236
I0
s(g36
g22
g10
g4
g26
g6
g23
tp1237
F0.007875
s(g1
g22
g10
g25
g26
g6
g14
tp1238
I0
s(g20
g2
g10
g11
g26
g13
g23
tp1239
F0.0
s(g36
g22
g3
g25
g5
g6
g7
tp1240
I0
s(g36
g16
g10
g11
g26
g13
g23
tp1241
F0.0001875
s(g1
g22
g3
g25
g5
g6
g14
tp1242
I0
s(g20
g2
g3
g4
g12
g13
g39
tp1243
F0.0
s(g1
g16
g3
g25
g26
g13
g39
tp1244
I0
s(g20
g22
g10
g4
g5
g6
g7
tp1245
I0
s(g20
g22
g10
g11
g26
g6
g17
tp1246
F0.0
s(g20
g16
g10
g4
g12
g6
g23
tp1247
I0
s(g1
g2
g10
g25
g12
g13
g14
tp1248
I0
s(g9
g2
g3
g25
g5
g6
g23
tp1249
I0
s(g1
g22
g3
g4
g26
g13
g23
tp1250
F0.001875
s(g9
g16
g3
g4
g12
g13
g7
tp1251
I0
s(g20
g16
g3
g4
g5
g13
g17
tp1252
I0
s(g1
g16
g10
g25
g5
g6
g7
tp1253
I0
s(g9
g2
g3
g25
g12
g13
g14
tp1254
I0
s(g9
g16
g3
g4
g12
g13
g23
tp1255
I0
s(g20
g2
g3
g11
g12
g6
g7
tp1256
I0
s(g36
g16
g10
g25
g12
g13
g17
tp1257
F2.25e-05
s(g1
g2
g3
g4
g5
g13
g23
tp1258
I0
s(g36
g2
g3
g4
g5
g6
g14
tp1259
I0
s(g36
g16
g3
g4
g26
g6
g39
tp1260
F0.002835
s(g1
g22
g3
g11
g12
g13
g14
tp1261
F0.0025000000000000005
s(g20
g22
g10
g25
g5
g6
g17
tp1262
F0.0
s(g36
g16
g10
g11
g12
g6
g14
tp1263
F0.0021
s(g9
g16
g3
g25
g12
g13
g7
tp1264
I0
s(g1
g16
g10
g25
g5
g6
g23
tp1265
I0
s(g9
g2
g10
g11
g26
g13
g14
tp1266
F0.0075
s(g9
g22
g3
g11
g12
g6
g39
tp1267
I0
s(g20
g2
g3
g11
g12
g6
g17
tp1268
I0
s(g20
g16
g10
g4
g12
g13
g14
tp1269
I0
s(g36
g22
g3
g25
g5
g6
g39
tp1270
I0
s(g36
g22
g3
g4
g26
g6
g39
tp1271
F0.014175
s(g36
g16
g3
g11
g12
g13
g7
tp1272
I0
s(g9
g22
g10
g4
g5
g13
g14
tp1273
I0
s(g1
g16
g3
g25
g12
g13
g7
tp1274
I0
s(g36
g2
g3
g4
g12
g13
g17
tp1275
I0
s(g9
g22
g3
g4
g26
g13
g17
tp1276
I0
s(g20
g16
g3
g4
g26
g6
g23
tp1277
F0.0
s(g9
g22
g3
g4
g5
g6
g39
tp1278
F0.02835
s(g20
g16
g3
g25
g26
g13
g7
tp1279
I0
s(g20
g2
g10
g25
g26
g13
g7
tp1280
I0
s(g20
g2
g10
g4
g5
g6
g39
tp1281
F0.0
s(g9
g2
g10
g25
g12
g13
g23
tp1282
I0
s(g1
g22
g10
g11
g12
g13
g14
tp1283
F0.0025000000000000005
s(g20
g2
g10
g25
g26
g6
g14
tp1284
I0
s(g36
g2
g3
g11
g26
g6
g17
tp1285
I0
s(g9
g2
g3
g11
g12
g6
g23
tp1286
I0
s(g20
g22
g3
g4
g5
g13
g23
tp1287
I0
s(g20
g2
g10
g25
g5
g13
g7
tp1288
I0
s(g36
g2
g10
g4
g5
g6
g17
tp1289
F0.01575
s(g1
g16
g3
g11
g12
g13
g23
tp1290
I0
s(g1
g2
g10
g25
g26
g6
g14
tp1291
I0
s(g1
g22
g3
g4
g5
g13
g39
tp1292
F0.003375
s(g1
g2
g10
g11
g12
g13
g17
tp1293
F0.0025000000000000005
s(g1
g16
g10
g4
g12
g13
g7
tp1294
I0
s(g36
g22
g3
g11
g12
g13
g7
tp1295
I0
s(g1
g16
g10
g11
g12
g6
g14
tp1296
F0.007000000000000001
s(g20
g22
g3
g25
g26
g13
g23
tp1297
F0.0
s(g20
g2
g3
g11
g26
g13
g23
tp1298
F0.0
s(g20
g16
g10
g25
g5
g13
g17
tp1299
F0.0
s(g1
g16
g3
g4
g12
g13
g23
tp1300
I0
s(g36
g16
g10
g11
g26
g6
g23
tp1301
F0.0026249999999999997
s(g20
g2
g10
g4
g5
g6
g14
tp1302
I0
s(g9
g16
g3
g11
g12
g6
g39
tp1303
I0
s(g1
g22
g3
g4
g12
g6
g14
tp1304
I0
s(g9
g16
g10
g11
g26
g13
g7
tp1305
F0.000375
s(g20
g22
g3
g4
g5
g6
g7
tp1306
I0
s(g9
g22
g10
g4
g12
g13
g23
tp1307
I0
s(g20
g22
g3
g4
g12
g13
g17
tp1308
I0
s(g1
g16
g3
g25
g5
g13
g23
tp1309
I0
s(g36
g2
g3
g4
g12
g6
g23
tp1310
I0
s(g1
g2
g3
g4
g26
g6
g14
tp1311
I0
s(g20
g22
g10
g4
g12
g13
g14
tp1312
I0
s(g20
g22
g10
g25
g12
g13
g17
tp1313
F0.0
s(g9
g2
g3
g25
g26
g6
g17
tp1314
I0
s(g1
g22
g10
g4
g5
g13
g14
tp1315
I0
s(g36
g2
g10
g25
g5
g13
g39
tp1316
I0
s(g20
g16
g3
g25
g12
g6
g17
tp1317
I0
s(g36
g22
g3
g11
g26
g13
g39
tp1318
I0
s(g36
g22
g3
g25
g5
g13
g39
tp1319
I0
s(g20
g16
g10
g11
g12
g13
g14
tp1320
F0.0
s(g36
g16
g3
g4
g12
g6
g14
tp1321
I0
s(g1
g2
g10
g4
g5
g6
g14
tp1322
I0
s(g1
g22
g10
g25
g12
g13
g17
tp1323
F0.000375
s(g1
g16
g3
g25
g12
g6
g7
tp1324
I0
s(g20
g2
g3
g4
g5
g6
g39
tp1325
F0.0
s(g1
g2
g10
g25
g5
g13
g17
tp1326
F0.001875
s(g1
g16
g10
g4
g26
g13
g14
tp1327
I0
s(g1
g22
g10
g25
g5
g6
g39
tp1328
I0
s(g36
g2
g10
g25
g12
g13
g23
tp1329
I0
s(g20
g2
g3
g4
g26
g13
g7
tp1330
I0
s(g20
g22
g3
g25
g26
g6
g39
tp1331
I0
s(g36
g22
g3
g11
g12
g13
g23
tp1332
I0
s(g9
g16
g3
g25
g26
g6
g23
tp1333
F0.0015749999999999998
s(g36
g2
g3
g4
g5
g6
g17
tp1334
I0
s(g20
g22
g10
g4
g26
g6
g17
tp1335
F0.0
s(g20
g22
g3
g25
g12
g13
g23
tp1336
I0
s(g36
g22
g10
g4
g5
g6
g39
tp1337
F0.014175
s(g1
g2
g3
g11
g26
g6
g39
tp1338
I0
s(g20
g2
g3
g25
g26
g13
g7
tp1339
I0
s(g9
g2
g3
g25
g5
g13
g7
tp1340
I0
s(g9
g22
g3
g25
g26
g13
g39
tp1341
I0
s(g1
g2
g3
g25
g5
g6
g17
tp1342
I0
s(g36
g16
g3
g25
g5
g13
g7
tp1343
I0
s(g1
g22
g3
g4
g5
g13
g17
tp1344
I0
s(g1
g2
g3
g4
g12
g13
g23
tp1345
I0
s(g1
g16
g10
g11
g26
g13
g17
tp1346
F0.0006250000000000001
s(g1
g16
g3
g11
g26
g13
g14
tp1347
F0.0012500000000000002
s(g1
g16
g10
g25
g26
g13
g39
tp1348
I0
s(g1
g2
g3
g4
g12
g6
g7
tp1349
I0
s(g36
g16
g3
g25
g5
g13
g17
tp1350
I0
s(g36
g2
g3
g25
g5
g6
g23
tp1351
I0
s(g1
g22
g10
g11
g12
g6
g14
tp1352
F0.034999999999999996
s(g9
g22
g10
g4
g5
g6
g14
tp1353
I0
s(g9
g22
g10
g11
g26
g6
g23
tp1354
F0.02625
s(g9
g16
g10
g25
g26
g13
g23
tp1355
F0.0001125
s(g9
g2
g10
g11
g26
g6
g17
tp1356
F0.0525
s(g20
g22
g10
g4
g26
g6
g7
tp1357
I0
s(g36
g22
g3
g4
g5
g6
g7
tp1358
I0
s(g9
g2
g10
g4
g5
g13
g14
tp1359
I0
s(g9
g16
g10
g4
g26
g13
g23
tp1360
F0.000225
s(g1
g16
g10
g11
g26
g6
g14
tp1361
F0.017499999999999998
s(g20
g2
g10
g4
g5
g6
g17
tp1362
F0.0
s(g36
g22
g10
g11
g26
g13
g7
tp1363
F0.0009375
s(g1
g22
g3
g25
g12
g13
g23
tp1364
I0
s(g9
g16
g3
g25
g12
g6
g39
tp1365
I0
s(g1
g22
g10
g25
g12
g6
g39
tp1366
I0
s(g9
g16
g3
g4
g5
g13
g17
tp1367
I0
s(g36
g22
g10
g11
g12
g13
g23
tp1368
I0
s(g20
g2
g3
g11
g26
g6
g14
tp1369
F0.0
s(g36
g22
g10
g25
g26
g6
g7
tp1370
I0
s(g9
g22
g3
g25
g12
g13
g14
tp1371
I0
s(g36
g2
g10
g25
g12
g6
g39
tp1372
I0
s(g9
g16
g10
g11
g26
g6
g17
tp1373
F0.0052499999999999995
s(g20
g16
g3
g25
g5
g13
g17
tp1374
I0
s(g9
g16
g3
g25
g12
g13
g23
tp1375
I0
s(g20
g22
g3
g25
g5
g6
g7
tp1376
I0
s(g9
g16
g10
g25
g12
g6
g14
tp1377
I0
s(g1
g16
g10
g4
g5
g13
g39
tp1378
F0.000675
s(g36
g16
g3
g4
g5
g6
g23
tp1379
I0
s(g9
g16
g3
g25
g26
g6
g7
tp1380
I0
s(g36
g22
g10
g4
g12
g6
g39
tp1381
F0.00567
s(g9
g22
g3
g25
g5
g6
g7
tp1382
I0
s(g1
g22
g10
g25
g12
g13
g14
tp1383
I0
s(g20
g16
g3
g4
g5
g6
g39
tp1384
F0.0
s(g36
g16
g3
g11
g12
g6
g39
tp1385
I0
s(g9
g16
g3
g11
g26
g6
g7
tp1386
I0
s(g36
g22
g10
g25
g5
g13
g39
tp1387
I0
s(g36
g16
g3
g4
g5
g13
g14
tp1388
I0
s(g1
g2
g10
g25
g12
g13
g39
tp1389
I0
s(g1
g2
g3
g25
g26
g13
g14
tp1390
I0
s(g9
g2
g10
g4
g5
g6
g17
tp1391
F0.0315
s(g20
g22
g3
g4
g26
g13
g23
tp1392
F0.0
s(g36
g22
g10
g4
g26
g6
g7
tp1393
I0
s(g9
g2
g3
g11
g26
g6
g14
tp1394
F0.105
s(g20
g2
g10
g25
g26
g6
g39
tp1395
I0
s(g9
g22
g10
g4
g26
g6
g7
tp1396
I0
s(g1
g16
g3
g4
g12
g13
g14
tp1397
I0
s(g9
g22
g3
g25
g26
g13
g17
tp1398
I0
s(g9
g16
g3
g11
g12
g13
g39
tp1399
I0
s(g1
g16
g3
g4
g5
g13
g17
tp1400
I0
s(g1
g22
g10
g25
g26
g13
g7
tp1401
I0
s(g1
g16
g3
g4
g26
g6
g17
tp1402
I0
s(g1
g16
g3
g25
g12
g6
g39
tp1403
I0
s(g36
g22
g3
g4
g5
g6
g23
tp1404
I0
s(g9
g2
g10
g25
g12
g6
g17
tp1405
F0.006299999999999999
s(g20
g2
g10
g11
g26
g6
g39
tp1406
I0
s(g9
g16
g3
g4
g26
g13
g14
tp1407
I0
s(g20
g16
g3
g4
g12
g13
g7
tp1408
I0
s(g9
g2
g10
g11
g26
g6
g14
tp1409
F0.105
s(g20
g22
g3
g25
g5
g13
g23
tp1410
I0
s(g36
g22
g10
g4
g12
g6
g17
tp1411
F0.0031499999999999996
s(g9
g16
g10
g4
g26
g6
g7
tp1412
I0
s(g1
g22
g3
g4
g26
g6
g39
tp1413
F0.04725
s(g20
g2
g3
g11
g12
g13
g23
tp1414
I0
s(g20
g2
g3
g4
g5
g13
g23
tp1415
I0
s(g9
g22
g10
g11
g12
g13
g7
tp1416
F0.00075
s(g20
g2
g10
g11
g26
g13
g14
tp1417
F0.0
s(g9
g16
g10
g4
g26
g6
g23
tp1418
F0.0031499999999999996
s(g20
g2
g10
g25
g12
g13
g23
tp1419
I0
s(g1
g22
g10
g25
g5
g13
g39
tp1420
I0
s(g1
g16
g3
g25
g5
g13
g7
tp1421
I0
s(g1
g2
g10
g11
g26
g13
g39
tp1422
I0
s(g36
g16
g10
g4
g12
g6
g39
tp1423
F0.0011339999999999998
s(g36
g22
g10
g25
g5
g6
g14
tp1424
I0
s(g20
g22
g3
g11
g26
g6
g7
tp1425
I0
s(g36
g16
g10
g25
g5
g13
g23
tp1426
I0
s(g1
g16
g3
g4
g26
g13
g39
tp1427
F0.000675
s(g36
g22
g3
g4
g26
g13
g23
tp1428
F0.0005625
s(g36
g16
g3
g11
g26
g6
g17
tp1429
I0
s(g20
g22
g10
g4
g26
g13
g7
tp1430
I0
s(g9
g2
g10
g25
g5
g13
g7
tp1431
I0
s(g36
g16
g10
g4
g26
g6
g14
tp1432
I0
s(g20
g16
g10
g11
g26
g13
g14
tp1433
F0.0
s(g9
g22
g10
g4
g26
g6
g17
tp1434
F0.01575
s(g1
g16
g10
g4
g12
g6
g14
tp1435
I0
s(g1
g22
g10
g25
g26
g13
g23
tp1436
F0.0009375
s(g1
g16
g10
g11
g26
g13
g39
tp1437
I0
s(g36
g16
g3
g25
g26
g6
g23
tp1438
F0.0007874999999999999
s(g20
g22
g10
g4
g5
g13
g14
tp1439
I0
s(g36
g16
g10
g11
g12
g13
g14
tp1440
F0.00015000000000000001
s(g1
g2
g3
g4
g12
g6
g17
tp1441
I0
s(g9
g16
g3
g11
g26
g13
g17
tp1442
I0
s(g20
g16
g10
g11
g26
g6
g17
tp1443
F0.0
s(g20
g16
g3
g25
g12
g13
g14
tp1444
I0
s(g1
g2
g3
g11
g26
g6
g17
tp1445
I0
s(g20
g22
g3
g4
g12
g6
g14
tp1446
I0
s(g36
g22
g10
g25
g5
g6
g17
tp1447
F0.0039375
s(g20
g16
g10
g4
g5
g6
g39
tp1448
F0.0
s(g36
g22
g3
g25
g5
g6
g23
tp1449
I0
s(g9
g2
g10
g4
g5
g6
g7
tp1450
I0
s(g9
g16
g10
g25
g5
g13
g17
tp1451
F0.0001125
s(g1
g2
g3
g4
g5
g6
g39
tp1452
F0.0945
s(g36
g2
g10
g25
g26
g13
g39
tp1453
I0
s(g20
g2
g10
g4
g5
g13
g14
tp1454
I0
s(g9
g2
g3
g25
g5
g6
g7
tp1455
I0
s(g9
g22
g3
g4
g12
g6
g17
tp1456
I0
s(g36
g22
g10
g25
g26
g13
g14
tp1457
I0
s(g9
g16
g10
g11
g12
g6
g14
tp1458
F0.0042
s(g1
g22
g3
g25
g5
g13
g23
tp1459
I0
s(g1
g22
g10
g4
g26
g13
g39
tp1460
F0.003375
s(g1
g22
g3
g4
g12
g13
g23
tp1461
I0
s(g36
g2
g10
g25
g5
g13
g7
tp1462
I0
s(g1
g2
g10
g4
g26
g13
g39
tp1463
F0.00675
s(g36
g16
g10
g4
g12
g6
g17
tp1464
F0.0006299999999999999
s(g20
g16
g3
g25
g5
g13
g39
tp1465
I0
s(g9
g2
g10
g25
g26
g6
g23
tp1466
F0.01575
s(g20
g2
g3
g25
g5
g13
g17
tp1467
I0
s(g36
g22
g10
g25
g12
g6
g7
tp1468
I0
s(g36
g16
g3
g25
g12
g6
g17
tp1469
I0
s(g1
g16
g3
g11
g26
g6
g17
tp1470
I0
s(g1
g2
g10
g4
g12
g13
g14
tp1471
I0
s(g1
g16
g3
g25
g12
g6
g23
tp1472
I0
s(g36
g2
g10
g4
g5
g6
g14
tp1473
I0
s(g36
g22
g3
g25
g12
g13
g14
tp1474
I0
s(g20
g22
g3
g11
g26
g13
g39
tp1475
I0
s(g1
g2
g3
g25
g26
g6
g7
tp1476
I0
s(g9
g2
g3
g4
g12
g13
g17
tp1477
I0
s(g20
g16
g3
g4
g26
g6
g39
tp1478
F0.0
s(g36
g2
g10
g25
g26
g6
g14
tp1479
I0
s(g9
g16
g3
g4
g26
g6
g14
tp1480
I0
s(g1
g22
g10
g4
g5
g6
g39
tp1481
F0.04725
s(g9
g2
g3
g25
g5
g13
g17
tp1482
I0
s(g36
g22
g3
g11
g12
g6
g7
tp1483
I0
s(g1
g16
g10
g11
g12
g13
g14
tp1484
F0.0005000000000000001
s(g20
g2
g3
g4
g12
g13
g23
tp1485
I0
s(g1
g16
g3
g25
g26
g13
g23
tp1486
F0.0001875
s(g1
g16
g10
g11
g26
g6
g39
tp1487
I0
s(g36
g22
g10
g4
g5
g13
g17
tp1488
F0.0005625
s(g9
g22
g10
g25
g5
g6
g7
tp1489
I0
s(g20
g16
g10
g25
g12
g13
g39
tp1490
I0
s(g1
g2
g10
g11
g12
g6
g39
tp1491
I0
s(g1
g22
g3
g4
g26
g13
g39
tp1492
F0.003375
s(g20
g22
g3
g4
g12
g6
g17
tp1493
I0
s(g20
g2
g10
g11
g12
g6
g17
tp1494
F0.0
s(g1
g16
g3
g25
g12
g13
g23
tp1495
I0
s(g20
g16
g10
g25
g5
g6
g39
tp1496
I0
s(g36
g2
g3
g25
g26
g13
g39
tp1497
I0
s(g20
g22
g3
g11
g26
g13
g7
tp1498
I0
s(g1
g22
g10
g4
g12
g13
g17
tp1499
F0.00075
s(g9
g22
g10
g25
g26
g13
g7
tp1500
I0
s(g9
g2
g10
g11
g12
g6
g17
tp1501
F0.020999999999999998
s(g20
g16
g3
g4
g12
g6
g23
tp1502
I0
s(g1
g16
g3
g25
g5
g6
g23
tp1503
I0
s(g9
g16
g10
g4
g12
g13
g14
tp1504
I0
s(g36
g22
g3
g4
g5
g13
g23
tp1505
I0
s(g9
g2
g10
g11
g12
g13
g7
tp1506
F0.0015
s(g1
g22
g10
g4
g5
g6
g14
tp1507
I0
s(g20
g16
g3
g4
g12
g6
g7
tp1508
I0
s(g9
g22
g10
g4
g12
g13
g7
tp1509
I0
s(g20
g2
g10
g4
g26
g6
g7
tp1510
I0
s(g1
g16
g3
g25
g12
g13
g17
tp1511
I0
s(g9
g16
g3
g25
g5
g6
g39
tp1512
I0
s(g1
g16
g10
g4
g26
g6
g14
tp1513
I0
s(g9
g2
g3
g25
g5
g6
g39
tp1514
I0
s(g1
g2
g10
g4
g12
g6
g17
tp1515
F0.020999999999999998
s(g9
g16
g3
g4
g12
g13
g39
tp1516
F0.000162
s(g9
g16
g10
g11
g12
g6
g39
tp1517
I0
s(g1
g16
g3
g11
g26
g13
g17
tp1518
I0
s(g9
g16
g10
g4
g12
g6
g39
tp1519
F0.0022679999999999996
s(g1
g22
g10
g4
g12
g13
g39
tp1520
F0.00135
s(g1
g22
g3
g4
g26
g13
g14
tp1521
I0
s(g9
g16
g10
g25
g12
g13
g7
tp1522
I0
s(g20
g22
g3
g11
g26
g6
g17
tp1523
I0
s(g1
g22
g3
g4
g12
g6
g39
tp1524
F0.0189
s(g9
g2
g10
g4
g12
g13
g14
tp1525
I0
s(g20
g22
g10
g25
g12
g6
g14
tp1526
I0
s(g1
g16
g10
g4
g26
g6
g17
tp1527
F0.0052499999999999995
s(g36
g2
g10
g4
g26
g6
g23
tp1528
F0.01575
s(g36
g22
g3
g4
g26
g6
g23
tp1529
F0.007875
s(g36
g2
g10
g11
g26
g6
g23
tp1530
F0.02625
s(g9
g16
g3
g11
g12
g6
g14
tp1531
F0.0042
s(g20
g2
g10
g25
g26
g13
g14
tp1532
I0
s(g9
g22
g10
g25
g5
g6
g39
tp1533
I0
s(g9
g22
g3
g4
g12
g13
g7
tp1534
I0
s(g20
g22
g3
g25
g26
g13
g39
tp1535
I0
s(g20
g2
g10
g11
g12
g6
g39
tp1536
I0
s(g36
g2
g3
g25
g26
g6
g7
tp1537
I0
s(g36
g22
g10
g11
g26
g13
g39
tp1538
I0
s(g36
g2
g10
g25
g26
g6
g39
tp1539
I0
s(g9
g22
g3
g4
g26
g13
g7
tp1540
I0
s(g36
g16
g10
g4
g26
g13
g39
tp1541
F0.0002025
s(g9
g16
g10
g4
g12
g6
g17
tp1542
F0.0012599999999999998
s(g1
g16
g10
g4
g12
g6
g17
tp1543
F0.0021
s(g9
g2
g10
g4
g26
g6
g23
tp1544
F0.0315
s(g1
g16
g10
g25
g26
g13
g7
tp1545
I0
s(g36
g2
g3
g4
g12
g6
g39
tp1546
F0.01134
s(g9
g22
g10
g11
g12
g13
g39
tp1547
I0
s(g1
g16
g3
g11
g26
g6
g7
tp1548
I0
s(g1
g2
g10
g11
g26
g13
g14
tp1549
F0.0125
s(g20
g22
g3
g25
g5
g13
g7
tp1550
I0
s(g36
g16
g10
g25
g26
g6
g39
tp1551
I0
s(g1
g2
g3
g4
g26
g6
g17
tp1552
I0
s(g1
g22
g10
g25
g5
g6
g14
tp1553
I0
s(g1
g2
g3
g11
g26
g6
g7
tp1554
I0
s(g9
g2
g10
g11
g12
g13
g23
tp1555
I0
s(g1
g22
g3
g11
g26
g13
g17
tp1556
I0
s(g20
g2
g3
g4
g5
g6
g14
tp1557
I0
s(g36
g22
g10
g11
g26
g6
g14
tp1558
F0.02625
s(g9
g16
g3
g11
g26
g13
g7
tp1559
I0
s(g36
g22
g3
g25
g5
g13
g23
tp1560
I0
s(g36
g2
g3
g4
g5
g13
g14
tp1561
I0
s(g9
g22
g3
g4
g5
g6
g14
tp1562
I0
s(g20
g16
g10
g4
g26
g6
g14
tp1563
I0
s(g36
g2
g10
g25
g5
g13
g23
tp1564
I0
s(g1
g2
g3
g11
g12
g13
g14
tp1565
F0.005000000000000001
s(g1
g22
g3
g4
g5
g6
g39
tp1566
F0.04725
s(g36
g16
g10
g4
g26
g13
g17
tp1567
F0.0001125
s(g36
g22
g3
g25
g5
g13
g7
tp1568
I0
s(g36
g16
g10
g11
g12
g6
g23
tp1569
I0
s(g20
g16
g10
g11
g26
g13
g39
tp1570
I0
s(g36
g2
g10
g25
g12
g13
g39
tp1571
I0
s(g20
g16
g3
g11
g26
g13
g17
tp1572
I0
s(g1
g2
g10
g4
g5
g13
g23
tp1573
I0
s(g36
g22
g10
g4
g26
g13
g14
tp1574
I0
s(g9
g22
g3
g25
g5
g6
g23
tp1575
I0
s(g9
g16
g3
g25
g5
g6
g7
tp1576
I0
s(g9
g2
g10
g11
g12
g6
g39
tp1577
I0
s(g36
g22
g10
g4
g5
g6
g23
tp1578
I0
s(g36
g16
g10
g25
g26
g13
g7
tp1579
I0
s(g20
g16
g10
g25
g26
g6
g14
tp1580
I0
s(g36
g16
g3
g11
g12
g6
g7
tp1581
I0
s(g1
g16
g10
g4
g26
g6
g39
tp1582
F0.00945
s(g36
g22
g3
g11
g26
g13
g23
tp1583
F0.0009375
s(g36
g16
g3
g25
g26
g6
g7
tp1584
I0
s(g1
g16
g10
g25
g26
g13
g23
tp1585
F0.0001875
s(g9
g22
g3
g25
g12
g6
g14
tp1586
I0
s(g1
g2
g10
g11
g12
g6
g17
tp1587
F0.034999999999999996
s(g1
g16
g10
g11
g26
g13
g7
tp1588
F0.0006250000000000001
s(g9
g16
g10
g11
g26
g13
g39
tp1589
I0
s(g9
g22
g10
g11
g26
g13
g14
tp1590
F0.00375
s(g20
g2
g3
g11
g26
g6
g39
tp1591
I0
s(g1
g16
g3
g4
g12
g6
g7
tp1592
I0
s(g1
g22
g3
g4
g5
g6
g17
tp1593
I0
s(g36
g16
g3
g4
g5
g13
g17
tp1594
I0
s(g9
g2
g10
g25
g5
g6
g17
tp1595
F0.01575
s(g9
g16
g10
g11
g12
g6
g17
tp1596
F0.0021
s(g36
g22
g10
g25
g12
g13
g23
tp1597
I0
s(g36
g2
g10
g11
g12
g6
g14
tp1598
F0.020999999999999998
s(g36
g22
g3
g11
g12
g13
g39
tp1599
I0
s(g1
g22
g10
g11
g26
g6
g14
tp1600
F0.0875
s(g20
g2
g3
g25
g26
g13
g23
tp1601
F0.0
s(g1
g2
g10
g11
g12
g6
g7
tp1602
F0.034999999999999996
s(g36
g22
g10
g25
g12
g6
g23
tp1603
I0
s(g1
g22
g10
g11
g12
g13
g39
tp1604
I0
s(g1
g2
g10
g11
g26
g6
g14
tp1605
F0.175
s(g9
g22
g10
g25
g12
g13
g39
tp1606
I0
s(g20
g22
g3
g25
g12
g13
g14
tp1607
I0
s(g36
g16
g3
g11
g26
g13
g23
tp1608
F0.0001875
s(g36
g16
g3
g11
g12
g6
g23
tp1609
I0
s(g36
g22
g10
g25
g5
g13
g23
tp1610
I0
s(g1
g22
g10
g25
g12
g6
g23
tp1611
I0
s(g20
g16
g3
g25
g12
g13
g7
tp1612
I0
s(g20
g16
g10
g25
g12
g6
g7
tp1613
I0
s(g1
g22
g3
g25
g12
g13
g39
tp1614
I0
s(g1
g22
g10
g11
g12
g6
g23
tp1615
I0
s(g20
g22
g10
g11
g26
g13
g14
tp1616
F0.0
s(g9
g22
g3
g25
g26
g6
g14
tp1617
I0
s(g1
g22
g3
g25
g26
g13
g23
tp1618
F0.0009375
s(g9
g2
g3
g4
g26
g6
g7
tp1619
I0
s(g9
g16
g3
g11
g26
g6
g23
tp1620
F0.0052499999999999995
s(g9
g16
g3
g25
g5
g13
g14
tp1621
I0
s(g20
g16
g3
g11
g12
g13
g14
tp1622
F0.0
s(g36
g16
g10
g4
g5
g6
g7
tp1623
I0
s(g20
g2
g10
g11
g12
g13
g7
tp1624
F0.0
s(g36
g16
g10
g25
g26
g13
g23
tp1625
F5.625e-05
s(g9
g22
g10
g25
g26
g6
g14
tp1626
I0
s(g20
g2
g3
g25
g5
g13
g14
tp1627
I0
s(g1
g2
g10
g4
g5
g6
g23
tp1628
I0
s(g1
g16
g3
g25
g26
g6
g14
tp1629
I0
s(g36
g2
g3
g4
g26
g13
g17
tp1630
I0
s(g20
g2
g10
g25
g12
g6
g17
tp1631
F0.0
s(g20
g2
g3
g4
g26
g6
g14
tp1632
I0
s(g20
g22
g3
g25
g5
g6
g17
tp1633
I0
s(g1
g16
g10
g4
g26
g13
g23
tp1634
F0.000375
s(g1
g2
g10
g25
g5
g13
g7
tp1635
I0
s(g1
g2
g3
g11
g12
g6
g14
tp1636
F0.06999999999999999
s(g36
g2
g10
g25
g26
g13
g14
tp1637
I0
s(g20
g2
g3
g25
g26
g13
g14
tp1638
I0
s(g1
g22
g10
g4
g12
g6
g17
tp1639
F0.010499999999999999
s(g20
g16
g10
g4
g5
g6
g7
tp1640
I0
s(g9
g2
g10
g11
g12
g6
g14
tp1641
F0.041999999999999996
s(g9
g22
g10
g4
g12
g6
g14
tp1642
I0
s(g36
g16
g3
g11
g26
g6
g7
tp1643
I0
s(g1
g22
g3
g25
g12
g13
g14
tp1644
I0
s(g20
g22
g10
g11
g26
g13
g39
tp1645
I0
s(g9
g22
g3
g25
g5
g13
g23
tp1646
I0
s(g36
g16
g3
g25
g5
g13
g14
tp1647
I0
s(g36
g16
g3
g11
g12
g13
g23
tp1648
I0
s(g36
g16
g3
g4
g26
g13
g7
tp1649
I0
s(g36
g2
g10
g25
g5
g6
g39
tp1650
I0
s(g20
g22
g10
g25
g26
g13
g17
tp1651
F0.0
s(g1
g2
g10
g25
g12
g6
g23
tp1652
I0
s(g9
g22
g10
g11
g26
g6
g7
tp1653
F0.02625
s(g20
g2
g3
g4
g26
g6
g17
tp1654
I0
s(g36
g22
g10
g25
g5
g6
g23
tp1655
I0
s(g9
g22
g10
g11
g12
g13
g17
tp1656
F0.00075
s(g36
g22
g10
g4
g12
g13
g17
tp1657
F0.000225
s(g20
g2
g10
g25
g5
g6
g39
tp1658
I0
s(g9
g2
g10
g4
g12
g6
g14
tp1659
I0
s(g1
g22
g3
g25
g5
g13
g14
tp1660
I0
s(g9
g22
g10
g4
g26
g13
g14
tp1661
I0
s(g36
g16
g10
g4
g5
g6
g23
tp1662
I0
s(g20
g22
g3
g11
g26
g6
g39
tp1663
I0
s(g9
g2
g3
g25
g26
g13
g7
tp1664
I0
s(g9
g2
g3
g4
g26
g6
g23
tp1665
F0.0315
s(g36
g16
g10
g4
g12
g6
g7
tp1666
I0
s(g20
g16
g3
g11
g26
g13
g39
tp1667
I0
s(g36
g16
g10
g11
g26
g6
g7
tp1668
F0.0026249999999999997
s(g9
g22
g3
g25
g26
g6
g17
tp1669
I0
s(g20
g2
g10
g25
g5
g13
g39
tp1670
I0
s(g20
g22
g3
g4
g12
g13
g7
tp1671
I0
s(g9
g2
g3
g25
g12
g6
g7
tp1672
I0
s(g36
g16
g3
g25
g26
g13
g14
tp1673
I0
s(g20
g22
g10
g25
g12
g6
g17
tp1674
F0.0
s(g20
g2
g3
g25
g26
g6
g23
tp1675
F0.0
s(g9
g16
g3
g4
g5
g6
g14
tp1676
I0
s(g1
g16
g10
g25
g12
g13
g7
tp1677
I0
s(g36
g22
g10
g4
g5
g6
g7
tp1678
I0
s(g20
g22
g10
g11
g12
g6
g39
tp1679
I0
s(g20
g2
g10
g4
g26
g13
g14
tp1680
I0
s(g1
g16
g3
g4
g26
g13
g23
tp1681
F0.000375
s(g20
g2
g3
g25
g12
g13
g23
tp1682
I0
s(g9
g16
g10
g4
g5
g13
g39
tp1683
F0.000405
s(g20
g22
g3
g4
g5
g13
g14
tp1684
I0
s(g1
g22
g3
g25
g5
g13
g39
tp1685
I0
s(g1
g22
g10
g25
g26
g13
g39
tp1686
I0
s(g9
g22
g10
g25
g12
g6
g39
tp1687
I0
s(g9
g2
g10
g25
g12
g6
g14
tp1688
I0
s(g36
g16
g3
g25
g26
g6
g39
tp1689
I0
s(g9
g16
g10
g11
g12
g13
g23
tp1690
I0
s(g20
g22
g10
g4
g5
g6
g17
tp1691
F0.0
s(g9
g2
g3
g4
g26
g13
g17
tp1692
I0
s(g9
g16
g10
g25
g26
g6
g7
tp1693
I0
s(g20
g16
g10
g4
g26
g13
g39
tp1694
F0.0
s(g20
g16
g3
g25
g5
g6
g7
tp1695
I0
s(g1
g2
g10
g25
g5
g6
g23
tp1696
I0
s(g36
g16
g3
g4
g26
g13
g23
tp1697
F0.0001125
s(g20
g16
g10
g11
g26
g13
g7
tp1698
F0.0
s(g36
g2
g10
g11
g12
g13
g17
tp1699
F0.00075
s(g9
g22
g10
g25
g26
g13
g23
tp1700
F0.0005625
s(g36
g16
g10
g25
g5
g6
g39
tp1701
I0
s(g20
g22
g3
g25
g5
g6
g39
tp1702
I0
s(g20
g2
g10
g25
g12
g6
g39
tp1703
I0
s(g9
g2
g3
g25
g12
g13
g23
tp1704
I0
s(g36
g16
g10
g25
g26
g6
g14
tp1705
I0
s(g9
g22
g3
g4
g26
g6
g23
tp1706
F0.01575
s(g20
g16
g10
g4
g12
g13
g23
tp1707
I0
s(g20
g2
g3
g25
g12
g6
g23
tp1708
I0
s(g1
g16
g10
g11
g26
g6
g23
tp1709
F0.008749999999999999
s(g20
g16
g10
g11
g12
g6
g23
tp1710
I0
s(g1
g22
g3
g25
g12
g6
g14
tp1711
I0
s(g20
g2
g3
g4
g12
g6
g14
tp1712
I0
s(g20
g16
g10
g25
g12
g13
g23
tp1713
I0
s(g9
g2
g10
g11
g26
g6
g23
tp1714
F0.0525
s(g1
g2
g10
g11
g12
g13
g39
tp1715
I0
s(g20
g22
g10
g11
g26
g6
g39
tp1716
I0
s(g9
g22
g10
g4
g5
g13
g23
tp1717
I0
s(g20
g22
g10
g11
g12
g13
g39
tp1718
I0
s(g9
g22
g3
g25
g12
g13
g23
tp1719
I0
s(g20
g2
g10
g11
g26
g13
g39
tp1720
I0
s(g36
g16
g3
g25
g5
g6
g14
tp1721
I0
s(g20
g22
g10
g11
g12
g13
g7
tp1722
F0.0
s(g20
g22
g10
g4
g26
g6
g39
tp1723
F0.0
s(g9
g16
g3
g4
g12
g6
g17
tp1724
I0
s(g36
g16
g10
g4
g12
g13
g17
tp1725
F4.5e-05
s(g1
g16
g3
g4
g12
g6
g23
tp1726
I0
s(g20
g2
g10
g4
g12
g6
g17
tp1727
F0.0
s(g9
g2
g3
g11
g26
g13
g23
tp1728
F0.00375
s(g36
g22
g3
g4
g26
g6
g14
tp1729
I0
s(g9
g2
g10
g11
g26
g13
g39
tp1730
I0
s(g20
g2
g3
g25
g26
g13
g39
tp1731
I0
s(g36
g22
g3
g11
g26
g6
g7
tp1732
I0
s(g20
g16
g10
g4
g5
g13
g17
tp1733
F0.0
s(g20
g2
g10
g11
g12
g13
g17
tp1734
F0.0
s(g20
g2
g10
g25
g5
g6
g17
tp1735
F0.0
s(g20
g16
g3
g11
g26
g13
g14
tp1736
F0.0
s(g9
g2
g3
g4
g5
g13
g14
tp1737
I0
s(g1
g16
g3
g25
g12
g13
g39
tp1738
I0
s(g20
g16
g3
g11
g12
g6
g14
tp1739
F0.0
s(g9
g22
g10
g11
g12
g6
g39
tp1740
I0
s(g9
g22
g3
g25
g26
g13
g14
tp1741
I0
s(g36
g2
g3
g25
g26
g13
g23
tp1742
F0.0005625
s(g36
g22
g3
g25
g5
g6
g17
tp1743
I0
s(g20
g16
g3
g4
g5
g13
g7
tp1744
I0
s(g20
g16
g10
g25
g5
g13
g23
tp1745
I0
s(g36
g16
g3
g25
g12
g13
g7
tp1746
I0
s(g20
g16
g10
g25
g12
g6
g17
tp1747
F0.0
s(g20
g2
g3
g25
g12
g13
g7
tp1748
I0
s(g36
g2
g10
g11
g26
g13
g23
tp1749
F0.001875
s(g36
g22
g3
g25
g26
g6
g39
tp1750
I0
s(g20
g16
g10
g4
g5
g13
g23
tp1751
I0
s(g1
g22
g3
g25
g5
g6
g7
tp1752
I0
s(g36
g16
g10
g4
g26
g6
g17
tp1753
F0.0015749999999999998
s(g20
g16
g10
g4
g26
g13
g7
tp1754
I0
s(g1
g22
g3
g4
g12
g6
g23
tp1755
I0
s(g20
g2
g3
g4
g5
g13
g17
tp1756
I0
s(g36
g2
g10
g11
g12
g6
g17
tp1757
F0.010499999999999999
s(g9
g22
g3
g11
g26
g13
g7
tp1758
I0
s(g36
g16
g3
g25
g12
g13
g17
tp1759
I0
s(g36
g16
g10
g11
g12
g13
g17
tp1760
F7.500000000000001e-05
s(g20
g2
g10
g4
g12
g13
g7
tp1761
I0
s(g1
g16
g10
g4
g12
g13
g17
tp1762
F0.00015000000000000001
s(g36
g2
g10
g4
g12
g13
g23
tp1763
I0
s(g20
g16
g10
g25
g26
g13
g7
tp1764
I0
s(g20
g2
g3
g4
g12
g13
g7
tp1765
I0
s(g9
g2
g3
g4
g5
g13
g39
tp1766
F0.00405
s(g1
g2
g3
g11
g12
g13
g23
tp1767
I0
s(g9
g2
g3
g4
g12
g6
g14
tp1768
I0
s(g9
g22
g3
g4
g12
g13
g17
tp1769
I0
s(g1
g2
g3
g4
g26
g13
g17
tp1770
I0
s(g9
g2
g10
g25
g5
g13
g23
tp1771
I0
s(g36
g2
g3
g25
g26
g6
g23
tp1772
F0.007875
s(g36
g2
g10
g4
g26
g13
g17
tp1773
F0.001125
s(g20
g2
g10
g25
g5
g13
g17
tp1774
F0.0
s(g1
g16
g3
g11
g12
g13
g14
tp1775
F0.0005000000000000001
s(g20
g16
g10
g4
g26
g6
g39
tp1776
F0.0
s(g20
g16
g3
g4
g12
g13
g17
tp1777
I0
s(g20
g16
g3
g4
g5
g6
g17
tp1778
I0
s(g9
g16
g10
g11
g26
g6
g39
tp1779
I0
s(g20
g22
g3
g4
g26
g6
g17
tp1780
I0
s(g9
g16
g3
g4
g5
g6
g17
tp1781
I0
s(g9
g22
g10
g25
g12
g13
g7
tp1782
I0
s(g36
g2
g10
g11
g12
g13
g39
tp1783
I0
s(g36
g2
g10
g11
g12
g13
g7
tp1784
F0.00075
s(g36
g2
g3
g11
g26
g13
g14
tp1785
F0.00375
s(g36
g2
g3
g11
g12
g6
g23
tp1786
I0
s(g9
g16
g3
g25
g5
g13
g17
tp1787
I0
s(g1
g22
g3
g11
g26
g6
g7
tp1788
I0
s(g20
g16
g10
g4
g26
g13
g17
tp1789
F0.0
s(g1
g22
g3
g4
g5
g13
g14
tp1790
I0
s(g20
g22
g10
g4
g5
g13
g23
tp1791
I0
s(g1
g2
g3
g4
g12
g13
g14
tp1792
I0
s(g20
g2
g10
g25
g5
g13
g14
tp1793
I0
s(g36
g16
g10
g25
g12
g6
g39
tp1794
I0
s(g20
g16
g10
g25
g26
g13
g17
tp1795
F0.0
s(g20
g16
g10
g11
g26
g13
g23
tp1796
F0.0
s(g36
g2
g10
g4
g5
g13
g14
tp1797
I0
s(g9
g22
g10
g4
g5
g6
g23
tp1798
I0
s(g1
g2
g10
g4
g5
g13
g39
tp1799
F0.00675
s(g1
g16
g10
g25
g26
g6
g17
tp1800
F0.0026249999999999997
s(g9
g22
g3
g25
g12
g6
g39
tp1801
I0
s(g20
g2
g10
g4
g26
g6
g23
tp1802
F0.0
s(g1
g2
g10
g25
g26
g13
g23
tp1803
F0.001875
s(g9
g2
g3
g25
g26
g13
g23
tp1804
F0.001125
s(g36
g16
g10
g4
g5
g13
g39
tp1805
F0.0002025
s(g36
g22
g10
g25
g12
g6
g39
tp1806
I0
s(g1
g22
g3
g4
g12
g13
g14
tp1807
I0
s(g20
g2
g10
g25
g26
g6
g17
tp1808
F0.0
s(g9
g2
g3
g4
g5
g13
g17
tp1809
I0
s(g9
g22
g3
g25
g12
g6
g17
tp1810
I0
s(g36
g22
g10
g25
g5
g13
g7
tp1811
I0
s(g36
g16
g10
g11
g12
g6
g39
tp1812
I0
s(g36
g22
g10
g25
g12
g13
g39
tp1813
I0
s(g9
g22
g3
g4
g5
g13
g23
tp1814
I0
s(g9
g22
g10
g25
g26
g6
g23
tp1815
F0.007875
s(g36
g2
g3
g4
g5
g6
g39
tp1816
F0.02835
s(g1
g16
g10
g25
g5
g13
g17
tp1817
F0.0001875
s(g1
g16
g10
g25
g26
g6
g39
tp1818
I0
s(g1
g16
g3
g25
g26
g13
g7
tp1819
I0
s(g9
g2
g3
g11
g12
g6
g14
tp1820
F0.041999999999999996
s(g9
g22
g10
g11
g12
g6
g17
tp1821
F0.010499999999999999
s(g36
g2
g10
g25
g12
g6
g17
tp1822
F0.0031499999999999996
s(g1
g22
g10
g11
g12
g13
g23
tp1823
I0
s(g36
g22
g3
g25
g12
g6
g7
tp1824
I0
s(g36
g16
g10
g25
g12
g6
g17
tp1825
F0.00031499999999999996
s(g9
g16
g3
g4
g5
g6
g39
tp1826
F0.00567
s(g1
g2
g3
g25
g5
g13
g7
tp1827
I0
s(g36
g2
g10
g4
g5
g13
g39
tp1828
F0.002025
s(g1
g2
g10
g4
g26
g6
g7
tp1829
I0
s(g9
g22
g10
g11
g12
g6
g7
tp1830
F0.010499999999999999
s(g9
g16
g3
g25
g5
g13
g39
tp1831
I0
s(g9
g16
g10
g25
g5
g6
g14
tp1832
I0
s(g9
g2
g3
g11
g26
g6
g23
tp1833
F0.0525
s(g1
g2
g10
g25
g26
g6
g17
tp1834
F0.02625
s(g9
g22
g10
g25
g26
g6
g39
tp1835
I0
s(g1
g2
g3
g11
g12
g6
g23
tp1836
I0
s(g9
g2
g3
g4
g5
g6
g23
tp1837
I0
s(g9
g22
g3
g11
g12
g6
g17
tp1838
I0
s(g36
g22
g3
g25
g26
g13
g17
tp1839
I0
s(g1
g16
g10
g11
g12
g6
g23
tp1840
I0
s(g36
g16
g10
g11
g26
g13
g14
tp1841
F0.000375
s(g20
g22
g10
g25
g5
g6
g39
tp1842
I0
s(g36
g16
g10
g25
g26
g6
g17
tp1843
F0.0007874999999999999
s(g20
g22
g3
g25
g26
g13
g14
tp1844
I0
s(g20
g22
g10
g25
g5
g6
g7
tp1845
I0
s(g20
g16
g10
g4
g26
g6
g17
tp1846
F0.0
s(g20
g16
g10
g4
g5
g6
g17
tp1847
F0.0
s(g1
g16
g3
g4
g5
g13
g39
tp1848
F0.000675
s(g9
g16
g3
g25
g12
g6
g14
tp1849
I0
s(g9
g22
g10
g4
g5
g6
g7
tp1850
I0
s(g20
g16
g3
g25
g12
g13
g17
tp1851
I0
s(g20
g22
g10
g4
g26
g6
g14
tp1852
I0
s(g20
g2
g10
g11
g26
g6
g17
tp1853
F0.0
s(g36
g16
g3
g25
g5
g13
g39
tp1854
I0
s(g1
g22
g10
g11
g26
g6
g23
tp1855
F0.04375
s(g20
g22
g10
g25
g5
g13
g39
tp1856
I0
s(g1
g22
g3
g4
g12
g6
g7
tp1857
I0
s(g9
g16
g3
g4
g26
g13
g39
tp1858
F0.000405
s(g9
g2
g3
g11
g12
g13
g14
tp1859
F0.003
s(g20
g16
g3
g11
g12
g6
g39
tp1860
I0
s(g36
g2
g3
g11
g26
g6
g39
tp1861
I0
s(g20
g2
g10
g4
g12
g6
g7
tp1862
I0
s(g36
g2
g10
g11
g12
g6
g39
tp1863
I0
s(g36
g22
g3
g4
g12
g6
g17
tp1864
I0
s(g1
g22
g10
g4
g12
g13
g7
tp1865
I0
s(g20
g2
g3
g25
g12
g13
g39
tp1866
I0
s(g9
g22
g3
g25
g5
g13
g39
tp1867
I0
s(g1
g22
g10
g25
g12
g13
g39
tp1868
I0
s(g1
g2
g10
g25
g5
g13
g39
tp1869
I0
s(g36
g16
g10
g25
g26
g13
g39
tp1870
I0
s(g9
g16
g3
g25
g26
g6
g14
tp1871
I0
s(g36
g2
g3
g25
g12
g6
g23
tp1872
I0
s(g20
g2
g3
g25
g5
g13
g39
tp1873
I0
s(g9
g16
g10
g25
g12
g6
g23
tp1874
I0
s(g1
g2
g10
g4
g5
g6
g39
tp1875
F0.0945
s(g1
g16
g10
g4
g5
g13
g17
tp1876
F0.000375
s(g9
g2
g10
g4
g12
g13
g17
tp1877
F0.0009
s(g9
g16
g3
g4
g5
g13
g39
tp1878
F0.000405
s(g36
g2
g3
g11
g12
g13
g7
tp1879
I0
s(g36
g16
g3
g4
g12
g6
g39
tp1880
F0.0011339999999999998
s(g36
g22
g3
g25
g12
g6
g23
tp1881
I0
s(g36
g22
g10
g25
g12
g13
g14
tp1882
I0
s(g9
g2
g3
g4
g26
g6
g39
tp1883
F0.0567
s(g36
g2
g3
g11
g12
g13
g23
tp1884
I0
s(g9
g2
g10
g25
g26
g13
g17
tp1885
F0.001125
s(g20
g22
g3
g4
g12
g6
g39
tp1886
F0.0
s(g1
g16
g3
g11
g26
g13
g7
tp1887
I0
s(g1
g2
g10
g4
g12
g13
g17
tp1888
F0.0015
s(g9
g2
g10
g4
g5
g13
g23
tp1889
I0
s(g20
g22
g10
g11
g12
g6
g7
tp1890
F0.0
s(g36
g2
g10
g25
g5
g6
g23
tp1891
I0
s(g36
g16
g3
g25
g5
g6
g23
tp1892
I0
s(g1
g2
g3
g4
g5
g6
g17
tp1893
I0
s(g20
g16
g3
g25
g26
g6
g39
tp1894
I0
s(g1
g16
g10
g11
g26
g6
g7
tp1895
F0.008749999999999999
s(g1
g2
g3
g11
g26
g13
g7
tp1896
I0
s(g20
g22
g3
g25
g12
g6
g23
tp1897
I0
s(g9
g2
g10
g25
g26
g13
g39
tp1898
I0
s(g1
g16
g10
g4
g5
g6
g14
tp1899
I0
s(g36
g2
g3
g4
g12
g6
g14
tp1900
I0
s(g20
g22
g3
g11
g12
g13
g14
tp1901
F0.0
s(g36
g22
g3
g25
g12
g13
g23
tp1902
I0
s(g9
g22
g3
g4
g26
g6
g14
tp1903
I0
s(g9
g22
g10
g11
g12
g13
g14
tp1904
F0.0015
s(g1
g16
g3
g4
g5
g6
g17
tp1905
I0
s(g36
g2
g3
g11
g26
g13
g39
tp1906
I0
s(g20
g22
g3
g25
g26
g6
g17
tp1907
I0
s(g9
g22
g3
g25
g12
g13
g7
tp1908
I0
s(g9
g22
g10
g25
g26
g6
g7
tp1909
I0
s(g1
g22
g3
g25
g12
g6
g23
tp1910
I0
s(g9
g22
g10
g25
g5
g6
g23
tp1911
I0
s(g36
g16
g3
g4
g12
g13
g7
tp1912
I0
s(g36
g2
g10
g11
g26
g6
g14
tp1913
F0.0525
s(g9
g22
g3
g11
g26
g6
g39
tp1914
I0
s(g9
g22
g10
g4
g26
g13
g23
tp1915
F0.001125
s(g20
g22
g3
g25
g5
g6
g14
tp1916
I0
s(g36
g2
g3
g25
g12
g13
g17
tp1917
I0
s(g36
g22
g10
g25
g5
g6
g7
tp1918
I0
s(g1
g22
g3
g11
g12
g6
g23
tp1919
I0
s(g20
g16
g10
g11
g12
g13
g23
tp1920
I0
s(g20
g2
g10
g4
g26
g13
g7
tp1921
I0
s(g9
g22
g3
g25
g5
g6
g14
tp1922
I0
s(g20
g22
g3
g25
g26
g6
g7
tp1923
I0
s(g9
g2
g10
g4
g12
g13
g39
tp1924
F0.00162
s(g36
g16
g10
g4
g5
g13
g23
tp1925
I0
s(g9
g16
g10
g4
g5
g13
g23
tp1926
I0
s(g1
g22
g10
g4
g26
g13
g17
tp1927
F0.001875
s(g9
g2
g10
g4
g26
g13
g17
tp1928
F0.00225
s(g1
g22
g3
g11
g26
g13
g7
tp1929
I0
s(g9
g22
g3
g11
g12
g13
g39
tp1930
I0
s(g36
g22
g3
g11
g26
g13
g14
tp1931
F0.001875
s(g36
g2
g3
g25
g12
g13
g39
tp1932
I0
s(g36
g2
g10
g25
g12
g13
g14
tp1933
I0
s(g9
g16
g3
g25
g26
g13
g14
tp1934
I0
s(g1
g2
g10
g4
g26
g13
g7
tp1935
I0
s(g20
g16
g3
g11
g26
g6
g17
tp1936
I0
s(g1
g16
g3
g4
g12
g13
g7
tp1937
I0
s(g9
g2
g3
g11
g12
g6
g17
tp1938
I0
s(g20
g2
g3
g25
g5
g6
g14
tp1939
I0
s(g9
g2
g10
g25
g12
g6
g39
tp1940
I0
s(g20
g22
g3
g4
g5
g13
g17
tp1941
I0
s(g9
g2
g3
g4
g12
g13
g14
tp1942
I0
s.