(dp0
(S'beaver energy high'
p1
S'marsh energy high'
p2
S'no lumber'
p3
S'see tree'
p4
S'at marsh'
p5
S'none wolf'
p6
S'pick up lumber'
p7
tp8
I0
s(S'beaver energy med'
p9
g2
S'has lumber'
p10
S'at tree'
p11
S'none marsh'
p12
S'see wolf'
p13
S'eat'
p14
tp15
F0.003
s(g1
S'marsh energy low'
p16
g3
g11
g12
g13
S'drop lumber'
p17
tp18
I0
s(S'beaver energy low'
p19
g16
g10
g11
g5
g6
g7
tp20
F0.0026249999999999997
s(g9
g2
g10
g4
g5
g6
g14
tp21
I0
s(S'beaver energy zero'
p22
g16
g3
g4
g12
g13
g14
tp23
I0
s(g19
S'marsh energy med'
p24
g10
g11
g5
g6
S'move towards marsh'
p25
tp26
I0
s(g22
g24
g10
g4
g12
g13
g25
tp27
I0
s(g1
g2
g3
S'none tree'
p28
S'see marsh'
p29
g6
g17
tp30
I0
s(g9
g24
g3
g11
g12
g13
g7
tp31
I0
s(g9
g2
g3
g28
g12
g6
g25
tp32
I0
s(g22
g16
g10
g28
g5
g13
g14
tp33
I0
s(g1
g2
g10
g11
g12
g13
g25
tp34
I0
s(g1
g16
g3
g11
g5
g6
g7
tp35
I0
s(g22
g24
g10
g28
g5
g13
g7
tp36
I0
s(g1
g16
g3
g11
g12
g6
g14
tp37
F0.007000000000000001
s(g9
g24
g3
g11
g29
g6
g14
tp38
F0.0525
s(g9
g16
g10
g4
g5
g6
g25
tp39
I0
s(g19
g24
g10
g11
g29
g6
g25
tp40
F0.013125
s(g1
g24
g3
g11
g12
g13
g25
tp41
I0
s(g22
g24
g3
g11
g12
g6
S'move towards tree'
p42
tp43
I0
s(g22
g2
g3
g11
g5
g6
g17
tp44
I0
s(g9
g2
g10
g11
g29
g13
g7
tp45
F0.00375
s(g1
g2
g3
g11
g5
g6
g17
tp46
I0
s(g19
g16
g3
g4
g12
g13
g42
tp47
F8.1e-05
s(g22
g24
g10
g4
g5
g6
g25
tp48
I0
s(g22
g16
g10
g28
g12
g13
g7
tp49
I0
s(g19
g16
g3
g11
g29
g13
g14
tp50
F0.000375
s(g22
g24
g3
g11
g29
g6
g14
tp51
F0.0
s(g9
g2
g10
g4
g29
g13
g42
tp52
F0.00405
s(g9
g2
g3
g4
g29
g13
g7
tp53
I0
s(g1
g24
g10
g28
g12
g6
g14
tp54
I0
s(g1
g2
g10
g4
g12
g6
g42
tp55
F0.0378
s(g1
g16
g3
g11
g12
g6
g7
tp56
I0
s(g19
g2
g10
g28
g29
g6
g7
tp57
I0
s(g22
g2
g3
g28
g29
g13
g17
tp58
I0
s(g1
g24
g10
g11
g12
g13
g7
tp59
F0.0012500000000000002
s(g1
g2
g10
g4
g12
g6
g7
tp60
I0
s(g19
g16
g10
g28
g12
g13
g25
tp61
I0
s(g1
g2
g3
g11
g29
g6
g14
tp62
F0.175
s(g9
g2
g10
g28
g5
g13
g14
tp63
I0
s(g1
g16
g3
g11
g12
g6
g25
tp64
I0
s(g19
g2
g3
g11
g5
g6
g7
tp65
I0
s(g9
g24
g10
g4
g5
g13
g42
tp66
F0.002025
s(g9
g16
g3
g28
g5
g6
g17
tp67
I0
s(g19
g24
g3
g28
g5
g6
g14
tp68
I0
s(g22
g24
g10
g28
g12
g13
g14
tp69
I0
s(g9
g24
g3
g11
g5
g13
g14
tp70
F0.00375
s(g19
g2
g10
g28
g29
g6
g17
tp71
F0.007875
s(g9
g2
g10
g11
g5
g13
g25
tp72
I0
s(g9
g16
g10
g28
g5
g13
g42
tp73
I0
s(g22
g24
g3
g4
g12
g6
g7
tp74
I0
s(g22
g2
g3
g28
g12
g6
g17
tp75
I0
s(g22
g2
g10
g11
g29
g6
g7
tp76
F0.0
s(g9
g16
g10
g28
g29
g6
g25
tp77
F0.0015749999999999998
s(g19
g16
g10
g4
g12
g13
g14
tp78
I0
s(g9
g24
g10
g28
g5
g6
g17
tp79
F0.007875
s(g1
g16
g10
g11
g12
g6
g7
tp80
F0.0035000000000000005
s(g9
g2
g3
g11
g5
g13
g25
tp81
I0
s(g1
g16
g10
g28
g5
g6
g14
tp82
I0
s(g9
g24
g10
g4
g12
g6
g25
tp83
I0
s(g22
g16
g10
g4
g12
g13
g17
tp84
F0.0
s(g9
g16
g10
g4
g29
g6
g14
tp85
I0
s(g1
g24
g10
g28
g29
g6
g17
tp86
F0.013125
s(g22
g16
g10
g28
g29
g6
g17
tp87
F0.0
s(g22
g16
g3
g28
g29
g6
g17
tp88
I0
s(g9
g16
g10
g11
g5
g13
g17
tp89
F0.000375
s(g9
g24
g3
g28
g5
g13
g14
tp90
I0
s(g1
g24
g3
g11
g12
g13
g7
tp91
I0
s(g9
g24
g3
g11
g29
g13
g42
tp92
I0
s(g22
g2
g3
g11
g5
g13
g42
tp93
I0
s(g19
g24
g10
g4
g5
g13
g42
tp94
F0.0010125
s(g19
g16
g3
g4
g29
g6
g25
tp95
F0.0015749999999999998
s(g9
g16
g3
g28
g12
g13
g14
tp96
I0
s(g19
g2
g10
g4
g5
g6
g25
tp97
I0
s(g9
g2
g3
g4
g12
g6
g17
tp98
I0
s(g22
g16
g10
g28
g29
g13
g25
tp99
F0.0
s(g1
g24
g10
g4
g29
g13
g14
tp100
I0
s(g22
g24
g10
g4
g12
g6
g25
tp101
I0
s(g22
g16
g3
g11
g12
g6
g25
tp102
I0
s(g22
g24
g3
g28
g29
g13
g14
tp103
I0
s(g19
g2
g10
g4
g29
g13
g14
tp104
I0
s(g22
g2
g10
g4
g29
g6
g14
tp105
I0
s(g1
g24
g3
g28
g5
g6
g42
tp106
I0
s(g9
g2
g3
g4
g12
g13
g42
tp107
F0.00162
s(g1
g2
g10
g28
g5
g13
g25
tp108
I0
s(g19
g2
g3
g28
g29
g13
g14
tp109
I0
s(g19
g24
g3
g4
g12
g13
g25
tp110
I0
s(g1
g24
g10
g4
g5
g13
g25
tp111
I0
s(g9
g16
g10
g28
g5
g13
g14
tp112
I0
s(g19
g24
g10
g4
g12
g6
g7
tp113
I0
s(g22
g2
g10
g4
g12
g13
g25
tp114
I0
s(g1
g24
g10
g4
g5
g6
g17
tp115
F0.02625
s(g19
g2
g3
g11
g29
g6
g7
tp116
I0
s(g1
g2
g3
g4
g5
g13
g7
tp117
I0
s(g1
g2
g3
g4
g29
g6
g42
tp118
F0.0945
s(g22
g2
g3
g11
g12
g13
g17
tp119
I0
s(g1
g16
g10
g11
g12
g13
g25
tp120
I0
s(g1
g2
g3
g11
g12
g13
g42
tp121
I0
s(g1
g2
g10
g11
g29
g13
g17
tp122
F0.00625
s(g22
g16
g3
g28
g12
g6
g14
tp123
I0
s(g19
g2
g3
g4
g29
g6
g14
tp124
I0
s(g1
g16
g10
g28
g12
g6
g7
tp125
I0
s(g9
g24
g10
g28
g5
g13
g25
tp126
I0
s(g19
g2
g3
g4
g12
g6
g17
tp127
I0
s(g9
g16
g10
g28
g12
g13
g14
tp128
I0
s(g1
g16
g3
g11
g29
g6
g42
tp129
I0
s(g9
g24
g3
g11
g29
g6
g17
tp130
I0
s(g19
g2
g3
g28
g5
g13
g42
tp131
I0
s(g19
g2
g3
g11
g12
g13
g14
tp132
F0.0015
s(g1
g24
g3
g28
g5
g6
g17
tp133
I0
s(g1
g16
g3
g4
g29
g13
g14
tp134
I0
s(g9
g2
g3
g28
g29
g13
g42
tp135
I0
s(g9
g24
g10
g11
g29
g13
g25
tp136
F0.001875
s(g9
g2
g10
g28
g5
g6
g42
tp137
I0
s(g19
g2
g3
g28
g29
g6
g14
tp138
I0
s(g1
g16
g3
g28
g29
g6
g14
tp139
I0
s(g22
g24
g3
g11
g12
g13
g42
tp140
I0
s(g1
g16
g10
g28
g5
g6
g17
tp141
F0.0026249999999999997
s(g22
g24
g3
g4
g29
g6
g14
tp142
I0
s(g9
g16
g10
g28
g29
g13
g17
tp143
F0.0001125
s(g9
g16
g10
g11
g29
g13
g14
tp144
F0.00075
s(g22
g2
g3
g11
g12
g6
g25
tp145
I0
s(g9
g2
g3
g11
g12
g6
g42
tp146
I0
s(g19
g16
g10
g11
g5
g6
g25
tp147
I0
s(g22
g24
g10
g4
g29
g13
g17
tp148
F0.0
s(g19
g2
g10
g28
g12
g13
g17
tp149
F0.000225
s(g19
g16
g3
g11
g5
g6
g14
tp150
F0.0052499999999999995
s(g22
g2
g10
g28
g29
g13
g42
tp151
I0
s(g1
g2
g3
g28
g12
g13
g42
tp152
I0
s(g1
g2
g3
g4
g29
g6
g7
tp153
I0
s(g1
g16
g3
g28
g29
g6
g17
tp154
I0
s(g22
g16
g10
g11
g29
g6
g7
tp155
F0.0
s(g9
g16
g10
g28
g12
g13
g42
tp156
I0
s(g1
g16
g3
g11
g12
g13
g42
tp157
I0
s(g19
g24
g3
g28
g29
g13
g7
tp158
I0
s(g22
g24
g3
g28
g5
g13
g17
tp159
I0
s(g22
g16
g3
g4
g29
g13
g7
tp160
I0
s(g1
g24
g3
g4
g5
g13
g25
tp161
I0
s(g1
g2
g10
g11
g5
g6
g17
tp162
F0.0875
s(g1
g2
g10
g28
g29
g13
g42
tp163
I0
s(g22
g2
g10
g11
g5
g6
g25
tp164
I0
s(g19
g2
g10
g4
g5
g13
g25
tp165
I0
s(g19
g2
g3
g28
g12
g13
g14
tp166
I0
s(g19
g16
g3
g4
g12
g6
g7
tp167
I0
s(g19
g2
g3
g4
g12
g13
g14
tp168
I0
s(g9
g16
g3
g28
g29
g13
g42
tp169
I0
s(g19
g24
g10
g4
g5
g13
g7
tp170
I0
s(g9
g16
g3
g11
g5
g13
g25
tp171
I0
s(g9
g16
g10
g11
g5
g6
g7
tp172
F0.0052499999999999995
s(g22
g16
g10
g4
g12
g13
g42
tp173
F0.0
s(g9
g16
g3
g11
g29
g6
g14
tp174
F0.010499999999999999
s(g19
g24
g3
g4
g29
g13
g7
tp175
I0
s(g19
g16
g3
g4
g5
g13
g7
tp176
I0
s(g22
g2
g10
g4
g12
g6
g42
tp177
F0.0
s(g1
g16
g10
g4
g12
g6
g42
tp178
F0.00378
s(g1
g2
g10
g4
g5
g13
g14
tp179
I0
s(g1
g16
g10
g28
g5
g13
g7
tp180
I0
s(g22
g24
g3
g11
g5
g6
g25
tp181
I0
s(g22
g24
g3
g4
g29
g13
g14
tp182
I0
s(g9
g16
g3
g11
g12
g6
g7
tp183
I0
s(g1
g2
g3
g11
g5
g13
g25
tp184
I0
s(g1
g24
g3
g11
g5
g13
g25
tp185
I0
s(g19
g2
g10
g4
g12
g6
g17
tp186
F0.006299999999999999
s(g1
g16
g3
g28
g5
g13
g17
tp187
I0
s(g9
g16
g3
g4
g29
g13
g7
tp188
I0
s(g9
g24
g3
g11
g29
g13
g17
tp189
I0
s(g22
g24
g3
g11
g29
g13
g25
tp190
F0.0
s(g19
g24
g3
g4
g5
g6
g14
tp191
I0
s(g9
g2
g10
g4
g5
g6
g42
tp192
F0.0567
s(g1
g16
g3
g4
g12
g6
g14
tp193
I0
s(g22
g16
g3
g4
g5
g13
g25
tp194
I0
s(g9
g16
g10
g4
g29
g13
g42
tp195
F0.000405
s(g1
g16
g10
g11
g5
g13
g42
tp196
I0
s(g1
g16
g3
g11
g29
g6
g14
tp197
F0.017499999999999998
s(g1
g16
g3
g4
g5
g13
g7
tp198
I0
s(g19
g24
g10
g11
g5
g13
g7
tp199
F0.0009375
s(g1
g2
g10
g11
g12
g6
g14
tp200
F0.06999999999999999
s(g19
g2
g10
g4
g12
g6
g42
tp201
F0.01134
s(g1
g2
g3
g28
g12
g6
g42
tp202
I0
s(g22
g24
g10
g28
g5
g6
g25
tp203
I0
s(g22
g24
g3
g28
g12
g13
g42
tp204
I0
s(g19
g24
g10
g4
g12
g13
g42
tp205
F0.000405
s(g9
g2
g10
g4
g12
g6
g25
tp206
I0
s(g9
g24
g3
g28
g29
g13
g25
tp207
F0.0005625
s(g1
g16
g3
g11
g5
g13
g14
tp208
F0.0012500000000000002
s(g1
g16
g3
g4
g5
g13
g25
tp209
I0
s(g1
g24
g10
g28
g12
g13
g25
tp210
I0
s(g19
g2
g10
g28
g5
g6
g14
tp211
I0
s(g22
g2
g10
g28
g5
g6
g7
tp212
I0
s(g1
g16
g3
g11
g29
g13
g42
tp213
I0
s(g22
g16
g10
g4
g29
g6
g7
tp214
I0
s(g1
g16
g3
g28
g12
g6
g17
tp215
I0
s(g22
g24
g3
g11
g12
g6
g7
tp216
I0
s(g1
g24
g10
g11
g29
g6
g42
tp217
I0
s(g9
g16
g3
g28
g29
g6
g17
tp218
I0
s(g9
g24
g10
g28
g12
g13
g17
tp219
F0.000225
s(g22
g16
g10
g11
g5
g13
g42
tp220
I0
s(g19
g24
g10
g4
g12
g6
g25
tp221
I0
s(g19
g24
g3
g28
g12
g6
g42
tp222
I0
s(g1
g24
g3
g28
g29
g6
g25
tp223
F0.013125
s(g1
g16
g10
g4
g12
g6
g7
tp224
I0
s(g22
g24
g10
g4
g5
g13
g7
tp225
I0
s(g19
g2
g3
g11
g29
g6
g25
tp226
F0.02625
s(g19
g16
g3
g4
g5
g13
g42
tp227
F0.0002025
s(g9
g24
g3
g28
g29
g6
g7
tp228
I0
s(g22
g24
g10
g28
g29
g6
g42
tp229
I0
s(g9
g24
g10
g28
g5
g13
g7
tp230
I0
s(g9
g2
g10
g11
g29
g13
g17
tp231
F0.00375
s(g9
g2
g3
g11
g29
g6
g7
tp232
I0
s(g19
g2
g3
g11
g12
g13
g42
tp233
I0
s(g19
g2
g3
g28
g5
g6
g17
tp234
I0
s(g22
g16
g10
g28
g5
g6
g17
tp235
F0.0
s(g1
g24
g3
g28
g29
g13
g14
tp236
I0
s(g1
g2
g3
g28
g12
g13
g25
tp237
I0
s(g19
g24
g10
g4
g29
g13
g7
tp238
I0
s(g22
g2
g3
g4
g12
g13
g17
tp239
I0
s(g9
g16
g10
g28
g12
g6
g42
tp240
I0
s(g22
g2
g3
g4
g29
g6
g7
tp241
I0
s(g9
g2
g10
g11
g29
g6
g7
tp242
F0.0525
s(g9
g24
g3
g28
g29
g6
g42
tp243
I0
s(g22
g24
g10
g11
g29
g13
g7
tp244
F0.0
s(g19
g16
g3
g4
g5
g6
g14
tp245
I0
s(g22
g24
g3
g28
g29
g13
g17
tp246
I0
s(g19
g2
g10
g11
g12
g6
g7
tp247
F0.010499999999999999
s(g22
g16
g10
g4
g5
g6
g14
tp248
I0
s(g19
g24
g10
g28
g29
g13
g25
tp249
F0.00028125
s(g9
g24
g10
g4
g12
g6
g7
tp250
I0
s(g9
g24
g10
g4
g29
g6
g25
tp251
F0.01575
s(g22
g16
g3
g11
g5
g6
g14
tp252
F0.0
s(g1
g2
g10
g11
g29
g6
g25
tp253
F0.0875
s(g9
g24
g10
g28
g12
g6
g14
tp254
I0
s(g9
g16
g3
g28
g12
g13
g17
tp255
I0
s(g22
g16
g3
g11
g29
g6
g7
tp256
I0
s(g19
g2
g3
g11
g29
g13
g25
tp257
F0.001875
s(g22
g16
g10
g28
g12
g6
g42
tp258
I0
s(g19
g24
g3
g11
g5
g6
g42
tp259
I0
s(g1
g2
g10
g4
g12
g13
g7
tp260
I0
s(g19
g24
g10
g11
g12
g13
g14
tp261
F0.00075
s(g9
g2
g10
g28
g12
g13
g14
tp262
I0
s(g9
g16
g3
g4
g12
g6
g14
tp263
I0
s(g9
g2
g10
g4
g5
g13
g42
tp264
F0.00405
s(g22
g2
g10
g28
g12
g13
g42
tp265
I0
s(g1
g2
g3
g28
g29
g6
g14
tp266
I0
s(g19
g24
g3
g4
g5
g6
g42
tp267
F0.014175
s(g1
g24
g10
g4
g29
g6
g14
tp268
I0
s(g9
g2
g10
g4
g12
g6
g7
tp269
I0
s(g1
g2
g10
g28
g12
g6
g25
tp270
I0
s(g9
g16
g3
g4
g29
g6
g7
tp271
I0
s(g22
g24
g10
g4
g29
g13
g14
tp272
I0
s(g19
g2
g10
g28
g5
g13
g42
tp273
I0
s(g22
g24
g10
g11
g29
g6
g7
tp274
F0.0
s(g9
g2
g3
g28
g29
g13
g14
tp275
I0
s(g9
g16
g3
g4
g29
g6
g25
tp276
F0.0031499999999999996
s(g19
g24
g3
g28
g12
g13
g42
tp277
I0
s(g1
g16
g3
g4
g29
g6
g25
tp278
F0.0052499999999999995
s(g9
g24
g3
g4
g29
g13
g14
tp279
I0
s(g1
g16
g3
g4
g5
g6
g7
tp280
I0
s(g1
g2
g3
g28
g29
g13
g17
tp281
I0
s(g9
g16
g3
g28
g5
g13
g7
tp282
I0
s(g9
g2
g10
g28
g12
g6
g25
tp283
I0
s(g22
g16
g3
g11
g12
g13
g7
tp284
I0
s(g19
g2
g3
g4
g29
g13
g42
tp285
F0.002025
s(g19
g24
g3
g11
g12
g13
g17
tp286
I0
s(g9
g16
g10
g4
g29
g6
g42
tp287
F0.00567
s(g22
g2
g3
g11
g5
g13
g17
tp288
I0
s(g1
g16
g10
g28
g12
g13
g17
tp289
F7.500000000000001e-05
s(g22
g24
g3
g28
g12
g13
g17
tp290
I0
s(g9
g24
g10
g4
g29
g13
g42
tp291
F0.002025
s(g9
g16
g3
g4
g12
g6
g42
tp292
F0.0022679999999999996
s(g1
g2
g3
g28
g12
g6
g17
tp293
I0
s(g19
g16
g3
g28
g5
g6
g7
tp294
I0
s(g22
g24
g10
g28
g5
g13
g14
tp295
I0
s(g22
g16
g10
g11
g12
g13
g42
tp296
I0
s(g19
g2
g10
g11
g29
g6
g17
tp297
F0.02625
s(g22
g24
g10
g11
g12
g6
g17
tp298
F0.0
s(g19
g24
g10
g28
g29
g13
g7
tp299
I0
s(g22
g24
g10
g11
g5
g6
g14
tp300
F0.0
s(g1
g2
g3
g11
g12
g6
g7
tp301
I0
s(g9
g16
g3
g4
g5
g13
g7
tp302
I0
s(g9
g24
g3
g11
g12
g13
g25
tp303
I0
s(g9
g2
g3
g28
g5
g13
g25
tp304
I0
s(g1
g2
g10
g4
g29
g13
g25
tp305
F0.00375
s(g22
g16
g3
g4
g12
g6
g14
tp306
I0
s(g9
g16
g10
g28
g29
g6
g14
tp307
I0
s(g19
g2
g10
g4
g5
g6
g7
tp308
I0
s(g19
g24
g10
g28
g29
g6
g25
tp309
F0.0039375
s(g9
g16
g10
g4
g5
g13
g14
tp310
I0
s(g19
g24
g10
g11
g12
g6
g14
tp311
F0.010499999999999999
s(g22
g24
g3
g28
g5
g13
g42
tp312
I0
s(g19
g2
g3
g4
g29
g13
g14
tp313
I0
s(g1
g24
g3
g4
g5
g6
g7
tp314
I0
s(g19
g24
g3
g4
g29
g13
g17
tp315
I0
s(g19
g24
g10
g11
g29
g6
g42
tp316
I0
s(g1
g2
g3
g28
g12
g6
g25
tp317
I0
s(g1
g2
g3
g28
g5
g13
g17
tp318
I0
s(g19
g2
g10
g28
g12
g6
g7
tp319
I0
s(g22
g24
g3
g4
g29
g6
g42
tp320
F0.0
s(g9
g2
g10
g11
g12
g13
g17
tp321
F0.0015
s(g19
g16
g3
g28
g29
g6
g17
tp322
I0
s(g1
g24
g3
g4
g29
g13
g7
tp323
I0
s(g19
g16
g3
g28
g29
g13
g17
tp324
I0
s(g19
g16
g10
g4
g12
g6
g14
tp325
I0
s(g19
g16
g10
g4
g12
g13
g42
tp326
F8.1e-05
s(g19
g16
g10
g28
g29
g6
g7
tp327
I0
s(g9
g24
g10
g11
g5
g6
g25
tp328
I0
s(g22
g24
g3
g11
g12
g6
g25
tp329
I0
s(g1
g24
g3
g28
g29
g6
g7
tp330
I0
s(g22
g16
g3
g28
g29
g13
g25
tp331
F0.0
s(g9
g16
g10
g28
g5
g13
g25
tp332
I0
s(g1
g24
g3
g28
g12
g6
g7
tp333
I0
s(g19
g16
g3
g28
g29
g13
g7
tp334
I0
s(g1
g2
g3
g4
g29
g13
g42
tp335
F0.00675
s(g9
g24
g10
g28
g12
g6
g17
tp336
F0.0031499999999999996
s(g19
g16
g3
g4
g12
g13
g25
tp337
I0
s(g9
g2
g3
g11
g12
g13
g25
tp338
I0
s(g22
g24
g3
g11
g5
g13
g17
tp339
I0
s(g19
g24
g3
g11
g29
g6
g17
tp340
I0
s(g19
g16
g10
g4
g29
g13
g7
tp341
I0
s(g9
g2
g3
g11
g5
g13
g42
tp342
I0
s(g1
g24
g3
g28
g5
g13
g17
tp343
I0
s(g9
g16
g10
g4
g5
g6
g14
tp344
I0
s(g19
g2
g10
g4
g12
g6
g14
tp345
I0
s(g1
g2
g10
g4
g12
g6
g25
tp346
I0
s(g19
g24
g10
g4
g29
g6
g17
tp347
F0.007875
s(g19
g2
g3
g28
g5
g13
g7
tp348
I0
s(g9
g16
g10
g4
g12
g13
g25
tp349
I0
s(g9
g24
g3
g4
g12
g13
g42
tp350
F0.00081
s(g9
g2
g3
g4
g5
g6
g14
tp351
I0
s(g22
g24
g10
g28
g29
g6
g7
tp352
I0
s(g19
g2
g10
g4
g29
g6
g7
tp353
I0
s(g19
g2
g3
g28
g12
g6
g14
tp354
I0
s(g19
g24
g3
g4
g5
g13
g42
tp355
F0.0010125
s(g1
g2
g3
g11
g29
g13
g17
tp356
I0
s(g22
g2
g3
g4
g5
g13
g42
tp357
F0.0
s(g9
g2
g3
g4
g12
g13
g25
tp358
I0
s(g1
g24
g10
g28
g5
g6
g7
tp359
I0
s(g9
g2
g10
g28
g29
g6
g14
tp360
I0
s(g22
g2
g3
g4
g29
g6
g42
tp361
F0.0
s(g19
g24
g10
g11
g29
g6
g7
tp362
F0.013125
s(g22
g2
g10
g4
g12
g13
g42
tp363
F0.0
s(g9
g16
g10
g4
g12
g6
g7
tp364
I0
s(g19
g24
g10
g11
g5
g6
g14
tp365
F0.02625
s(g1
g24
g10
g11
g29
g13
g7
tp366
F0.003125
s(g22
g16
g3
g28
g5
g13
g14
tp367
I0
s(g22
g2
g10
g11
g5
g6
g7
tp368
F0.0
s(g9
g16
g10
g4
g12
g6
g25
tp369
I0
s(g22
g24
g3
g4
g12
g13
g14
tp370
I0
s(g9
g24
g10
g28
g5
g13
g42
tp371
I0
s(g19
g24
g10
g4
g5
g13
g25
tp372
I0
s(g22
g16
g3
g11
g12
g13
g17
tp373
I0
s(g22
g2
g10
g11
g12
g13
g42
tp374
I0
s(g22
g16
g3
g4
g12
g6
g42
tp375
F0.0
s(g22
g2
g3
g28
g29
g6
g7
tp376
I0
s(g9
g16
g10
g28
g5
g6
g17
tp377
F0.0015749999999999998
s(g19
g16
g10
g4
g5
g13
g7
tp378
I0
s(g22
g16
g10
g28
g29
g6
g7
tp379
I0
s(g9
g2
g10
g4
g12
g13
g7
tp380
I0
s(g22
g16
g3
g28
g5
g6
g17
tp381
I0
s(g1
g24
g10
g4
g5
g13
g42
tp382
F0.003375
s(g19
g2
g10
g4
g29
g6
g42
tp383
F0.02835
s(g1
g24
g10
g11
g12
g6
g17
tp384
F0.017499999999999998
s(g9
g24
g3
g28
g12
g6
g7
tp385
I0
s(g1
g16
g10
g4
g12
g13
g42
tp386
F0.00027000000000000006
s(g22
g24
g3
g11
g12
g13
g25
tp387
I0
s(g19
g24
g10
g28
g12
g6
g17
tp388
F0.0015749999999999998
s(g1
g16
g10
g11
g12
g13
g42
tp389
I0
s(g22
g24
g10
g11
g12
g13
g14
tp390
F0.0
s(g19
g16
g10
g4
g29
g13
g25
tp391
F0.0001125
s(g22
g24
g10
g11
g5
g6
g25
tp392
I0
s(g1
g2
g10
g4
g5
g13
g17
tp393
F0.00375
s(g9
g24
g3
g28
g5
g6
g17
tp394
I0
s(g19
g24
g3
g28
g29
g6
g17
tp395
I0
s(g19
g2
g3
g28
g5
g13
g25
tp396
I0
s(g9
g24
g10
g28
g29
g13
g14
tp397
I0
s(g19
g24
g10
g4
g5
g6
g17
tp398
F0.007875
s(g1
g2
g3
g4
g12
g6
g14
tp399
I0
s(g22
g16
g3
g4
g29
g6
g14
tp400
I0
s(g9
g24
g10
g11
g29
g13
g7
tp401
F0.001875
s(g9
g16
g10
g4
g29
g13
g7
tp402
I0
s(g9
g2
g10
g28
g5
g6
g14
tp403
I0
s(g9
g16
g10
g28
g29
g13
g7
tp404
I0
s(g22
g16
g10
g4
g12
g6
g17
tp405
F0.0
s(g9
g24
g3
g4
g5
g6
g7
tp406
I0
s(g1
g24
g3
g11
g29
g6
g17
tp407
I0
s(g19
g16
g10
g11
g29
g6
g17
tp408
F0.0026249999999999997
s(g9
g16
g3
g28
g29
g13
g25
tp409
F0.0001125
s(g9
g2
g10
g4
g29
g6
g7
tp410
I0
s(g22
g16
g3
g4
g5
g13
g14
tp411
I0
s(g19
g24
g10
g11
g29
g13
g25
tp412
F0.0009375
s(g1
g16
g10
g11
g5
g13
g17
tp413
F0.0006250000000000001
s(g9
g2
g3
g28
g29
g6
g7
tp414
I0
s(g1
g24
g3
g4
g5
g6
g25
tp415
I0
s(g22
g24
g10
g28
g29
g13
g42
tp416
I0
s(g9
g24
g3
g11
g12
g6
g7
tp417
I0
s(g19
g24
g3
g4
g29
g6
g17
tp418
I0
s(g22
g2
g3
g28
g29
g6
g42
tp419
I0
s(g19
g16
g3
g28
g12
g13
g42
tp420
I0
s(g9
g24
g10
g11
g12
g13
g25
tp421
I0
s(g22
g24
g3
g4
g5
g6
g25
tp422
I0
s(g22
g16
g10
g4
g29
g13
g14
tp423
I0
s(g22
g16
g3
g28
g5
g6
g14
tp424
I0
s(g19
g2
g10
g4
g12
g13
g14
tp425
I0
s(g19
g16
g3
g28
g12
g6
g14
tp426
I0
s(g1
g16
g10
g28
g12
g6
g25
tp427
I0
s(g22
g2
g3
g4
g5
g13
g14
tp428
I0
s(g22
g16
g3
g28
g5
g6
g25
tp429
I0
s(g22
g2
g10
g11
g5
g6
g42
tp430
I0
s(g19
g24
g3
g4
g12
g6
g42
tp431
F0.00567
s(g1
g24
g3
g11
g12
g6
g14
tp432
F0.034999999999999996
s(g22
g24
g10
g28
g5
g13
g17
tp433
F0.0
s(g19
g2
g10
g4
g29
g13
g42
tp434
F0.002025
s(g1
g16
g10
g11
g29
g13
g14
tp435
F0.0012500000000000002
s(g19
g24
g3
g4
g12
g13
g42
tp436
F0.000405
s(g22
g16
g3
g4
g5
g13
g42
tp437
F0.0
s(g22
g2
g3
g4
g12
g6
g17
tp438
I0
s(g22
g16
g3
g4
g5
g6
g14
tp439
I0
s(g1
g16
g3
g11
g12
g13
g7
tp440
I0
s(g19
g2
g10
g28
g29
g13
g7
tp441
I0
s(g19
g24
g10
g28
g5
g13
g17
tp442
F0.00028125
s(g22
g16
g3
g4
g29
g13
g42
tp443
F0.0
s(g19
g2
g3
g11
g12
g6
g14
tp444
F0.020999999999999998
s(g9
g16
g3
g11
g29
g13
g42
tp445
I0
s(g9
g2
g10
g11
g12
g6
g25
tp446
I0
s(g19
g2
g3
g28
g5
g6
g7
tp447
I0
s(g19
g24
g3
g28
g12
g6
g14
tp448
I0
s(g19
g2
g10
g11
g12
g13
g14
tp449
F0.0015
s(g22
g2
g10
g11
g5
g6
g17
tp450
F0.0
s(g22
g24
g10
g11
g5
g13
g25
tp451
I0
s(g22
g24
g10
g11
g29
g13
g25
tp452
F0.0
s(g1
g24
g3
g11
g29
g6
g14
tp453
F0.0875
s(g22
g24
g3
g28
g12
g13
g7
tp454
I0
s(g22
g16
g10
g4
g12
g6
g7
tp455
I0
s(g9
g16
g10
g11
g29
g13
g25
tp456
F0.000375
s(g22
g2
g3
g28
g12
g6
g14
tp457
I0
s(g1
g16
g10
g4
g29
g13
g17
tp458
F0.000375
s(g22
g2
g3
g11
g29
g13
g7
tp459
I0
s(g1
g24
g3
g28
g29
g6
g42
tp460
I0
s(g22
g2
g10
g28
g12
g13
g7
tp461
I0
s(g9
g2
g3
g11
g5
g13
g14
tp462
F0.0075
s(g19
g2
g3
g11
g5
g6
g17
tp463
I0
s(g1
g24
g10
g11
g12
g6
g42
tp464
I0
s(g9
g2
g3
g4
g29
g6
g14
tp465
I0
s(g9
g24
g3
g28
g5
g13
g17
tp466
I0
s(g22
g2
g10
g11
g29
g13
g7
tp467
F0.0
s(g22
g2
g3
g11
g12
g13
g7
tp468
I0
s(g1
g24
g3
g4
g29
g6
g17
tp469
I0
s(g9
g16
g3
g4
g5
g6
g7
tp470
I0
s(g22
g24
g3
g11
g5
g13
g14
tp471
F0.0
s(g1
g16
g10
g11
g12
g13
g17
tp472
F0.00025000000000000006
s(g19
g2
g10
g28
g29
g13
g42
tp473
I0
s(g19
g24
g10
g28
g12
g13
g17
tp474
F0.0001125
s(g22
g24
g10
g11
g12
g13
g17
tp475
F0.0
s(g19
g24
g3
g11
g12
g6
g25
tp476
I0
s(g1
g16
g10
g11
g29
g6
g17
tp477
F0.008749999999999999
s(g9
g16
g10
g11
g5
g6
g25
tp478
I0
s(g1
g24
g10
g11
g29
g13
g17
tp479
F0.003125
s(g22
g16
g10
g11
g5
g13
g25
tp480
I0
s(g9
g16
g3
g4
g29
g13
g17
tp481
I0
s(g1
g16
g10
g4
g29
g13
g42
tp482
F0.000675
s(g22
g16
g3
g11
g5
g13
g25
tp483
I0
s(g9
g24
g10
g4
g29
g6
g42
tp484
F0.02835
s(g1
g24
g10
g28
g5
g6
g17
tp485
F0.013125
s(g1
g24
g10
g28
g5
g13
g7
tp486
I0
s(g1
g2
g10
g28
g12
g6
g7
tp487
I0
s(g9
g16
g3
g11
g29
g6
g42
tp488
I0
s(g19
g24
g10
g11
g12
g6
g25
tp489
I0
s(g19
g24
g3
g4
g12
g6
g14
tp490
I0
s(g9
g24
g10
g11
g5
g13
g7
tp491
F0.001875
s(g19
g16
g3
g11
g12
g13
g42
tp492
I0
s(g19
g24
g3
g11
g5
g6
g14
tp493
F0.02625
s(g1
g2
g10
g28
g12
g6
g42
tp494
I0
s(g9
g2
g3
g11
g29
g13
g17
tp495
I0
s(g19
g16
g10
g28
g12
g13
g7
tp496
I0
s(g1
g16
g3
g4
g29
g13
g17
tp497
I0
s(g1
g24
g3
g28
g5
g13
g7
tp498
I0
s(g22
g2
g10
g28
g5
g6
g25
tp499
I0
s(g19
g16
g3
g4
g12
g6
g17
tp500
I0
s(g9
g16
g3
g28
g12
g6
g17
tp501
I0
s(g1
g2
g10
g11
g29
g6
g42
tp502
I0
s(g9
g2
g10
g4
g5
g6
g25
tp503
I0
s(g19
g16
g10
g28
g29
g13
g17
tp504
F5.625e-05
s(g22
g24
g10
g28
g5
g6
g14
tp505
I0
s(g1
g2
g10
g4
g12
g13
g17
tp506
F0.0015
s(g1
g24
g10
g11
g5
g13
g7
tp507
F0.003125
s(g9
g2
g3
g28
g12
g6
g14
tp508
I0
s(g19
g2
g3
g4
g29
g13
g25
tp509
F0.001125
s(g9
g16
g3
g28
g12
g6
g7
tp510
I0
s(g1
g16
g3
g28
g5
g6
g14
tp511
I0
s(g19
g24
g10
g4
g29
g13
g25
tp512
F0.0005625
s(g1
g16
g10
g28
g12
g13
g14
tp513
I0
s(g1
g2
g3
g11
g29
g13
g14
tp514
F0.0125
s(g9
g16
g3
g11
g12
g6
g17
tp515
I0
s(g22
g2
g3
g11
g5
g13
g25
tp516
I0
s(g19
g16
g3
g11
g5
g13
g7
tp517
I0
s(g1
g2
g10
g28
g5
g6
g17
tp518
F0.02625
s(g1
g24
g10
g4
g12
g6
g25
tp519
I0
s(g19
g16
g10
g11
g5
g6
g14
tp520
F0.0052499999999999995
s(g9
g2
g3
g11
g12
g13
g7
tp521
I0
s(g9
g24
g3
g11
g5
g6
g7
tp522
I0
s(g1
g2
g3
g4
g12
g6
g42
tp523
F0.0378
s(g9
g24
g3
g11
g29
g6
g25
tp524
F0.02625
s(g22
g24
g3
g11
g5
g6
g14
tp525
F0.0
s(g19
g16
g10
g28
g5
g13
g7
tp526
I0
s(g22
g16
g10
g4
g12
g13
g7
tp527
I0
s(g22
g2
g3
g28
g12
g13
g14
tp528
I0
s(g9
g2
g3
g28
g5
g13
g42
tp529
I0
s(g9
g2
g3
g28
g12
g13
g17
tp530
I0
s(g9
g24
g3
g4
g5
g13
g14
tp531
I0
s(g22
g24
g3
g11
g29
g6
g25
tp532
F0.0
s(g22
g16
g3
g11
g5
g13
g42
tp533
I0
s(g1
g2
g10
g28
g12
g6
g17
tp534
F0.010499999999999999
s(g1
g16
g10
g11
g5
g6
g42
tp535
I0
s(g22
g16
g3
g28
g29
g6
g14
tp536
I0
s(g9
g16
g10
g11
g12
g13
g42
tp537
I0
s(g22
g2
g10
g28
g5
g13
g25
tp538
I0
s(g19
g24
g3
g11
g29
g6
g14
tp539
F0.02625
s(g22
g16
g10
g11
g29
g6
g14
tp540
F0.0
s(g1
g24
g3
g11
g5
g13
g7
tp541
I0
s(g22
g2
g10
g4
g29
g13
g25
tp542
F0.0
s(g1
g16
g3
g11
g5
g13
g17
tp543
I0
s(g22
g16
g3
g4
g12
g13
g25
tp544
I0
s(g1
g24
g10
g28
g5
g13
g17
tp545
F0.0009375
s(g22
g2
g3
g4
g5
g6
g17
tp546
I0
s(g1
g16
g3
g4
g29
g6
g14
tp547
I0
s(g9
g24
g10
g11
g5
g13
g25
tp548
I0
s(g19
g2
g3
g4
g5
g13
g17
tp549
I0
s(g22
g16
g3
g4
g29
g13
g17
tp550
I0
s(g22
g24
g3
g4
g29
g6
g25
tp551
F0.0
s(g19
g16
g3
g28
g12
g6
g42
tp552
I0
s(g22
g24
g10
g4
g12
g13
g42
tp553
F0.0
s(g9
g16
g3
g11
g5
g13
g7
tp554
I0
s(g19
g16
g10
g28
g5
g6
g25
tp555
I0
s(g1
g24
g10
g11
g29
g13
g42
tp556
I0
s(g19
g24
g3
g4
g12
g13
g14
tp557
I0
s(g19
g16
g10
g4
g12
g13
g25
tp558
I0
s(g9
g2
g3
g28
g29
g6
g25
tp559
F0.01575
s(g22
g24
g10
g4
g5
g13
g17
tp560
F0.0
s(g1
g16
g3
g4
g12
g6
g17
tp561
I0
s(g22
g16
g10
g28
g5
g13
g7
tp562
I0
s(g19
g2
g3
g4
g29
g6
g17
tp563
I0
s(g19
g24
g3
g4
g5
g13
g7
tp564
I0
s(g1
g2
g10
g28
g5
g6
g7
tp565
I0
s(g9
g24
g3
g4
g12
g6
g7
tp566
I0
s(g19
g24
g3
g28
g29
g6
g14
tp567
I0
s(g19
g16
g3
g28
g12
g13
g25
tp568
I0
s(g22
g2
g10
g28
g12
g6
g7
tp569
I0
s(g1
g24
g10
g4
g29
g6
g25
tp570
F0.02625
s(g9
g16
g10
g4
g12
g13
g42
tp571
F0.000162
s(g19
g16
g10
g28
g12
g13
g14
tp572
I0
s(g19
g2
g3
g28
g29
g13
g17
tp573
I0
s(g9
g2
g3
g11
g5
g6
g42
tp574
I0
s(g9
g2
g3
g11
g29
g13
g14
tp575
F0.0075
s(g22
g24
g3
g4
g12
g13
g25
tp576
I0
s(g22
g24
g10
g11
g29
g6
g25
tp577
F0.0
s(g9
g2
g10
g28
g29
g13
g14
tp578
I0
s(g9
g24
g3
g28
g12
g13
g42
tp579
I0
s(g22
g2
g10
g28
g12
g6
g25
tp580
I0
s(g22
g24
g10
g28
g12
g13
g25
tp581
I0
s(g1
g24
g3
g4
g29
g13
g17
tp582
I0
s(g22
g24
g3
g28
g5
g6
g25
tp583
I0
s(g22
g24
g3
g4
g12
g13
g42
tp584
F0.0
s(g9
g16
g3
g11
g12
g13
g17
tp585
I0
s(g22
g2
g3
g11
g5
g6
g7
tp586
I0
s(g22
g16
g3
g28
g12
g6
g25
tp587
I0
s(g1
g24
g3
g4
g12
g6
g17
tp588
I0
s(g22
g16
g10
g28
g5
g6
g14
tp589
I0
s(g22
g16
g3
g11
g5
g6
g42
tp590
I0
s(g22
g2
g10
g11
g12
g6
g7
tp591
F0.0
s(g19
g16
g3
g11
g5
g6
g17
tp592
I0
s(g1
g2
g3
g4
g5
g13
g17
tp593
I0
s(g1
g2
g3
g11
g5
g13
g14
tp594
F0.0125
s(g22
g24
g3
g11
g5
g6
g42
tp595
I0
s(g9
g2
g3
g4
g29
g13
g14
tp596
I0
s(g9
g24
g10
g28
g29
g13
g17
tp597
F0.0005625
s(g9
g16
g10
g11
g29
g6
g7
tp598
F0.0052499999999999995
s(g22
g24
g10
g28
g29
g6
g17
tp599
F0.0
s(g22
g16
g10
g4
g5
g13
g14
tp600
I0
s(g22
g24
g3
g11
g29
g13
g17
tp601
I0
s(g9
g24
g10
g11
g12
g6
g25
tp602
I0
s(g9
g2
g10
g28
g12
g13
g7
tp603
I0
s(g1
g2
g3
g11
g5
g6
g14
tp604
F0.175
s(g1
g24
g10
g11
g12
g13
g17
tp605
F0.0012500000000000002
s(g9
g24
g3
g4
g12
g13
g25
tp606
I0
s(g1
g2
g3
g4
g12
g13
g7
tp607
I0
s(g22
g2
g3
g28
g5
g6
g17
tp608
I0
s(g1
g2
g10
g28
g29
g13
g7
tp609
I0
s(g19
g16
g3
g28
g5
g6
g17
tp610
I0
s(g1
g2
g3
g4
g5
g13
g42
tp611
F0.00675
s(g9
g16
g3
g11
g12
g13
g14
tp612
F0.00030000000000000003
s(g22
g16
g10
g11
g12
g6
g17
tp613
F0.0
s(g19
g16
g3
g4
g29
g6
g14
tp614
I0
s(g9
g24
g3
g4
g29
g13
g25
tp615
F0.001125
s(g22
g24
g10
g4
g29
g6
g25
tp616
F0.0
s(g1
g24
g10
g28
g29
g6
g7
tp617
I0
s(g1
g16
g3
g28
g5
g13
g14
tp618
I0
s(g22
g2
g3
g28
g5
g6
g7
tp619
I0
s(g19
g16
g10
g28
g5
g6
g7
tp620
I0
s(g9
g2
g3
g11
g29
g6
g17
tp621
I0
s(g9
g2
g3
g4
g12
g13
g7
tp622
I0
s(g9
g2
g10
g28
g12
g13
g17
tp623
F0.00045
s(g9
g2
g10
g11
g5
g13
g14
tp624
F0.0075
s(g9
g24
g3
g11
g12
g6
g25
tp625
I0
s(g22
g2
g10
g4
g12
g13
g14
tp626
I0
s(g19
g2
g3
g28
g12
g13
g25
tp627
I0
s(g1
g24
g3
g4
g12
g13
g7
tp628
I0
s(g22
g16
g10
g11
g12
g6
g7
tp629
F0.0
s(g1
g2
g3
g28
g5
g6
g7
tp630
I0
s(g1
g2
g10
g28
g12
g13
g7
tp631
I0
s(g22
g2
g10
g4
g5
g6
g25
tp632
I0
s(g1
g24
g10
g4
g12
g6
g7
tp633
I0
s(g9
g2
g3
g28
g29
g6
g42
tp634
I0
s(g1
g24
g10
g11
g29
g6
g17
tp635
F0.04375
s(g9
g24
g10
g11
g5
g6
g14
tp636
F0.0525
s(g22
g2
g10
g11
g12
g13
g25
tp637
I0
s(g22
g16
g10
g4
g5
g13
g42
tp638
F0.0
s(g22
g2
g3
g11
g29
g13
g17
tp639
I0
s(g9
g16
g10
g28
g5
g13
g7
tp640
I0
s(g9
g2
g3
g11
g12
g6
g7
tp641
I0
s(g9
g16
g10
g11
g29
g6
g25
tp642
F0.0052499999999999995
s(g19
g16
g3
g28
g5
g6
g42
tp643
I0
s(g9
g16
g10
g11
g12
g13
g17
tp644
F0.00015000000000000001
s(g22
g16
g3
g28
g5
g13
g25
tp645
I0
s(g22
g2
g10
g4
g12
g6
g14
tp646
I0
s(g9
g24
g10
g4
g5
g13
g7
tp647
I0
s(g1
g2
g10
g4
g12
g6
g14
tp648
I0
s(g9
g2
g3
g28
g5
g6
g17
tp649
I0
s(g22
g2
g3
g4
g29
g13
g25
tp650
F0.0
s(g22
g16
g3
g28
g12
g6
g7
tp651
I0
s(g9
g2
g3
g4
g5
g13
g25
tp652
I0
s(g22
g2
g3
g11
g29
g13
g42
tp653
I0
s(g19
g2
g3
g4
g29
g6
g7
tp654
I0
s(g1
g2
g3
g4
g29
g13
g14
tp655
I0
s(g9
g24
g3
g11
g5
g13
g25
tp656
I0
s(g22
g2
g10
g11
g5
g13
g17
tp657
F0.0
s(g9
g16
g3
g4
g12
g13
g17
tp658
I0
s(g9
g24
g3
g4
g5
g6
g25
tp659
I0
s(g22
g16
g10
g28
g29
g13
g42
tp660
I0
s(g19
g16
g10
g28
g12
g6
g14
tp661
I0
s(g9
g24
g3
g4
g5
g13
g17
tp662
I0
s(g19
g2
g3
g28
g29
g6
g42
tp663
I0
s(g1
g24
g10
g11
g5
g6
g25
tp664
I0
s(g1
g16
g3
g11
g5
g6
g17
tp665
I0
s(g19
g16
g10
g11
g5
g13
g42
tp666
I0
s(g19
g2
g3
g11
g5
g13
g42
tp667
I0
s(g1
g16
g10
g28
g12
g6
g42
tp668
I0
s(g1
g2
g10
g11
g5
g13
g25
tp669
I0
s(g9
g2
g3
g11
g5
g6
g17
tp670
I0
s(g9
g2
g10
g28
g5
g13
g17
tp671
F0.001125
s(g19
g2
g3
g11
g12
g13
g17
tp672
I0
s(g19
g2
g10
g4
g29
g13
g25
tp673
F0.001125
s(g19
g2
g3
g4
g12
g13
g25
tp674
I0
s(g1
g16
g10
g4
g12
g13
g14
tp675
I0
s(g22
g2
g10
g11
g29
g13
g17
tp676
F0.0
s(g22
g16
g10
g28
g12
g13
g17
tp677
F0.0
s(g19
g2
g10
g11
g5
g6
g25
tp678
I0
s(g1
g16
g3
g4
g12
g13
g17
tp679
I0
s(g22
g24
g10
g4
g12
g6
g14
tp680
I0
s(g1
g2
g10
g28
g29
g6
g25
tp681
F0.02625
s(g9
g2
g3
g28
g12
g13
g7
tp682
I0
s(g22
g2
g3
g11
g12
g6
g14
tp683
F0.0
s(g19
g2
g10
g11
g5
g13
g25
tp684
I0
s(g22
g24
g10
g28
g29
g13
g14
tp685
I0
s(g1
g24
g10
g4
g29
g13
g7
tp686
I0
s(g19
g2
g10
g4
g29
g13
g7
tp687
I0
s(g1
g24
g10
g4
g12
g13
g14
tp688
I0
s(g9
g2
g10
g11
g5
g6
g14
tp689
F0.105
s(g19
g24
g3
g11
g5
g6
g25
tp690
I0
s(g19
g16
g10
g11
g12
g6
g7
tp691
F0.00105
s(g22
g2
g10
g28
g12
g13
g17
tp692
F0.0
s(g22
g2
g10
g4
g29
g6
g42
tp693
F0.0
s(g19
g16
g3
g11
g5
g6
g42
tp694
I0
s(g9
g24
g3
g11
g5
g6
g42
tp695
I0
s(g22
g24
g3
g28
g12
g6
g14
tp696
I0
s(g22
g16
g10
g11
g29
g13
g17
tp697
F0.0
s(g9
g16
g10
g11
g5
g6
g14
tp698
F0.010499999999999999
s(g22
g16
g10
g11
g12
g13
g7
tp699
F0.0
s(g19
g16
g3
g11
g29
g6
g25
tp700
F0.0026249999999999997
s(g1
g16
g10
g28
g12
g6
g14
tp701
I0
s(g22
g16
g10
g11
g5
g6
g14
tp702
F0.0
s(g1
g2
g10
g11
g5
g13
g7
tp703
F0.00625
s(g19
g16
g10
g11
g29
g13
g17
tp704
F0.0001875
s(g19
g16
g3
g11
g5
g13
g17
tp705
I0
s(g1
g24
g3
g11
g12
g6
g17
tp706
I0
s(g1
g2
g3
g11
g5
g6
g42
tp707
I0
s(g9
g24
g10
g4
g12
g13
g17
tp708
F0.00045
s(g19
g16
g10
g11
g29
g13
g7
tp709
F0.0001875
s(g9
g16
g3
g11
g29
g13
g25
tp710
F0.000375
s(g19
g16
g3
g4
g5
g6
g17
tp711
I0
s(g1
g2
g3
g11
g29
g6
g25
tp712
F0.0875
s(g1
g16
g3
g28
g5
g13
g42
tp713
I0
s(g22
g2
g10
g28
g12
g6
g14
tp714
I0
s(g1
g2
g10
g28
g29
g6
g7
tp715
I0
s(g22
g24
g10
g28
g29
g13
g25
tp716
F0.0
s(g22
g24
g10
g11
g5
g13
g7
tp717
F0.0
s(g22
g24
g3
g28
g12
g6
g42
tp718
I0
s(g22
g24
g10
g11
g5
g13
g42
tp719
I0
s(g1
g24
g10
g11
g5
g13
g25
tp720
I0
s(g1
g24
g3
g4
g29
g6
g14
tp721
I0
s(g1
g16
g10
g4
g5
g13
g25
tp722
I0
s(g19
g24
g3
g11
g12
g6
g42
tp723
I0
s(g19
g16
g3
g4
g5
g6
g42
tp724
F0.002835
s(g19
g24
g10
g4
g12
g13
g14
tp725
I0
s(g22
g24
g3
g28
g12
g6
g7
tp726
I0
s(g19
g2
g3
g4
g5
g6
g25
tp727
I0
s(g19
g24
g10
g11
g5
g6
g17
tp728
F0.013125
s(g1
g2
g3
g11
g12
g13
g17
tp729
I0
s(g22
g2
g10
g4
g5
g6
g7
tp730
I0
s(g9
g24
g3
g4
g29
g6
g7
tp731
I0
s(g1
g2
g10
g28
g12
g13
g25
tp732
I0
s(g22
g16
g3
g4
g29
g6
g17
tp733
I0
s(g19
g16
g3
g4
g12
g13
g14
tp734
I0
s(g9
g24
g3
g11
g5
g6
g17
tp735
I0
s(g1
g24
g3
g11
g12
g13
g17
tp736
I0
s(g19
g24
g10
g28
g29
g6
g14
tp737
I0
s(g22
g24
g10
g28
g29
g6
g25
tp738
F0.0
s(g9
g2
g3
g4
g5
g6
g17
tp739
I0
s(g19
g24
g10
g4
g5
g13
g14
tp740
I0
s(g1
g2
g3
g4
g12
g13
g17
tp741
I0
s(g9
g16
g3
g28
g12
g13
g42
tp742
I0
s(g22
g24
g3
g28
g29
g6
g14
tp743
I0
s(g19
g16
g3
g28
g5
g13
g25
tp744
I0
s(g9
g16
g10
g28
g12
g6
g7
tp745
I0
s(g9
g16
g3
g11
g5
g6
g14
tp746
F0.010499999999999999
s(g1
g2
g10
g4
g5
g6
g7
tp747
I0
s(g1
g16
g10
g28
g29
g6
g14
tp748
I0
s(g19
g24
g10
g28
g12
g13
g7
tp749
I0
s(g9
g16
g10
g4
g29
g13
g17
tp750
F0.000225
s(g19
g24
g3
g11
g29
g13
g7
tp751
I0
s(g19
g2
g10
g28
g12
g13
g7
tp752
I0
s(g9
g2
g10
g4
g29
g13
g7
tp753
I0
s(g1
g16
g10
g4
g29
g13
g7
tp754
I0
s(g19
g24
g3
g4
g5
g6
g25
tp755
I0
s(g22
g2
g3
g4
g5
g6
g7
tp756
I0
s(g22
g24
g10
g11
g12
g13
g7
tp757
F0.0
s(g22
g24
g3
g4
g29
g13
g7
tp758
I0
s(g1
g24
g3
g11
g29
g13
g42
tp759
I0
s(g19
g16
g10
g28
g5
g13
g17
tp760
F5.625e-05
s(g1
g2
g3
g28
g29
g13
g7
tp761
I0
s(g22
g2
g3
g4
g29
g13
g42
tp762
F0.0
s(g1
g2
g3
g4
g5
g6
g14
tp763
I0
s(g1
g24
g3
g11
g5
g6
g17
tp764
I0
s(g22
g24
g3
g4
g12
g6
g25
tp765
I0
s(g1
g16
g10
g4
g5
g13
g7
tp766
I0
s(g9
g16
g10
g11
g12
g13
g7
tp767
F0.00015000000000000001
s(g1
g24
g10
g28
g29
g13
g17
tp768
F0.0009375
s(g9
g24
g3
g11
g12
g13
g14
tp769
F0.0015
s(g19
g16
g10
g28
g5
g13
g42
tp770
I0
s(g19
g24
g3
g11
g29
g6
g42
tp771
I0
s(g1
g2
g3
g4
g12
g6
g25
tp772
I0
s(g1
g24
g10
g11
g12
g6
g7
tp773
F0.017499999999999998
s(g9
g16
g10
g4
g5
g13
g17
tp774
F0.000225
s(g1
g16
g3
g4
g5
g13
g14
tp775
I0
s(g9
g24
g3
g11
g29
g6
g7
tp776
I0
s(g1
g16
g3
g28
g12
g6
g14
tp777
I0
s(g19
g2
g3
g4
g12
g6
g7
tp778
I0
s(g19
g16
g3
g11
g5
g13
g42
tp779
I0
s(g19
g24
g10
g11
g12
g13
g7
tp780
F0.000375
s(g9
g24
g3
g4
g12
g6
g25
tp781
I0
s(g1
g24
g3
g28
g12
g6
g42
tp782
I0
s(g1
g2
g10
g11
g12
g13
g7
tp783
F0.0025000000000000005
s(g22
g2
g10
g28
g29
g13
g17
tp784
F0.0
s(g1
g24
g3
g4
g12
g13
g17
tp785
I0
s(g1
g24
g10
g4
g29
g6
g7
tp786
I0
s(g22
g24
g3
g11
g12
g6
g14
tp787
F0.0
s(g1
g2
g3
g11
g29
g13
g42
tp788
I0
s(g1
g2
g3
g28
g29
g6
g25
tp789
F0.02625
s(g19
g16
g10
g4
g12
g6
g25
tp790
I0
s(g19
g24
g3
g28
g29
g13
g25
tp791
F0.00028125
s(g9
g2
g3
g28
g12
g6
g17
tp792
I0
s(g9
g2
g10
g28
g29
g6
g17
tp793
F0.01575
s(g22
g16
g3
g28
g12
g13
g42
tp794
I0
s(g9
g16
g3
g11
g5
g13
g42
tp795
I0
s(g22
g2
g10
g4
g12
g13
g17
tp796
F0.0
s(g19
g16
g3
g28
g12
g6
g25
tp797
I0
s(g9
g2
g10
g28
g29
g13
g25
tp798
F0.001125
s(g1
g16
g3
g4
g5
g6
g14
tp799
I0
s(g1
g2
g10
g4
g29
g13
g14
tp800
I0
s(g22
g2
g3
g11
g5
g6
g25
tp801
I0
s(g19
g2
g10
g28
g5
g6
g17
tp802
F0.007875
s(g1
g2
g3
g11
g12
g6
g17
tp803
I0
s(g22
g2
g10
g4
g5
g13
g25
tp804
I0
s(g1
g16
g10
g11
g5
g6
g25
tp805
I0
s(g22
g24
g10
g28
g29
g13
g7
tp806
I0
s(g1
g16
g10
g11
g29
g13
g25
tp807
F0.0006250000000000001
s(g22
g2
g10
g11
g29
g6
g14
tp808
F0.0
s(g22
g24
g10
g11
g29
g13
g17
tp809
F0.0
s(g9
g24
g10
g11
g29
g6
g17
tp810
F0.02625
s(g1
g2
g3
g28
g5
g6
g42
tp811
I0
s(g9
g2
g3
g4
g12
g6
g25
tp812
I0
s(g22
g16
g10
g4
g5
g6
g25
tp813
I0
s(g19
g24
g3
g4
g5
g6
g17
tp814
I0
s(g19
g2
g10
g11
g29
g13
g7
tp815
F0.001875
s(g1
g24
g10
g28
g29
g13
g14
tp816
I0
s(g19
g24
g3
g28
g12
g13
g17
tp817
I0
s(g9
g16
g3
g28
g5
g13
g25
tp818
I0
s(g1
g16
g3
g28
g29
g13
g17
tp819
I0
s(g9
g24
g3
g28
g5
g13
g7
tp820
I0
s(g19
g24
g10
g11
g12
g13
g17
tp821
F0.000375
s(g9
g2
g3
g28
g5
g6
g14
tp822
I0
s(g22
g16
g10
g11
g5
g6
g17
tp823
F0.0
s(g1
g2
g3
g28
g12
g13
g14
tp824
I0
s(g22
g16
g3
g11
g29
g6
g14
tp825
F0.0
s(g9
g24
g10
g28
g29
g6
g17
tp826
F0.007875
s(g19
g2
g3
g28
g29
g13
g7
tp827
I0
s(g9
g2
g10
g28
g29
g6
g42
tp828
I0
s(g19
g2
g3
g4
g29
g13
g7
tp829
I0
s(g22
g24
g10
g4
g29
g13
g25
tp830
F0.0
s(g22
g16
g3
g11
g5
g6
g25
tp831
I0
s(g19
g16
g3
g11
g29
g13
g7
tp832
I0
s(g1
g2
g3
g4
g5
g13
g14
tp833
I0
s(g22
g16
g10
g28
g12
g6
g25
tp834
I0
s(g19
g2
g10
g28
g12
g6
g14
tp835
I0
s(g9
g2
g10
g4
g29
g13
g25
tp836
F0.00225
s(g1
g24
g10
g28
g12
g6
g7
tp837
I0
s(g1
g24
g10
g4
g29
g6
g42
tp838
F0.04725
s(g19
g24
g3
g4
g5
g13
g17
tp839
I0
s(g9
g2
g3
g28
g12
g6
g42
tp840
I0
s(g22
g16
g3
g11
g5
g6
g7
tp841
I0
s(g1
g2
g3
g28
g5
g13
g42
tp842
I0
s(g1
g16
g3
g11
g12
g6
g42
tp843
I0
s(g22
g24
g3
g4
g29
g13
g17
tp844
I0
s(g22
g24
g10
g28
g12
g13
g7
tp845
I0
s(g22
g24
g10
g28
g12
g13
g42
tp846
I0
s(g9
g24
g3
g4
g29
g13
g42
tp847
F0.002025
s(g1
g24
g3
g28
g29
g6
g14
tp848
I0
s(g22
g16
g10
g4
g12
g6
g42
tp849
F0.0
s(g9
g16
g10
g4
g5
g6
g42
tp850
F0.00567
s(g22
g16
g3
g4
g5
g6
g7
tp851
I0
s(g1
g16
g10
g11
g5
g13
g14
tp852
F0.0012500000000000002
s(g9
g16
g3
g11
g5
g6
g17
tp853
I0
s(g22
g16
g3
g28
g12
g6
g42
tp854
I0
s(g19
g24
g3
g11
g12
g6
g14
tp855
F0.010499999999999999
s(g22
g24
g3
g11
g12
g13
g17
tp856
I0
s(g19
g2
g10
g11
g29
g13
g17
tp857
F0.001875
s(g1
g2
g10
g11
g12
g13
g14
tp858
F0.005000000000000001
s(g19
g24
g10
g11
g12
g6
g7
tp859
F0.0052499999999999995
s(g19
g16
g10
g4
g12
g13
g7
tp860
I0
s(g1
g2
g3
g28
g12
g6
g14
tp861
I0
s(g1
g2
g10
g11
g12
g6
g25
tp862
I0
s(g22
g24
g3
g4
g29
g6
g7
tp863
I0
s(g9
g24
g10
g4
g12
g6
g42
tp864
F0.01134
s(g9
g16
g3
g4
g12
g13
g14
tp865
I0
s(g19
g16
g10
g28
g12
g13
g42
tp866
I0
s(g9
g16
g3
g4
g5
g13
g14
tp867
I0
s(g9
g16
g10
g11
g12
g6
g25
tp868
I0
s(g19
g2
g10
g4
g29
g6
g17
tp869
F0.01575
s(g9
g24
g10
g28
g5
g13
g17
tp870
F0.0005625
s(g22
g16
g10
g28
g29
g13
g14
tp871
I0
s(g9
g24
g3
g11
g29
g13
g25
tp872
F0.001875
s(g9
g16
g10
g11
g12
g6
g7
tp873
F0.0021
s(g22
g16
g3
g28
g5
g13
g7
tp874
I0
s(g19
g2
g10
g4
g5
g6
g42
tp875
F0.02835
s(g19
g2
g3
g4
g5
g6
g7
tp876
I0
s(g9
g2
g10
g11
g5
g13
g42
tp877
I0
s(g1
g24
g3
g28
g5
g6
g25
tp878
I0
s(g19
g24
g10
g4
g12
g6
g14
tp879
I0
s(g22
g24
g10
g4
g12
g13
g7
tp880
I0
s(g9
g24
g10
g4
g12
g13
g14
tp881
I0
s(g1
g24
g10
g11
g29
g13
g14
tp882
F0.00625
s(g9
g16
g10
g28
g29
g6
g42
tp883
I0
s(g19
g2
g3
g11
g29
g6
g14
tp884
F0.0525
s(g19
g2
g3
g28
g12
g13
g7
tp885
I0
s(g19
g2
g3
g4
g12
g13
g7
tp886
I0
s(g9
g24
g3
g4
g5
g6
g17
tp887
I0
s(g22
g2
g10
g11
g12
g6
g25
tp888
I0
s(g1
g2
g3
g4
g29
g6
g25
tp889
F0.0525
s(g19
g2
g10
g28
g29
g6
g25
tp890
F0.007875
s(g22
g16
g3
g28
g29
g13
g14
tp891
I0
s(g22
g2
g3
g4
g5
g13
g7
tp892
I0
s(g22
g2
g10
g4
g29
g13
g42
tp893
F0.0
s(g22
g24
g3
g11
g29
g13
g14
tp894
F0.0
s(g1
g24
g10
g4
g12
g13
g25
tp895
I0
s(g9
g2
g10
g4
g29
g6
g42
tp896
F0.0567
s(g19
g24
g3
g28
g5
g13
g17
tp897
I0
s(g1
g2
g10
g4
g5
g13
g7
tp898
I0
s(g1
g16
g10
g28
g5
g13
g14
tp899
I0
s(g22
g24
g10
g4
g12
g6
g42
tp900
F0.0
s(g1
g16
g3
g4
g29
g13
g7
tp901
I0
s(g22
g16
g10
g28
g29
g6
g25
tp902
F0.0
s(g9
g24
g10
g4
g12
g6
g17
tp903
F0.006299999999999999
s(g1
g2
g10
g4
g29
g6
g25
tp904
F0.0525
s(g1
g24
g10
g28
g29
g6
g25
tp905
F0.013125
s(g9
g24
g10
g11
g29
g13
g42
tp906
I0
s(g19
g2
g10
g11
g29
g6
g42
tp907
I0
s(g22
g2
g10
g4
g5
g13
g7
tp908
I0
s(g19
g16
g3
g4
g29
g6
g17
tp909
I0
s(g9
g16
g10
g28
g5
g6
g42
tp910
I0
s(g19
g24
g3
g11
g12
g13
g14
tp911
F0.00075
s(g9
g2
g3
g4
g5
g6
g7
tp912
I0
s(g22
g2
g3
g11
g29
g6
g25
tp913
F0.0
s(g22
g24
g10
g4
g12
g13
g17
tp914
F0.0
s(g1
g2
g10
g28
g29
g6
g42
tp915
I0
s(g1
g24
g10
g4
g5
g13
g17
tp916
F0.001875
s(g1
g24
g10
g28
g5
g13
g14
tp917
I0
s(g1
g16
g10
g28
g29
g13
g17
tp918
F0.0001875
s(g1
g16
g10
g4
g5
g6
g17
tp919
F0.0052499999999999995
s(g1
g16
g3
g11
g29
g6
g25
tp920
F0.008749999999999999
s(g19
g24
g3
g28
g29
g13
g14
tp921
I0
s(g22
g16
g3
g4
g29
g13
g14
tp922
I0
s(g22
g24
g3
g4
g5
g6
g14
tp923
I0
s(g19
g16
g10
g11
g5
g13
g25
tp924
I0
s(g19
g24
g10
g11
g5
g13
g17
tp925
F0.0009375
s(g9
g2
g10
g28
g29
g6
g7
tp926
I0
s(g19
g2
g3
g11
g5
g13
g25
tp927
I0
s(g19
g24
g10
g4
g29
g13
g17
tp928
F0.0005625
s(g22
g2
g3
g28
g12
g6
g7
tp929
I0
s(g19
g2
g10
g28
g5
g6
g7
tp930
I0
s(g19
g24
g10
g28
g29
g6
g42
tp931
I0
s(g1
g24
g10
g4
g5
g13
g7
tp932
I0
s(g9
g2
g10
g28
g5
g6
g25
tp933
I0
s(g1
g16
g10
g4
g29
g6
g25
tp934
F0.0052499999999999995
s(g9
g2
g10
g11
g12
g13
g42
tp935
I0
s(g9
g2
g10
g4
g29
g6
g14
tp936
I0
s(g19
g2
g3
g11
g29
g13
g17
tp937
I0
s(g1
g16
g10
g28
g5
g13
g42
tp938
I0
s(g19
g2
g3
g4
g12
g13
g42
tp939
F0.00081
s(g1
g16
g10
g4
g29
g6
g7
tp940
I0
s(g1
g24
g3
g11
g5
g6
g14
tp941
F0.0875
s(g9
g2
g3
g4
g12
g6
g42
tp942
F0.02268
s(g19
g16
g3
g11
g29
g6
g42
tp943
I0
s(g1
g2
g10
g4
g12
g13
g42
tp944
F0.0027
s(g9
g24
g10
g4
g29
g13
g7
tp945
I0
s(g19
g24
g3
g4
g29
g13
g14
tp946
I0
s(g22
g2
g3
g11
g12
g6
g42
tp947
I0
s(g19
g16
g10
g4
g5
g13
g14
tp948
I0
s(g1
g16
g3
g28
g12
g13
g14
tp949
I0
s(g9
g24
g10
g28
g5
g13
g14
tp950
I0
s(g19
g16
g3
g28
g12
g6
g7
tp951
I0
s(g1
g24
g10
g28
g12
g13
g7
tp952
I0
s(g9
g24
g3
g28
g5
g6
g42
tp953
I0
s(g9
g2
g10
g4
g12
g6
g17
tp954
F0.012599999999999998
s(g1
g24
g3
g28
g29
g13
g7
tp955
I0
s(g9
g16
g10
g4
g12
g13
g7
tp956
I0
s(g19
g2
g10
g28
g5
g13
g17
tp957
F0.0005625
s(g1
g24
g3
g11
g12
g6
g7
tp958
I0
s(g9
g16
g10
g28
g29
g13
g42
tp959
I0
s(g19
g16
g10
g28
g29
g13
g14
tp960
I0
s(g22
g24
g10
g28
g12
g6
g7
tp961
I0
s(g9
g2
g3
g28
g5
g13
g14
tp962
I0
s(g1
g24
g10
g28
g12
g6
g17
tp963
F0.0052499999999999995
s(g19
g24
g3
g28
g29
g13
g42
tp964
I0
s(g1
g16
g10
g4
g5
g6
g25
tp965
I0
s(g1
g16
g3
g28
g29
g6
g25
tp966
F0.0026249999999999997
s(g22
g2
g3
g28
g12
g13
g17
tp967
I0
s(g9
g24
g10
g28
g12
g13
g25
tp968
I0
s(g22
g2
g3
g11
g29
g6
g7
tp969
I0
s(g9
g2
g3
g11
g5
g13
g17
tp970
I0
s(g1
g24
g3
g28
g29
g13
g17
tp971
I0
s(g9
g2
g10
g4
g29
g6
g17
tp972
F0.0315
s(g22
g16
g3
g4
g12
g6
g17
tp973
I0
s(g1
g24
g3
g28
g29
g6
g17
tp974
I0
s(g19
g2
g10
g28
g29
g13
g17
tp975
F0.0005625
s(g9
g16
g3
g28
g5
g6
g25
tp976
I0
s(g1
g2
g10
g4
g5
g6
g17
tp977
F0.0525
s(g19
g2
g10
g4
g5
g13
g17
tp978
F0.001125
s(g9
g2
g10
g4
g12
g6
g42
tp979
F0.02268
s(g9
g2
g10
g28
g5
g6
g7
tp980
I0
s(g22
g24
g10
g4
g12
g6
g17
tp981
F0.0
s(g22
g2
g10
g4
g12
g13
g7
tp982
I0
s(g1
g16
g3
g11
g5
g13
g42
tp983
I0
s(g1
g2
g3
g11
g5
g13
g42
tp984
I0
s(g22
g2
g10
g28
g5
g6
g14
tp985
I0
s(g19
g24
g10
g11
g29
g13
g14
tp986
F0.001875
s(g1
g16
g3
g11
g29
g13
g25
tp987
F0.0006250000000000001
s(g22
g16
g10
g4
g12
g6
g14
tp988
I0
s(g22
g2
g3
g4
g5
g6
g25
tp989
I0
s(g22
g24
g10
g11
g5
g6
g17
tp990
F0.0
s(g19
g2
g3
g4
g5
g13
g7
tp991
I0
s(g1
g2
g10
g11
g29
g6
g7
tp992
F0.0875
s(g22
g24
g10
g11
g29
g6
g14
tp993
F0.0
s(g9
g24
g3
g11
g12
g6
g14
tp994
F0.020999999999999998
s(g19
g16
g3
g11
g29
g13
g42
tp995
I0
s(g22
g24
g3
g28
g29
g13
g7
tp996
I0
s(g1
g2
g3
g11
g12
g13
g7
tp997
I0
s(g19
g24
g3
g11
g5
g13
g7
tp998
I0
s(g19
g2
g10
g4
g12
g13
g7
tp999
I0
s(g19
g16
g3
g4
g5
g13
g25
tp1000
I0
s(g9
g24
g3
g4
g12
g6
g42
tp1001
F0.01134
s(g19
g16
g10
g4
g29
g6
g7
tp1002
I0
s(g22
g16
g10
g28
g5
g6
g7
tp1003
I0
s(g19
g24
g10
g4
g12
g13
g25
tp1004
I0
s(g1
g24
g3
g28
g29
g13
g42
tp1005
I0
s(g19
g24
g10
g11
g5
g13
g42
tp1006
I0
s(g9
g24
g10
g11
g5
g6
g17
tp1007
F0.02625
s(g19
g16
g10
g4
g5
g6
g17
tp1008
F0.0015749999999999998
s(g9
g24
g10
g4
g29
g6
g14
tp1009
I0
s(g19
g16
g3
g11
g12
g6
g14
tp1010
F0.0021
s(g19
g24
g10
g4
g29
g13
g42
tp1011
F0.0010125
s(g9
g2
g3
g4
g29
g6
g17
tp1012
I0
s(g9
g24
g10
g11
g29
g13
g17
tp1013
F0.001875
s(g9
g2
g3
g11
g12
g13
g17
tp1014
I0
s(g19
g24
g3
g11
g29
g6
g25
tp1015
F0.013125
s(g9
g24
g3
g28
g29
g6
g25
tp1016
F0.007875
s(g22
g16
g10
g11
g5
g13
g14
tp1017
F0.0
s(g19
g24
g10
g28
g29
g13
g42
tp1018
I0
s(g19
g16
g10
g4
g5
g6
g42
tp1019
F0.002835
s(g9
g24
g10
g28
g12
g6
g7
tp1020
I0
s(g19
g2
g3
g28
g5
g6
g14
tp1021
I0
s(g22
g2
g3
g28
g5
g6
g42
tp1022
I0
s(g1
g2
g3
g28
g29
g13
g25
tp1023
F0.001875
s(g1
g24
g3
g11
g29
g13
g25
tp1024
F0.003125
s(g1
g24
g10
g11
g29
g6
g7
tp1025
F0.04375
s(g9
g16
g10
g4
g5
g13
g7
tp1026
I0
s(g9
g16
g3
g4
g12
g6
g7
tp1027
I0
s(g22
g16
g10
g11
g29
g6
g42
tp1028
I0
s(g1
g24
g3
g28
g12
g13
g7
tp1029
I0
s(g22
g2
g3
g11
g5
g13
g14
tp1030
F0.0
s(g1
g2
g10
g11
g5
g6
g25
tp1031
I0
s(g1
g2
g3
g11
g29
g13
g25
tp1032
F0.00625
s(g1
g16
g3
g4
g5
g6
g42
tp1033
F0.00945
s(g19
g16
g3
g4
g29
g13
g14
tp1034
I0
s(g19
g2
g3
g4
g5
g13
g42
tp1035
F0.002025
s(g19
g24
g3
g28
g12
g13
g7
tp1036
I0
s(g19
g16
g10
g11
g12
g6
g17
tp1037
F0.00105
s(g22
g24
g10
g11
g12
g6
g25
tp1038
I0
s(g1
g24
g3
g11
g29
g6
g42
tp1039
I0
s(g19
g16
g10
g4
g5
g13
g17
tp1040
F0.0001125
s(g22
g2
g3
g28
g29
g6
g14
tp1041
I0
s(g1
g16
g3
g28
g5
g6
g7
tp1042
I0
s(g9
g16
g3
g4
g29
g6
g42
tp1043
F0.00567
s(g22
g2
g3
g4
g12
g6
g42
tp1044
F0.0
s(g22
g2
g3
g11
g5
g6
g42
tp1045
I0
s(g9
g16
g10
g28
g29
g6
g17
tp1046
F0.0015749999999999998
s(g19
g24
g3
g11
g29
g13
g17
tp1047
I0
s(g1
g16
g10
g11
g12
g13
g7
tp1048
F0.00025000000000000006
s(g19
g16
g10
g11
g12
g13
g25
tp1049
I0
s(g19
g16
g10
g4
g29
g13
g14
tp1050
I0
s(g9
g2
g3
g11
g5
g6
g7
tp1051
I0
s(g19
g16
g10
g11
g12
g13
g7
tp1052
F7.500000000000001e-05
s(g22
g16
g3
g28
g5
g6
g42
tp1053
I0
s(g19
g24
g10
g28
g29
g13
g17
tp1054
F0.00028125
s(g1
g2
g3
g28
g29
g6
g42
tp1055
I0
s(g19
g2
g3
g28
g5
g13
g14
tp1056
I0
s(g22
g16
g3
g11
g29
g6
g42
tp1057
I0
s(g1
g24
g3
g11
g5
g13
g17
tp1058
I0
s(g1
g2
g10
g28
g5
g6
g42
tp1059
I0
s(g19
g16
g3
g4
g29
g13
g42
tp1060
F0.0002025
s(g19
g16
g10
g28
g5
g13
g14
tp1061
I0
s(g1
g16
g3
g28
g29
g6
g7
tp1062
I0
s(g1
g16
g3
g11
g5
g6
g42
tp1063
I0
s(g9
g2
g10
g11
g29
g6
g42
tp1064
I0
s(g19
g16
g3
g28
g29
g13
g25
tp1065
F5.625e-05
s(g19
g2
g3
g28
g12
g6
g7
tp1066
I0
s(g1
g2
g10
g11
g5
g6
g7
tp1067
F0.0875
s(g19
g2
g10
g28
g5
g13
g14
tp1068
I0
s(g9
g24
g10
g28
g12
g6
g25
tp1069
I0
s(g19
g16
g3
g11
g29
g6
g14
tp1070
F0.0052499999999999995
s(g1
g2
g10
g28
g29
g13
g14
tp1071
I0
s(g9
g24
g10
g4
g5
g13
g17
tp1072
F0.001125
s(g22
g2
g3
g28
g12
g6
g42
tp1073
I0
s(g1
g24
g3
g4
g5
g6
g14
tp1074
I0
s(g22
g16
g10
g11
g12
g6
g42
tp1075
I0
s(g19
g2
g3
g11
g12
g6
g17
tp1076
I0
s(g9
g16
g3
g4
g12
g6
g25
tp1077
I0
s(g9
g16
g3
g4
g29
g6
g17
tp1078
I0
s(g19
g16
g3
g11
g29
g13
g17
tp1079
I0
s(g22
g16
g10
g4
g29
g13
g25
tp1080
F0.0
s(g22
g16
g3
g11
g5
g13
g14
tp1081
F0.0
s(g19
g16
g3
g11
g12
g6
g17
tp1082
I0
s(g1
g16
g10
g11
g5
g6
g14
tp1083
F0.017499999999999998
s(g22
g24
g10
g4
g5
g13
g14
tp1084
I0
s(g19
g24
g3
g4
g12
g13
g7
tp1085
I0
s(g22
g2
g3
g28
g5
g13
g25
tp1086
I0
s(g9
g24
g10
g28
g29
g13
g42
tp1087
I0
s(g1
g16
g10
g28
g12
g13
g25
tp1088
I0
s(g1
g2
g3
g11
g5
g6
g7
tp1089
I0
s(g9
g16
g3
g11
g29
g6
g17
tp1090
I0
s(g22
g2
g10
g4
g29
g6
g17
tp1091
F0.0
s(g22
g24
g10
g4
g5
g6
g14
tp1092
I0
s(g9
g24
g3
g4
g29
g6
g42
tp1093
F0.02835
s(g22
g24
g10
g4
g29
g13
g42
tp1094
F0.0
s(g9
g2
g10
g11
g29
g13
g25
tp1095
F0.00375
s(g9
g2
g3
g11
g12
g13
g42
tp1096
I0
s(g9
g2
g3
g4
g29
g13
g25
tp1097
F0.00225
s(g22
g16
g10
g28
g5
g6
g25
tp1098
I0
s(g22
g24
g3
g4
g5
g6
g17
tp1099
I0
s(g19
g16
g3
g11
g5
g13
g14
tp1100
F0.000375
s(g9
g16
g10
g4
g5
g6
g7
tp1101
I0
s(g1
g16
g3
g28
g5
g6
g42
tp1102
I0
s(g19
g2
g10
g4
g12
g6
g7
tp1103
I0
s(g9
g24
g10
g28
g5
g6
g14
tp1104
I0
s(g19
g16
g10
g4
g29
g6
g25
tp1105
F0.0015749999999999998
s(g9
g24
g3
g4
g12
g13
g14
tp1106
I0
s(g19
g2
g3
g4
g29
g6
g42
tp1107
F0.02835
s(g9
g2
g10
g28
g29
g13
g7
tp1108
I0
s(g19
g16
g3
g4
g29
g13
g17
tp1109
I0
s(g22
g24
g10
g11
g12
g13
g25
tp1110
I0
s(g9
g2
g3
g28
g12
g13
g42
tp1111
I0
s(g22
g16
g3
g11
g12
g13
g25
tp1112
I0
s(g19
g16
g3
g4
g12
g6
g25
tp1113
I0
s(g19
g2
g10
g4
g29
g6
g14
tp1114
I0
s(g1
g24
g10
g4
g5
g6
g7
tp1115
I0
s(g19
g2
g10
g4
g12
g13
g17
tp1116
F0.00045
s(g22
g24
g3
g4
g5
g13
g7
tp1117
I0
s(g19
g2
g10
g11
g29
g13
g42
tp1118
I0
s(g1
g16
g3
g28
g5
g6
g17
tp1119
I0
s(g9
g2
g10
g4
g29
g13
g14
tp1120
I0
s(g9
g24
g10
g11
g5
g6
g42
tp1121
I0
s(g19
g16
g10
g11
g29
g13
g42
tp1122
I0
s(g22
g16
g3
g28
g29
g13
g42
tp1123
I0
s(g22
g2
g10
g11
g5
g13
g42
tp1124
I0
s(g1
g16
g3
g4
g12
g6
g42
tp1125
F0.00378
s(g1
g2
g10
g11
g29
g6
g17
tp1126
F0.0875
s(g9
g16
g10
g4
g29
g13
g14
tp1127
I0
s(g1
g2
g3
g4
g29
g13
g25
tp1128
F0.00375
s(g9
g24
g3
g4
g29
g6
g17
tp1129
I0
s(g9
g2
g3
g11
g29
g13
g42
tp1130
I0
s(g9
g16
g10
g4
g12
g6
g14
tp1131
I0
s(g22
g16
g10
g4
g5
g13
g7
tp1132
I0
s(g22
g2
g3
g4
g29
g6
g25
tp1133
F0.0
s(g19
g2
g3
g28
g29
g6
g17
tp1134
I0
s(g19
g24
g10
g11
g5
g6
g7
tp1135
F0.013125
s(g22
g16
g10
g11
g29
g6
g25
tp1136
F0.0
s(g9
g16
g10
g11
g5
g13
g7
tp1137
F0.000375
s(g22
g24
g3
g11
g12
g6
g17
tp1138
I0
s(g22
g16
g3
g11
g12
g6
g7
tp1139
I0
s(g9
g2
g3
g28
g29
g6
g14
tp1140
I0
s(g19
g16
g3
g4
g29
g6
g7
tp1141
I0
s(g22
g16
g10
g28
g5
g13
g42
tp1142
I0
s(g19
g16
g3
g4
g12
g13
g17
tp1143
I0
s(g19
g16
g3
g28
g12
g13
g14
tp1144
I0
s(g19
g24
g10
g4
g29
g6
g42
tp1145
F0.014175
s(g22
g24
g3
g11
g5
g13
g25
tp1146
I0
s(g1
g16
g10
g11
g12
g6
g17
tp1147
F0.0035000000000000005
s(g9
g24
g3
g28
g12
g13
g17
tp1148
I0
s(g19
g24
g3
g28
g29
g6
g25
tp1149
F0.0039375
s(g22
g16
g3
g4
g5
g6
g25
tp1150
I0
s(g22
g16
g10
g4
g29
g6
g25
tp1151
F0.0
s(g1
g16
g10
g28
g5
g6
g42
tp1152
I0
s(g19
g24
g3
g28
g5
g13
g14
tp1153
I0
s(g19
g24
g10
g11
g29
g6
g17
tp1154
F0.013125
s(g19
g24
g3
g4
g5
g13
g14
tp1155
I0
s(g22
g16
g10
g28
g29
g6
g42
tp1156
I0
s(g9
g16
g10
g4
g12
g13
g17
tp1157
F9e-05
s(g22
g16
g10
g11
g12
g6
g14
tp1158
F0.0
s(g9
g16
g3
g28
g5
g6
g14
tp1159
I0
s(g22
g16
g3
g11
g12
g6
g17
tp1160
I0
s(g1
g24
g10
g28
g29
g6
g42
tp1161
I0
s(g19
g2
g3
g11
g5
g6
g25
tp1162
I0
s(g9
g24
g10
g4
g5
g6
g17
tp1163
F0.01575
s(g22
g16
g10
g11
g5
g6
g25
tp1164
I0
s(g19
g2
g10
g28
g29
g13
g25
tp1165
F0.0005625
s(g19
g2
g10
g4
g12
g13
g42
tp1166
F0.00081
s(g9
g16
g3
g11
g5
g13
g17
tp1167
I0
s(g9
g2
g3
g11
g29
g13
g7
tp1168
I0
s(g1
g24
g10
g4
g12
g6
g14
tp1169
I0
s(g1
g2
g3
g28
g5
g6
g25
tp1170
I0
s(g9
g2
g10
g28
g12
g13
g42
tp1171
I0
s(g22
g24
g10
g4
g5
g13
g42
tp1172
F0.0
s(g19
g2
g10
g4
g5
g6
g14
tp1173
I0
s(g9
g2
g3
g28
g29
g13
g17
tp1174
I0
s(g9
g2
g10
g28
g5
g13
g42
tp1175
I0
s(g22
g24
g3
g4
g5
g13
g42
tp1176
F0.0
s(g19
g2
g3
g11
g12
g6
g7
tp1177
I0
s(g9
g24
g10
g4
g5
g6
g42
tp1178
F0.02835
s(g1
g16
g10
g28
g29
g13
g14
tp1179
I0
s(g1
g16
g10
g28
g12
g6
g17
tp1180
F0.00105
s(g1
g2
g3
g11
g5
g13
g7
tp1181
I0
s(g9
g24
g3
g11
g12
g13
g17
tp1182
I0
s(g9
g24
g3
g28
g12
g6
g25
tp1183
I0
s(g19
g24
g3
g11
g5
g13
g17
tp1184
I0
s(g1
g2
g10
g11
g29
g13
g7
tp1185
F0.00625
s(g19
g2
g10
g11
g12
g13
g25
tp1186
I0
s(g1
g16
g10
g28
g5
g13
g25
tp1187
I0
s(g22
g2
g10
g4
g5
g13
g42
tp1188
F0.0
s(g1
g16
g10
g4
g12
g13
g25
tp1189
I0
s(g22
g16
g3
g11
g29
g13
g7
tp1190
I0
s(g19
g2
g3
g11
g12
g6
g42
tp1191
I0
s(g9
g16
g10
g28
g5
g6
g25
tp1192
I0
s(g19
g24
g10
g28
g5
g6
g42
tp1193
I0
s(g9
g16
g3
g11
g29
g13
g14
tp1194
F0.00075
s(g22
g24
g3
g28
g5
g13
g14
tp1195
I0
s(g22
g2
g3
g11
g29
g6
g17
tp1196
I0
s(g9
g24
g3
g28
g29
g13
g7
tp1197
I0
s(g22
g2
g10
g28
g12
g13
g14
tp1198
I0
s(g19
g16
g10
g28
g12
g6
g25
tp1199
I0
s(g19
g16
g10
g28
g5
g6
g14
tp1200
I0
s(g9
g2
g10
g4
g5
g13
g7
tp1201
I0
s(g19
g24
g10
g11
g5
g13
g14
tp1202
F0.001875
s(g19
g2
g10
g4
g5
g13
g7
tp1203
I0
s(g22
g2
g10
g28
g29
g13
g25
tp1204
F0.0
s(g19
g24
g10
g28
g12
g6
g14
tp1205
I0
s(g22
g24
g10
g28
g12
g6
g42
tp1206
I0
s(g22
g2
g3
g4
g29
g13
g17
tp1207
I0
s(g22
g16
g3
g28
g29
g13
g17
tp1208
I0
s(g1
g2
g3
g28
g5
g6
g14
tp1209
I0
s(g22
g24
g10
g11
g5
g13
g17
tp1210
F0.0
s(g19
g24
g3
g11
g5
g6
g7
tp1211
I0
s(g9
g16
g3
g4
g5
g6
g25
tp1212
I0
s(g1
g24
g3
g28
g12
g13
g17
tp1213
I0
s(g22
g2
g10
g11
g12
g13
g14
tp1214
F0.0
s(g1
g24
g3
g11
g5
g6
g42
tp1215
I0
s(g19
g2
g10
g11
g5
g6
g14
tp1216
F0.0525
s(g19
g2
g3
g28
g5
g13
g17
tp1217
I0
s(g19
g16
g3
g28
g29
g6
g14
tp1218
I0
s(g1
g16
g3
g4
g12
g13
g42
tp1219
F0.00027000000000000006
s(g22
g2
g3
g28
g5
g13
g7
tp1220
I0
s(g22
g24
g3
g11
g5
g6
g17
tp1221
I0
s(g9
g2
g3
g11
g29
g6
g42
tp1222
I0
s(g9
g2
g3
g4
g12
g6
g7
tp1223
I0
s(g9
g16
g3
g11
g12
g6
g25
tp1224
I0
s(g1
g2
g3
g11
g12
g6
g42
tp1225
I0
s(g22
g2
g10
g4
g12
g6
g25
tp1226
I0
s(g9
g24
g10
g4
g12
g13
g42
tp1227
F0.00081
s(g9
g24
g3
g4
g5
g13
g42
tp1228
F0.002025
s(g22
g24
g3
g28
g29
g6
g25
tp1229
F0.0
s(g1
g2
g10
g28
g5
g13
g14
tp1230
I0
s(g22
g24
g3
g4
g5
g6
g42
tp1231
F0.0
s(g9
g16
g3
g28
g29
g6
g42
tp1232
I0
s(g1
g16
g10
g11
g12
g6
g42
tp1233
I0
s(g9
g16
g3
g28
g29
g13
g17
tp1234
I0
s(g1
g16
g10
g28
g29
g6
g25
tp1235
F0.0026249999999999997
s(g9
g16
g3
g11
g5
g6
g25
tp1236
I0
s(g1
g2
g10
g11
g5
g6
g42
tp1237
I0
s(g1
g16
g3
g28
g29
g13
g14
tp1238
I0
s(g1
g2
g10
g28
g29
g13
g17
tp1239
F0.001875
s(g1
g2
g3
g4
g12
g13
g42
tp1240
F0.0027
s(g19
g24
g3
g4
g12
g6
g25
tp1241
I0
s(g1
g16
g10
g4
g5
g13
g14
tp1242
I0
s(g1
g2
g3
g28
g5
g13
g14
tp1243
I0
s(g1
g2
g10
g4
g29
g6
g14
tp1244
I0
s(g9
g24
g10
g11
g12
g6
g14
tp1245
F0.020999999999999998
s(g19
g2
g3
g11
g29
g13
g7
tp1246
I0
s(g19
g16
g10
g28
g12
g6
g7
tp1247
I0
s(g9
g16
g3
g4
g29
g13
g25
tp1248
F0.000225
s(g19
g16
g3
g4
g5
g6
g7
tp1249
I0
s(g22
g2
g3
g11
g29
g13
g14
tp1250
F0.0
s(g9
g16
g10
g28
g5
g6
g7
tp1251
I0
s(g1
g24
g3
g4
g5
g13
g7
tp1252
I0
s(g9
g2
g3
g4
g5
g6
g42
tp1253
F0.0567
s(g9
g24
g10
g11
g5
g13
g17
tp1254
F0.001875
s(g1
g24
g10
g28
g5
g6
g25
tp1255
I0
s(g22
g16
g3
g4
g29
g13
g25
tp1256
F0.0
s(g19
g2
g3
g28
g12
g6
g17
tp1257
I0
s(g19
g2
g10
g11
g12
g6
g25
tp1258
I0
s(g22
g16
g3
g11
g29
g13
g25
tp1259
F0.0
s(g19
g24
g10
g28
g29
g6
g17
tp1260
F0.0039375
s(g9
g16
g10
g28
g12
g13
g17
tp1261
F4.5e-05
s(g19
g24
g10
g11
g12
g13
g42
tp1262
I0
s(g22
g2
g3
g11
g12
g13
g14
tp1263
F0.0
s(g1
g2
g3
g28
g12
g6
g7
tp1264
I0
s(g22
g16
g10
g28
g12
g6
g14
tp1265
I0
s(g1
g24
g3
g4
g29
g6
g7
tp1266
I0
s(g19
g2
g10
g28
g12
g6
g25
tp1267
I0
s(g9
g16
g3
g4
g5
g13
g25
tp1268
I0
s(g22
g24
g10
g4
g12
g6
g7
tp1269
I0
s(g19
g16
g10
g4
g5
g6
g14
tp1270
I0
s(g19
g2
g3
g28
g5
g6
g42
tp1271
I0
s(g9
g2
g10
g11
g5
g6
g17
tp1272
F0.0525
s(g9
g24
g10
g11
g29
g6
g42
tp1273
I0
s(g1
g2
g10
g4
g29
g6
g42
tp1274
F0.0945
s(g19
g24
g10
g4
g5
g6
g14
tp1275
I0
s(g9
g24
g3
g4
g5
g13
g7
tp1276
I0
s(g1
g2
g10
g4
g29
g13
g17
tp1277
F0.00375
s(g9
g16
g3
g28
g12
g6
g25
tp1278
I0
s(g19
g24
g10
g28
g5
g13
g14
tp1279
I0
s(g1
g2
g3
g28
g29
g13
g42
tp1280
I0
s(g22
g24
g3
g4
g29
g13
g42
tp1281
F0.0
s(g9
g2
g10
g11
g12
g6
g7
tp1282
F0.020999999999999998
s(g19
g24
g3
g4
g12
g6
g7
tp1283
I0
s(g9
g2
g10
g28
g12
g6
g7
tp1284
I0
s(g9
g16
g3
g11
g12
g13
g25
tp1285
I0
s(g1
g16
g3
g4
g29
g6
g7
tp1286
I0
s(g1
g16
g3
g4
g5
g6
g25
tp1287
I0
s(g19
g2
g3
g28
g12
g6
g42
tp1288
I0
s(g1
g16
g3
g11
g12
g6
g17
tp1289
I0
s(g22
g2
g10
g11
g29
g6
g25
tp1290
F0.0
s(g1
g24
g3
g11
g29
g6
g25
tp1291
F0.04375
s(g1
g24
g3
g28
g12
g6
g17
tp1292
I0
s(g9
g24
g10
g11
g29
g6
g14
tp1293
F0.0525
s(g19
g24
g10
g11
g29
g13
g17
tp1294
F0.0009375
s(g19
g2
g10
g11
g29
g13
g14
tp1295
F0.00375
s(g1
g24
g3
g4
g29
g6
g25
tp1296
F0.02625
s(g22
g2
g3
g28
g5
g6
g25
tp1297
I0
s(g1
g24
g10
g11
g5
g13
g14
tp1298
F0.00625
s(g22
g24
g3
g28
g12
g6
g17
tp1299
I0
s(g1
g2
g10
g28
g5
g6
g14
tp1300
I0
s(g9
g24
g3
g4
g12
g6
g14
tp1301
I0
s(g19
g16
g10
g11
g29
g6
g14
tp1302
F0.0052499999999999995
s(g1
g24
g10
g28
g5
g13
g25
tp1303
I0
s(g19
g24
g10
g4
g12
g13
g7
tp1304
I0
s(g22
g16
g3
g11
g29
g6
g25
tp1305
F0.0
s(g22
g2
g3
g4
g12
g6
g7
tp1306
I0
s(g19
g2
g3
g4
g5
g13
g25
tp1307
I0
s(g22
g16
g3
g28
g29
g6
g25
tp1308
F0.0
s(g9
g16
g10
g28
g12
g6
g17
tp1309
F0.0006299999999999999
s(g22
g24
g10
g28
g5
g13
g25
tp1310
I0
s(g19
g2
g3
g11
g5
g13
g14
tp1311
F0.00375
s(g9
g2
g10
g4
g12
g13
g25
tp1312
I0
s(g19
g16
g10
g28
g5
g6
g17
tp1313
F0.0007874999999999999
s(g1
g2
g10
g4
g29
g6
g17
tp1314
F0.0525
s(g22
g16
g3
g28
g12
g13
g25
tp1315
I0
s(g19
g16
g3
g28
g29
g13
g42
tp1316
I0
s(g19
g24
g3
g28
g12
g6
g17
tp1317
I0
s(g22
g2
g3
g4
g12
g6
g25
tp1318
I0
s(g22
g2
g3
g11
g5
g6
g14
tp1319
F0.0
s(g1
g16
g10
g4
g5
g6
g42
tp1320
F0.00945
s(g22
g2
g3
g11
g12
g13
g42
tp1321
I0
s(g22
g16
g3
g28
g29
g6
g7
tp1322
I0
s(g19
g24
g3
g4
g29
g6
g7
tp1323
I0
s(g9
g16
g10
g4
g5
g6
g17
tp1324
F0.0031499999999999996
s(g9
g2
g10
g4
g5
g13
g17
tp1325
F0.00225
s(g1
g24
g10
g4
g29
g6
g17
tp1326
F0.02625
s(g22
g16
g3
g4
g12
g13
g42
tp1327
F0.0
s(g1
g24
g3
g11
g12
g6
g42
tp1328
I0
s(g1
g2
g10
g11
g29
g13
g25
tp1329
F0.00625
s(g1
g24
g10
g4
g12
g6
g42
tp1330
F0.0189
s(g9
g24
g10
g11
g5
g13
g42
tp1331
I0
s(g22
g2
g10
g4
g29
g13
g17
tp1332
F0.0
s(g1
g2
g3
g4
g5
g6
g25
tp1333
I0
s(g1
g16
g10
g28
g29
g6
g7
tp1334
I0
s(g9
g2
g3
g4
g5
g13
g7
tp1335
I0
s(g1
g2
g3
g28
g5
g13
g25
tp1336
I0
s(g9
g16
g3
g11
g12
g13
g7
tp1337
I0
s(g22
g2
g10
g28
g29
g6
g7
tp1338
I0
s(g19
g24
g3
g4
g29
g13
g42
tp1339
F0.0010125
s(g22
g2
g10
g28
g29
g6
g25
tp1340
F0.0
s(g9
g16
g10
g11
g29
g13
g17
tp1341
F0.000375
s(g19
g16
g10
g11
g12
g13
g42
tp1342
I0
s(g1
g2
g10
g28
g12
g6
g14
tp1343
I0
s(g22
g24
g10
g28
g29
g6
g14
tp1344
I0
s(g1
g24
g3
g4
g12
g13
g42
tp1345
F0.00135
s(g9
g24
g3
g11
g5
g13
g17
tp1346
I0
s(g1
g24
g3
g11
g29
g13
g14
tp1347
F0.00625
s(g1
g24
g3
g11
g12
g13
g42
tp1348
I0
s(g19
g16
g3
g11
g12
g13
g14
tp1349
F0.00015000000000000001
s(g9
g2
g10
g11
g5
g13
g7
tp1350
F0.00375
s(g9
g16
g3
g28
g29
g13
g7
tp1351
I0
s(g9
g16
g10
g11
g12
g13
g14
tp1352
F0.00030000000000000003
s(g19
g16
g3
g11
g12
g13
g17
tp1353
I0
s(g19
g24
g3
g28
g29
g6
g7
tp1354
I0
s(g1
g16
g10
g4
g12
g6
g25
tp1355
I0
s(g19
g24
g10
g11
g12
g6
g42
tp1356
I0
s(g9
g24
g10
g4
g29
g13
g17
tp1357
F0.001125
s(g9
g24
g3
g11
g29
g13
g14
tp1358
F0.00375
s(g1
g2
g10
g11
g5
g13
g17
tp1359
F0.00625
s(g19
g24
g10
g11
g5
g6
g42
tp1360
I0
s(g19
g16
g10
g4
g29
g6
g42
tp1361
F0.002835
s(g22
g24
g10
g11
g12
g6
g14
tp1362
F0.0
s(g22
g2
g3
g4
g29
g13
g14
tp1363
I0
s(g22
g16
g10
g11
g12
g13
g17
tp1364
F0.0
s(g9
g2
g3
g11
g5
g6
g25
tp1365
I0
s(g22
g2
g3
g4
g12
g13
g14
tp1366
I0
s(g1
g2
g3
g28
g12
g13
g7
tp1367
I0
s(g19
g24
g3
g11
g12
g6
g17
tp1368
I0
s(g9
g16
g10
g28
g12
g13
g25
tp1369
I0
s(g9
g24
g10
g11
g5
g6
g7
tp1370
F0.02625
s(g22
g16
g3
g11
g12
g13
g42
tp1371
I0
s(g1
g16
g10
g28
g12
g13
g42
tp1372
I0
s(g1
g24
g10
g11
g29
g13
g25
tp1373
F0.003125
s(g1
g24
g10
g4
g29
g13
g25
tp1374
F0.001875
s(g1
g2
g10
g4
g12
g13
g25
tp1375
I0
s(g1
g16
g3
g28
g12
g6
g42
tp1376
I0
s(g1
g16
g10
g4
g5
g6
g7
tp1377
I0
s(g22
g24
g3
g11
g12
g13
g7
tp1378
I0
s(g22
g2
g10
g11
g12
g6
g14
tp1379
F0.0
s(g22
g2
g3
g28
g29
g6
g17
tp1380
I0
s(g22
g24
g10
g4
g5
g6
g42
tp1381
F0.0
s(g19
g16
g10
g11
g29
g6
g42
tp1382
I0
s(g9
g16
g10
g11
g29
g6
g14
tp1383
F0.010499999999999999
s(g9
g2
g3
g4
g29
g13
g42
tp1384
F0.00405
s(g22
g16
g10
g28
g12
g13
g14
tp1385
I0
s(g19
g2
g10
g11
g29
g6
g7
tp1386
F0.02625
s(g19
g16
g10
g11
g5
g6
g42
tp1387
I0
s(g19
g24
g10
g11
g12
g6
g17
tp1388
F0.0052499999999999995
s(g1
g2
g3
g4
g29
g13
g7
tp1389
I0
s(g9
g24
g10
g28
g12
g13
g14
tp1390
I0
s(g1
g2
g3
g28
g12
g13
g17
tp1391
I0
s(g22
g16
g3
g4
g29
g6
g7
tp1392
I0
s(g19
g2
g3
g4
g29
g6
g25
tp1393
F0.01575
s(g22
g24
g10
g28
g12
g6
g25
tp1394
I0
s(g1
g24
g10
g4
g5
g6
g25
tp1395
I0
s(g19
g24
g10
g4
g29
g6
g25
tp1396
F0.007875
s(g1
g24
g10
g28
g29
g6
g14
tp1397
I0
s(g22
g2
g10
g11
g29
g13
g25
tp1398
F0.0
s(g19
g24
g3
g28
g5
g6
g7
tp1399
I0
s(g19
g16
g10
g11
g29
g13
g25
tp1400
F0.0001875
s(g1
g2
g3
g11
g5
g13
g17
tp1401
I0
s(g1
g24
g3
g28
g5
g6
g14
tp1402
I0
s(g9
g16
g3
g11
g5
g6
g42
tp1403
I0
s(g22
g2
g3
g4
g12
g13
g42
tp1404
F0.0
s(g1
g16
g3
g28
g29
g13
g42
tp1405
I0
s(g22
g24
g10
g4
g5
g6
g7
tp1406
I0
s(g22
g24
g10
g11
g29
g6
g17
tp1407
F0.0
s(g22
g16
g10
g4
g12
g6
g25
tp1408
I0
s(g1
g2
g10
g28
g12
g13
g14
tp1409
I0
s(g9
g2
g3
g28
g5
g6
g25
tp1410
I0
s(g1
g24
g3
g4
g29
g13
g25
tp1411
F0.001875
s(g9
g16
g3
g4
g12
g13
g7
tp1412
I0
s(g22
g16
g3
g4
g5
g13
g17
tp1413
I0
s(g1
g16
g10
g28
g5
g6
g7
tp1414
I0
s(g9
g2
g3
g28
g12
g13
g14
tp1415
I0
s(g9
g16
g3
g4
g12
g13
g25
tp1416
I0
s(g22
g2
g3
g11
g12
g6
g7
tp1417
I0
s(g19
g16
g10
g28
g12
g13
g17
tp1418
F2.25e-05
s(g1
g24
g3
g11
g5
g13
g42
tp1419
I0
s(g1
g2
g3
g4
g5
g13
g25
tp1420
I0
s(g22
g24
g3
g11
g5
g13
g42
tp1421
I0
s(g19
g2
g3
g4
g5
g6
g14
tp1422
I0
s(g19
g16
g3
g4
g29
g6
g42
tp1423
F0.002835
s(g1
g24
g3
g11
g12
g13
g14
tp1424
F0.0025000000000000005
s(g22
g24
g10
g28
g5
g6
g17
tp1425
F0.0
s(g19
g16
g10
g11
g12
g6
g14
tp1426
F0.0021
s(g9
g16
g3
g28
g12
g13
g7
tp1427
I0
s(g1
g16
g10
g28
g5
g6
g25
tp1428
I0
s(g9
g2
g10
g11
g29
g13
g14
tp1429
F0.0075
s(g9
g24
g3
g11
g12
g6
g42
tp1430
I0
s(g22
g2
g3
g11
g12
g6
g17
tp1431
I0
s(g22
g16
g10
g4
g12
g13
g14
tp1432
I0
s(g19
g16
g3
g28
g5
g6
g25
tp1433
I0
s(g19
g24
g3
g4
g29
g6
g42
tp1434
F0.014175
s(g19
g16
g3
g11
g12
g13
g7
tp1435
I0
s(g9
g24
g10
g4
g5
g13
g14
tp1436
I0
s(g1
g16
g3
g28
g12
g13
g7
tp1437
I0
s(g19
g2
g3
g4
g12
g13
g17
tp1438
I0
s(g9
g24
g3
g4
g29
g13
g17
tp1439
I0
s(g22
g16
g3
g4
g29
g6
g25
tp1440
F0.0
s(g9
g24
g3
g4
g5
g6
g42
tp1441
F0.02835
s(g22
g16
g3
g28
g29
g13
g7
tp1442
I0
s(g19
g2
g10
g4
g5
g6
g17
tp1443
F0.01575
s(g1
g2
g10
g11
g5
g13
g14
tp1444
F0.0125
s(g22
g2
g10
g4
g5
g6
g42
tp1445
F0.0
s(g9
g2
g10
g28
g12
g13
g25
tp1446
I0
s(g1
g24
g10
g11
g12
g13
g14
tp1447
F0.0025000000000000005
s(g22
g2
g10
g28
g29
g6
g14
tp1448
I0
s(g19
g2
g3
g11
g29
g6
g17
tp1449
I0
s(g9
g2
g3
g11
g12
g6
g25
tp1450
I0
s(g22
g24
g3
g4
g5
g13
g25
tp1451
I0
s(g22
g2
g10
g28
g5
g13
g7
tp1452
I0
s(g19
g16
g10
g11
g5
g13
g14
tp1453
F0.000375
s(g1
g16
g3
g11
g12
g13
g25
tp1454
I0
s(g1
g2
g10
g28
g29
g6
g14
tp1455
I0
s(g1
g24
g3
g4
g5
g13
g42
tp1456
F0.003375
s(g1
g2
g10
g11
g12
g13
g17
tp1457
F0.0025000000000000005
s(g1
g16
g10
g4
g12
g13
g7
tp1458
I0
s(g19
g24
g3
g11
g12
g13
g7
tp1459
I0
s(g1
g16
g10
g11
g12
g6
g14
tp1460
F0.007000000000000001
s(g22
g24
g3
g28
g29
g13
g25
tp1461
F0.0
s(g1
g24
g3
g11
g5
g6
g25
tp1462
I0
s(g22
g2
g3
g11
g29
g13
g25
tp1463
F0.0
s(g22
g16
g10
g28
g5
g13
g17
tp1464
F0.0
s(g1
g16
g3
g4
g12
g13
g25
tp1465
I0
s(g1
g24
g10
g11
g5
g6
g7
tp1466
F0.04375
s(g19
g16
g10
g11
g29
g6
g25
tp1467
F0.0026249999999999997
s(g22
g2
g10
g4
g5
g6
g14
tp1468
I0
s(g9
g16
g3
g11
g12
g6
g42
tp1469
I0
s(g1
g24
g3
g4
g12
g6
g14
tp1470
I0
s(g9
g16
g10
g11
g29
g13
g7
tp1471
F0.000375
s(g22
g24
g3
g4
g5
g6
g7
tp1472
I0
s(g1
g2
g3
g11
g5
g6
g25
tp1473
I0
s(g9
g24
g10
g4
g12
g13
g25
tp1474
I0
s(g22
g24
g3
g4
g12
g13
g17
tp1475
I0
s(g1
g16
g3
g28
g5
g13
g25
tp1476
I0
s(g19
g2
g3
g4
g12
g6
g25
tp1477
I0
s(g19
g16
g3
g11
g5
g6
g7
tp1478
I0
s(g1
g2
g3
g4
g29
g6
g14
tp1479
I0
s(g22
g24
g10
g4
g12
g13
g14
tp1480
I0
s(g22
g24
g10
g28
g12
g13
g17
tp1481
F0.0
s(g9
g2
g3
g28
g29
g6
g17
tp1482
I0
s(g1
g24
g10
g4
g5
g13
g14
tp1483
I0
s(g19
g16
g10
g28
g29
g6
g25
tp1484
F0.0007874999999999999
s(g22
g16
g3
g28
g12
g6
g17
tp1485
I0
s(g19
g24
g3
g11
g29
g13
g42
tp1486
I0
s(g19
g16
g3
g11
g5
g6
g25
tp1487
I0
s(g19
g24
g3
g28
g5
g13
g42
tp1488
I0
s(g22
g16
g10
g11
g12
g13
g14
tp1489
F0.0
s(g19
g16
g3
g4
g12
g6
g14
tp1490
I0
s(g1
g2
g10
g4
g5
g6
g14
tp1491
I0
s(g1
g24
g10
g28
g12
g13
g17
tp1492
F0.000375
s(g1
g16
g3
g28
g12
g6
g7
tp1493
I0
s(g22
g2
g3
g4
g5
g6
g42
tp1494
F0.0
s(g1
g2
g10
g28
g5
g13
g17
tp1495
F0.001875
s(g9
g2
g10
g11
g5
g13
g17
tp1496
F0.00375
s(g1
g16
g10
g4
g29
g13
g14
tp1497
I0
s(g1
g24
g10
g28
g5
g6
g42
tp1498
I0
s(g19
g2
g10
g28
g12
g13
g25
tp1499
I0
s(g22
g2
g3
g4
g29
g13
g7
tp1500
I0
s(g22
g24
g3
g28
g29
g6
g42
tp1501
I0
s(g19
g24
g3
g11
g12
g13
g25
tp1502
I0
s(g9
g16
g3
g28
g29
g6
g25
tp1503
F0.0015749999999999998
s(g19
g2
g3
g4
g5
g6
g17
tp1504
I0
s(g22
g24
g10
g4
g29
g6
g17
tp1505
F0.0
s(g22
g24
g3
g28
g12
g13
g25
tp1506
I0
s(g19
g24
g10
g4
g5
g6
g42
tp1507
F0.014175
s(g1
g2
g3
g11
g29
g6
g42
tp1508
I0
s(g19
g2
g10
g11
g5
g13
g7
tp1509
F0.001875
s(g22
g2
g3
g28
g29
g13
g7
tp1510
I0
s(g9
g2
g3
g28
g5
g13
g7
tp1511
I0
s(g9
g24
g3
g28
g29
g13
g42
tp1512
I0
s(g1
g2
g3
g28
g5
g6
g17
tp1513
I0
s(g19
g16
g3
g28
g5
g13
g7
tp1514
I0
s(g1
g24
g3
g4
g5
g13
g17
tp1515
I0
s(g1
g2
g3
g4
g12
g13
g25
tp1516
I0
s(g1
g16
g10
g11
g29
g13
g17
tp1517
F0.0006250000000000001
s(g1
g16
g3
g11
g29
g13
g14
tp1518
F0.0012500000000000002
s(g9
g16
g10
g11
g5
g13
g25
tp1519
I0
s(g1
g16
g10
g28
g29
g13
g42
tp1520
I0
s(g1
g2
g3
g4
g12
g6
g7
tp1521
I0
s(g19
g16
g3
g28
g5
g13
g17
tp1522
I0
s(g19
g2
g3
g28
g5
g6
g25
tp1523
I0
s(g1
g24
g10
g11
g12
g6
g14
tp1524
F0.034999999999999996
s(g9
g24
g10
g4
g5
g6
g14
tp1525
I0
s(g9
g24
g10
g11
g29
g6
g25
tp1526
F0.02625
s(g9
g16
g10
g28
g29
g13
g25
tp1527
F0.0001125
s(g9
g2
g10
g11
g29
g6
g17
tp1528
F0.0525
s(g22
g24
g10
g4
g29
g6
g7
tp1529
I0
s(g19
g24
g3
g4
g5
g6
g7
tp1530
I0
s(g9
g2
g10
g4
g5
g13
g14
tp1531
I0
s(g9
g16
g10
g4
g29
g13
g25
tp1532
F0.000225
s(g1
g16
g10
g11
g29
g6
g14
tp1533
F0.017499999999999998
s(g22
g2
g10
g4
g5
g6
g17
tp1534
F0.0
s(g19
g24
g10
g11
g29
g13
g7
tp1535
F0.0009375
s(g19
g24
g3
g28
g29
g13
g17
tp1536
I0
s(g9
g16
g3
g28
g12
g6
g42
tp1537
I0
s(g1
g24
g10
g28
g12
g6
g42
tp1538
I0
s(g9
g16
g3
g4
g5
g13
g17
tp1539
I0
s(g19
g24
g10
g11
g12
g13
g25
tp1540
I0
s(g22
g2
g3
g11
g29
g6
g14
tp1541
F0.0
s(g19
g24
g10
g28
g29
g6
g7
tp1542
I0
s(g9
g24
g3
g28
g12
g13
g14
tp1543
I0
s(g22
g2
g10
g11
g5
g6
g14
tp1544
F0.0
s(g19
g2
g10
g28
g12
g6
g42
tp1545
I0
s(g9
g16
g10
g11
g29
g6
g17
tp1546
F0.0052499999999999995
s(g22
g16
g3
g28
g5
g13
g17
tp1547
I0
s(g9
g16
g3
g28
g12
g13
g25
tp1548
I0
s(g22
g24
g3
g28
g5
g6
g7
tp1549
I0
s(g9
g16
g10
g28
g12
g6
g14
tp1550
I0
s(g1
g16
g10
g4
g5
g13
g42
tp1551
F0.000675
s(g9
g16
g3
g11
g5
g6
g7
tp1552
I0
s(g19
g16
g3
g4
g5
g6
g25
tp1553
I0
s(g9
g16
g3
g28
g29
g6
g7
tp1554
I0
s(g19
g24
g10
g4
g12
g6
g42
tp1555
F0.00567
s(g9
g24
g3
g28
g5
g6
g7
tp1556
I0
s(g1
g24
g10
g28
g12
g13
g14
tp1557
I0
s(g22
g16
g3
g4
g5
g6
g42
tp1558
F0.0
s(g19
g16
g3
g11
g12
g6
g42
tp1559
I0
s(g9
g16
g3
g11
g29
g6
g7
tp1560
I0
s(g19
g24
g10
g28
g5
g13
g42
tp1561
I0
s(g19
g16
g3
g4
g5
g13
g14
tp1562
I0
s(g1
g2
g10
g28
g12
g13
g42
tp1563
I0
s(g1
g2
g3
g28
g29
g13
g14
tp1564
I0
s(g9
g2
g10
g4
g5
g6
g17
tp1565
F0.0315
s(g22
g24
g3
g4
g29
g13
g25
tp1566
F0.0
s(g1
g24
g10
g11
g5
g6
g17
tp1567
F0.04375
s(g19
g24
g10
g4
g29
g6
g7
tp1568
I0
s(g9
g2
g3
g11
g29
g6
g14
tp1569
F0.105
s(g22
g2
g10
g28
g29
g6
g42
tp1570
I0
s(g9
g24
g10
g4
g29
g6
g7
tp1571
I0
s(g1
g16
g3
g4
g12
g13
g14
tp1572
I0
s(g9
g24
g3
g28
g29
g13
g17
tp1573
I0
s(g9
g16
g3
g11
g12
g13
g42
tp1574
I0
s(g1
g16
g3
g4
g5
g13
g17
tp1575
I0
s(g1
g24
g10
g28
g29
g13
g7
tp1576
I0
s(g1
g16
g3
g4
g29
g6
g17
tp1577
I0
s(g9
g16
g10
g4
g29
g6
g17
tp1578
F0.0031499999999999996
s(g1
g2
g10
g28
g12
g13
g17
tp1579
F0.00075
s(g22
g2
g10
g11
g5
g13
g14
tp1580
F0.0
s(g9
g2
g10
g28
g12
g6
g17
tp1581
F0.006299999999999999
s(g22
g2
g10
g11
g29
g6
g42
tp1582
I0
s(g9
g16
g3
g4
g29
g13
g14
tp1583
I0
s(g22
g16
g3
g4
g12
g13
g7
tp1584
I0
s(g9
g2
g10
g11
g29
g6
g14
tp1585
F0.105
s(g22
g24
g3
g28
g5
g13
g25
tp1586
I0
s(g19
g24
g10
g4
g12
g6
g17
tp1587
F0.0031499999999999996
s(g9
g16
g10
g4
g29
g6
g7
tp1588
I0
s(g1
g16
g3
g11
g5
g6
g14
tp1589
F0.017499999999999998
s(g1
g24
g3
g4
g29
g6
g42
tp1590
F0.04725
s(g22
g2
g3
g11
g12
g13
g25
tp1591
I0
s(g22
g2
g3
g4
g5
g13
g25
tp1592
I0
s(g9
g24
g10
g11
g12
g13
g7
tp1593
F0.00075
s(g22
g2
g10
g11
g29
g13
g14
tp1594
F0.0
s(g9
g16
g10
g4
g29
g6
g25
tp1595
F0.0031499999999999996
s(g22
g2
g10
g28
g12
g13
g25
tp1596
I0
s(g1
g24
g10
g28
g5
g13
g42
tp1597
I0
s(g1
g16
g3
g28
g5
g13
g7
tp1598
I0
s(g1
g2
g10
g11
g29
g13
g42
tp1599
I0
s(g19
g16
g10
g4
g12
g6
g42
tp1600
F0.0011339999999999998
s(g19
g24
g10
g28
g5
g6
g14
tp1601
I0
s(g22
g24
g3
g11
g29
g6
g7
tp1602
I0
s(g19
g16
g10
g28
g5
g13
g25
tp1603
I0
s(g1
g16
g3
g4
g29
g13
g42
tp1604
F0.000675
s(g19
g24
g3
g4
g29
g13
g25
tp1605
F0.0005625
s(g19
g16
g3
g11
g29
g6
g17
tp1606
I0
s(g22
g24
g10
g4
g29
g13
g7
tp1607
I0
s(g9
g2
g10
g28
g5
g13
g7
tp1608
I0
s(g19
g16
g10
g4
g29
g6
g14
tp1609
I0
s(g19
g16
g3
g11
g5
g13
g25
tp1610
I0
s(g22
g16
g10
g11
g29
g13
g14
tp1611
F0.0
s(g9
g24
g10
g4
g29
g6
g17
tp1612
F0.01575
s(g1
g16
g10
g4
g12
g6
g14
tp1613
I0
s(g1
g24
g10
g28
g29
g13
g25
tp1614
F0.0009375
s(g1
g16
g10
g11
g29
g13
g42
tp1615
I0
s(g22
g16
g3
g11
g5
g6
g17
tp1616
I0
s(g19
g16
g3
g28
g29
g6
g25
tp1617
F0.0007874999999999999
s(g9
g24
g3
g11
g5
g13
g7
tp1618
I0
s(g19
g16
g10
g11
g12
g13
g14
tp1619
F0.00015000000000000001
s(g1
g2
g3
g4
g12
g6
g17
tp1620
I0
s(g9
g16
g3
g11
g29
g13
g17
tp1621
I0
s(g22
g16
g10
g11
g29
g6
g17
tp1622
F0.0
s(g22
g16
g3
g28
g12
g13
g14
tp1623
I0
s(g1
g2
g3
g11
g29
g6
g17
tp1624
I0
s(g22
g24
g3
g4
g12
g6
g14
tp1625
I0
s(g19
g24
g10
g28
g5
g6
g17
tp1626
F0.0039375
s(g22
g16
g10
g4
g5
g6
g42
tp1627
F0.0
s(g19
g24
g3
g28
g5
g6
g25
tp1628
I0
s(g9
g2
g10
g4
g5
g6
g7
tp1629
I0
s(g9
g16
g10
g28
g5
g13
g17
tp1630
F0.0001125
s(g1
g2
g3
g4
g5
g6
g42
tp1631
F0.0945
s(g1
g24
g10
g11
g5
g13
g17
tp1632
F0.003125
s(g22
g2
g10
g4
g5
g13
g14
tp1633
I0
s(g9
g2
g3
g28
g5
g6
g7
tp1634
I0
s(g9
g24
g3
g4
g12
g6
g17
tp1635
I0
s(g19
g24
g10
g28
g29
g13
g14
tp1636
I0
s(g9
g16
g10
g11
g12
g6
g14
tp1637
F0.0042
s(g1
g2
g10
g11
g5
g6
g14
tp1638
F0.175
s(g1
g24
g3
g28
g5
g13
g25
tp1639
I0
s(g1
g24
g10
g4
g29
g13
g42
tp1640
F0.003375
s(g1
g24
g3
g4
g12
g13
g25
tp1641
I0
s(g19
g2
g10
g28
g5
g13
g7
tp1642
I0
s(g1
g2
g10
g4
g29
g13
g42
tp1643
F0.00675
s(g19
g16
g10
g4
g12
g6
g17
tp1644
F0.0006299999999999999
s(g22
g16
g3
g28
g5
g13
g42
tp1645
I0
s(g9
g2
g10
g28
g29
g6
g25
tp1646
F0.01575
s(g22
g2
g3
g28
g5
g13
g17
tp1647
I0
s(g19
g24
g10
g28
g12
g6
g7
tp1648
I0
s(g19
g16
g3
g28
g12
g6
g17
tp1649
I0
s(g1
g16
g3
g11
g29
g6
g17
tp1650
I0
s(g1
g2
g10
g4
g12
g13
g14
tp1651
I0
s(g1
g16
g3
g28
g12
g6
g25
tp1652
I0
s(g19
g16
g10
g11
g5
g13
g17
tp1653
F0.0001875
s(g19
g24
g3
g28
g12
g13
g14
tp1654
I0
s(g22
g24
g3
g11
g29
g13
g42
tp1655
I0
s(g9
g24
g3
g11
g5
g6
g25
tp1656
I0
s(g1
g16
g10
g11
g5
g13
g25
tp1657
I0
s(g1
g2
g3
g28
g29
g6
g7
tp1658
I0
s(g9
g2
g3
g4
g12
g13
g17
tp1659
I0
s(g22
g16
g3
g4
g29
g6
g42
tp1660
F0.0
s(g19
g2
g10
g28
g29
g6
g14
tp1661
I0
s(g9
g16
g3
g4
g29
g6
g14
tp1662
I0
s(g1
g24
g10
g4
g5
g6
g42
tp1663
F0.04725
s(g19
g2
g3
g11
g5
g6
g14
tp1664
F0.0525
s(g9
g2
g3
g28
g5
g13
g17
tp1665
I0
s(g19
g24
g3
g11
g12
g6
g7
tp1666
I0
s(g1
g16
g10
g11
g12
g13
g14
tp1667
F0.0005000000000000001
s(g22
g2
g3
g4
g12
g13
g25
tp1668
I0
s(g1
g16
g3
g28
g29
g13
g25
tp1669
F0.0001875
s(g1
g16
g10
g11
g29
g6
g42
tp1670
I0
s(g19
g24
g10
g4
g5
g13
g17
tp1671
F0.0005625
s(g22
g24
g10
g11
g5
g6
g42
tp1672
I0
s(g9
g24
g10
g28
g5
g6
g7
tp1673
I0
s(g22
g16
g10
g28
g12
g13
g42
tp1674
I0
s(g1
g2
g10
g11
g12
g6
g42
tp1675
I0
s(g1
g24
g3
g4
g29
g13
g42
tp1676
F0.003375
s(g22
g24
g3
g4
g12
g6
g17
tp1677
I0
s(g22
g2
g10
g11
g12
g6
g17
tp1678
F0.0
s(g1
g16
g3
g28
g12
g13
g25
tp1679
I0
s(g22
g16
g10
g28
g5
g6
g42
tp1680
I0
s(g19
g2
g10
g4
g12
g6
g25
tp1681
I0
s(g19
g2
g3
g28
g29
g13
g42
tp1682
I0
s(g22
g24
g3
g11
g29
g13
g7
tp1683
I0
s(g1
g24
g10
g4
g12
g13
g17
tp1684
F0.00075
s(g22
g24
g10
g11
g5
g6
g7
tp1685
F0.0
s(g9
g24
g10
g28
g29
g13
g7
tp1686
I0
s(g9
g2
g10
g11
g12
g6
g17
tp1687
F0.020999999999999998
s(g22
g16
g3
g4
g12
g6
g25
tp1688
I0
s(g1
g16
g3
g28
g5
g6
g25
tp1689
I0
s(g9
g16
g10
g4
g12
g13
g14
tp1690
I0
s(g19
g24
g3
g4
g5
g13
g25
tp1691
I0
s(g9
g2
g10
g11
g12
g13
g7
tp1692
F0.0015
s(g1
g24
g10
g4
g5
g6
g14
tp1693
I0
s(g22
g16
g3
g4
g12
g6
g7
tp1694
I0
s(g9
g24
g10
g4
g12
g13
g7
tp1695
I0
s(g22
g2
g10
g4
g29
g6
g7
tp1696
I0
s(g1
g16
g3
g28
g12
g13
g17
tp1697
I0
s(g9
g16
g3
g28
g5
g6
g42
tp1698
I0
s(g1
g16
g10
g4
g29
g6
g14
tp1699
I0
s(g9
g2
g3
g28
g5
g6
g42
tp1700
I0
s(g1
g24
g3
g11
g5
g6
g7
tp1701
I0
s(g1
g2
g10
g4
g12
g6
g17
tp1702
F0.020999999999999998
s(g9
g16
g3
g4
g12
g13
g42
tp1703
F0.000162
s(g9
g16
g10
g11
g12
g6
g42
tp1704
I0
s(g1
g16
g3
g11
g29
g13
g17
tp1705
I0
s(g9
g16
g10
g4
g12
g6
g42
tp1706
F0.0022679999999999996
s(g1
g24
g10
g4
g12
g13
g42
tp1707
F0.00135
s(g9
g2
g10
g11
g5
g6
g42
tp1708
I0
s(g1
g24
g3
g4
g29
g13
g14
tp1709
I0
s(g9
g16
g10
g28
g12
g13
g7
tp1710
I0
s(g22
g24
g3
g11
g29
g6
g17
tp1711
I0
s(g1
g24
g3
g4
g12
g6
g42
tp1712
F0.0189
s(g9
g2
g10
g4
g12
g13
g14
tp1713
I0
s(g22
g24
g10
g28
g12
g6
g14
tp1714
I0
s(g1
g16
g10
g11
g5
g6
g17
tp1715
F0.008749999999999999
s(g1
g16
g10
g4
g29
g6
g17
tp1716
F0.0052499999999999995
s(g19
g2
g10
g4
g29
g6
g25
tp1717
F0.01575
s(g19
g24
g3
g4
g29
g6
g25
tp1718
F0.007875
s(g19
g2
g10
g11
g29
g6
g25
tp1719
F0.02625
s(g9
g16
g3
g11
g12
g6
g14
tp1720
F0.0042
s(g22
g2
g10
g28
g29
g13
g14
tp1721
I0
s(g9
g24
g10
g28
g5
g6
g42
tp1722
I0
s(g9
g16
g10
g11
g5
g6
g17
tp1723
F0.0052499999999999995
s(g9
g24
g3
g4
g12
g13
g7
tp1724
I0
s(g22
g24
g3
g28
g29
g13
g42
tp1725
I0
s(g22
g2
g10
g11
g12
g6
g42
tp1726
I0
s(g19
g2
g3
g28
g29
g6
g7
tp1727
I0
s(g19
g24
g10
g4
g29
g6
g14
tp1728
I0
s(g19
g24
g10
g11
g29
g13
g42
tp1729
I0
s(g19
g2
g10
g28
g29
g6
g42
tp1730
I0
s(g9
g24
g3
g4
g29
g13
g7
tp1731
I0
s(g19
g16
g10
g4
g29
g13
g42
tp1732
F0.0002025
s(g9
g16
g10
g4
g12
g6
g17
tp1733
F0.0012599999999999998
s(g1
g16
g10
g4
g12
g6
g17
tp1734
F0.0021
s(g9
g2
g10
g4
g29
g6
g25
tp1735
F0.0315
s(g1
g16
g10
g28
g29
g13
g7
tp1736
I0
s(g19
g2
g3
g4
g12
g6
g42
tp1737
F0.01134
s(g9
g24
g10
g11
g12
g13
g42
tp1738
I0
s(g1
g16
g3
g11
g29
g6
g7
tp1739
I0
s(g1
g2
g10
g11
g29
g13
g14
tp1740
F0.0125
s(g22
g24
g3
g28
g5
g13
g7
tp1741
I0
s(g19
g16
g10
g28
g29
g6
g42
tp1742
I0
s(g1
g2
g3
g4
g29
g6
g17
tp1743
I0
s(g1
g24
g10
g28
g5
g6
g14
tp1744
I0
s(g1
g2
g3
g11
g29
g6
g7
tp1745
I0
s(g9
g16
g10
g11
g5
g13
g14
tp1746
F0.00075
s(g9
g2
g10
g11
g12
g13
g25
tp1747
I0
s(g1
g24
g3
g11
g29
g13
g17
tp1748
I0
s(g22
g2
g3
g4
g5
g6
g14
tp1749
I0
s(g1
g24
g3
g11
g5
g13
g14
tp1750
F0.00625
s(g19
g24
g10
g11
g29
g6
g14
tp1751
F0.02625
s(g9
g16
g3
g11
g29
g13
g7
tp1752
I0
s(g19
g24
g3
g28
g5
g13
g25
tp1753
I0
s(g19
g2
g3
g4
g5
g13
g14
tp1754
I0
s(g9
g24
g3
g4
g5
g6
g14
tp1755
I0
s(g22
g16
g10
g4
g29
g6
g14
tp1756
I0
s(g19
g2
g10
g28
g5
g13
g25
tp1757
I0
s(g1
g2
g3
g11
g12
g13
g14
tp1758
F0.005000000000000001
s(g1
g24
g3
g4
g5
g6
g42
tp1759
F0.04725
s(g19
g16
g10
g4
g29
g13
g17
tp1760
F0.0001125
s(g19
g24
g3
g28
g5
g13
g7
tp1761
I0
s(g19
g16
g10
g11
g12
g6
g25
tp1762
I0
s(g22
g16
g10
g11
g29
g13
g42
tp1763
I0
s(g19
g2
g10
g28
g12
g13
g42
tp1764
I0
s(g22
g16
g3
g11
g29
g13
g17
tp1765
I0
s(g1
g2
g10
g4
g5
g13
g25
tp1766
I0
s(g19
g24
g10
g4
g29
g13
g14
tp1767
I0
s(g9
g24
g3
g28
g5
g6
g25
tp1768
I0
s(g9
g16
g3
g28
g5
g6
g7
tp1769
I0
s(g9
g2
g10
g11
g12
g6
g42
tp1770
I0
s(g19
g24
g10
g4
g5
g6
g25
tp1771
I0
s(g19
g16
g10
g28
g29
g13
g7
tp1772
I0
s(g22
g16
g10
g28
g29
g6
g14
tp1773
I0
s(g19
g16
g3
g11
g12
g6
g7
tp1774
I0
s(g1
g16
g10
g4
g29
g6
g42
tp1775
F0.00945
s(g19
g24
g3
g11
g29
g13
g25
tp1776
F0.0009375
s(g9
g16
g10
g11
g5
g13
g42
tp1777
I0
s(g19
g16
g3
g28
g29
g6
g7
tp1778
I0
s(g1
g16
g10
g28
g29
g13
g25
tp1779
F0.0001875
s(g22
g2
g10
g28
g29
g13
g7
tp1780
I0
s(g9
g24
g3
g28
g12
g6
g14
tp1781
I0
s(g1
g2
g10
g11
g12
g6
g17
tp1782
F0.034999999999999996
s(g1
g16
g10
g11
g29
g13
g7
tp1783
F0.0006250000000000001
s(g9
g16
g10
g11
g29
g13
g42
tp1784
I0
s(g9
g24
g10
g11
g29
g13
g14
tp1785
F0.00375
s(g22
g2
g3
g11
g29
g6
g42
tp1786
I0
s(g1
g16
g3
g4
g12
g6
g7
tp1787
I0
s(g1
g24
g3
g4
g5
g6
g17
tp1788
I0
s(g19
g16
g3
g4
g5
g13
g17
tp1789
I0
s(g9
g2
g10
g28
g5
g6
g17
tp1790
F0.01575
s(g9
g16
g10
g11
g12
g6
g17
tp1791
F0.0021
s(g19
g24
g10
g28
g12
g13
g25
tp1792
I0
s(g19
g2
g10
g11
g12
g6
g14
tp1793
F0.020999999999999998
s(g19
g16
g10
g4
g5
g13
g25
tp1794
I0
s(g1
g24
g10
g11
g29
g6
g14
tp1795
F0.0875
s(g22
g2
g3
g28
g29
g13
g25
tp1796
F0.0
s(g1
g2
g10
g11
g12
g6
g7
tp1797
F0.034999999999999996
s(g19
g24
g10
g28
g12
g6
g25
tp1798
I0
s(g1
g16
g3
g11
g5
g13
g25
tp1799
I0
s(g1
g24
g10
g11
g12
g13
g42
tp1800
I0
s(g1
g16
g3
g11
g5
g13
g7
tp1801
I0
s(g1
g2
g10
g11
g29
g6
g14
tp1802
F0.175
s(g9
g24
g10
g28
g12
g13
g42
tp1803
I0
s(g22
g24
g3
g28
g12
g13
g14
tp1804
I0
s(g19
g16
g3
g11
g29
g13
g25
tp1805
F0.0001875
s(g1
g16
g10
g11
g5
g13
g7
tp1806
F0.0006250000000000001
s(g19
g16
g3
g11
g12
g6
g25
tp1807
I0
s(g19
g24
g10
g28
g5
g13
g25
tp1808
I0
s(g1
g24
g10
g28
g12
g6
g25
tp1809
I0
s(g19
g2
g10
g11
g5
g13
g42
tp1810
I0
s(g22
g16
g10
g28
g12
g6
g7
tp1811
I0
s(g1
g24
g3
g28
g12
g13
g42
tp1812
I0
s(g1
g24
g10
g11
g12
g6
g25
tp1813
I0
s(g22
g24
g10
g11
g29
g13
g14
tp1814
F0.0
s(g9
g24
g3
g28
g29
g6
g14
tp1815
I0
s(g1
g24
g3
g28
g29
g13
g25
tp1816
F0.0009375
s(g9
g2
g3
g4
g29
g6
g7
tp1817
I0
s(g9
g16
g3
g11
g29
g6
g25
tp1818
F0.0052499999999999995
s(g9
g16
g3
g28
g5
g13
g14
tp1819
I0
s(g22
g16
g3
g11
g12
g13
g14
tp1820
F0.0
s(g19
g16
g10
g4
g5
g6
g7
tp1821
I0
s(g22
g24
g10
g28
g29
g13
g17
tp1822
F0.0
s(g22
g2
g10
g11
g12
g13
g7
tp1823
F0.0
s(g19
g16
g10
g28
g29
g13
g25
tp1824
F5.625e-05
s(g9
g24
g10
g28
g29
g6
g14
tp1825
I0
s(g22
g2
g3
g28
g5
g13
g14
tp1826
I0
s(g1
g2
g10
g4
g5
g6
g25
tp1827
I0
s(g9
g16
g10
g11
g5
g6
g42
tp1828
I0
s(g19
g2
g3
g4
g29
g13
g17
tp1829
I0
s(g22
g2
g10
g28
g12
g6
g17
tp1830
F0.0
s(g22
g16
g10
g11
g5
g6
g7
tp1831
F0.0
s(g22
g2
g3
g4
g29
g6
g14
tp1832
I0
s(g22
g24
g3
g28
g5
g6
g17
tp1833
I0
s(g1
g16
g10
g4
g29
g13
g25
tp1834
F0.000375
s(g1
g2
g10
g28
g5
g13
g7
tp1835
I0
s(g1
g2
g3
g11
g12
g6
g14
tp1836
F0.06999999999999999
s(g19
g2
g10
g28
g29
g13
g14
tp1837
I0
s(g22
g2
g3
g28
g29
g13
g14
tp1838
I0
s(g1
g24
g10
g4
g12
g6
g17
tp1839
F0.010499999999999999
s(g22
g16
g10
g4
g5
g6
g7
tp1840
I0
s(g9
g2
g10
g11
g12
g6
g14
tp1841
F0.041999999999999996
s(g9
g24
g10
g4
g12
g6
g14
tp1842
I0
s(g19
g16
g3
g11
g29
g6
g7
tp1843
I0
s(g1
g24
g3
g28
g12
g13
g14
tp1844
I0
s(g22
g24
g10
g11
g29
g13
g42
tp1845
I0
s(g19
g24
g10
g11
g5
g13
g25
tp1846
I0
s(g9
g24
g3
g28
g5
g13
g25
tp1847
I0
s(g19
g16
g3
g28
g5
g13
g14
tp1848
I0
s(g19
g2
g3
g11
g5
g13
g17
tp1849
I0
s(g19
g24
g3
g11
g5
g13
g42
tp1850
I0
s(g19
g16
g3
g11
g12
g13
g25
tp1851
I0
s(g22
g16
g3
g11
g5
g13
g7
tp1852
I0
s(g19
g16
g3
g4
g29
g13
g7
tp1853
I0
s(g19
g2
g10
g28
g5
g6
g42
tp1854
I0
s(g9
g24
g10
g11
g5
g13
g14
tp1855
F0.00375
s(g1
g16
g10
g11
g5
g6
g7
tp1856
F0.008749999999999999
s(g9
g24
g10
g11
g29
g6
g7
tp1857
F0.02625
s(g22
g2
g3
g4
g29
g6
g17
tp1858
I0
s(g19
g24
g10
g28
g5
g6
g25
tp1859
I0
s(g9
g24
g10
g11
g12
g13
g17
tp1860
F0.00075
s(g19
g24
g10
g4
g12
g13
g17
tp1861
F0.000225
s(g22
g2
g10
g28
g5
g6
g42
tp1862
I0
s(g9
g2
g10
g4
g12
g6
g14
tp1863
I0
s(g1
g24
g3
g28
g5
g13
g14
tp1864
I0
s(g9
g24
g10
g4
g29
g13
g14
tp1865
I0
s(g19
g16
g10
g4
g5
g6
g25
tp1866
I0
s(g22
g24
g3
g11
g29
g6
g42
tp1867
I0
s(g9
g2
g3
g28
g29
g13
g7
tp1868
I0
s(g9
g2
g3
g4
g29
g6
g25
tp1869
F0.0315
s(g19
g16
g10
g4
g12
g6
g7
tp1870
I0
s(g22
g16
g3
g11
g29
g13
g42
tp1871
I0
s(g19
g16
g10
g11
g29
g6
g7
tp1872
F0.0026249999999999997
s(g9
g24
g3
g28
g29
g6
g17
tp1873
I0
s(g22
g2
g10
g28
g5
g13
g42
tp1874
I0
s(g9
g2
g3
g11
g5
g6
g14
tp1875
F0.105
s(g22
g24
g3
g4
g12
g13
g7
tp1876
I0
s(g9
g2
g3
g28
g12
g6
g7
tp1877
I0
s(g19
g16
g3
g28
g29
g13
g14
tp1878
I0
s(g22
g24
g10
g28
g12
g6
g17
tp1879
F0.0
s(g22
g2
g3
g28
g29
g6
g25
tp1880
F0.0
s(g9
g16
g3
g4
g5
g6
g14
tp1881
I0
s(g1
g16
g10
g28
g12
g13
g7
tp1882
I0
s(g19
g24
g10
g4
g5
g6
g7
tp1883
I0
s(g22
g24
g10
g11
g12
g6
g42
tp1884
I0
s(g22
g2
g10
g4
g29
g13
g14
tp1885
I0
s(g1
g16
g3
g4
g29
g13
g25
tp1886
F0.000375
s(g22
g2
g3
g28
g12
g13
g25
tp1887
I0
s(g9
g16
g10
g4
g5
g13
g42
tp1888
F0.000405
s(g22
g24
g3
g4
g5
g13
g14
tp1889
I0
s(g1
g24
g3
g28
g5
g13
g42
tp1890
I0
s(g1
g24
g10
g28
g29
g13
g42
tp1891
I0
s(g9
g24
g10
g28
g12
g6
g42
tp1892
I0
s(g9
g2
g10
g28
g12
g6
g14
tp1893
I0
s(g19
g16
g3
g28
g29
g6
g42
tp1894
I0
s(g9
g16
g10
g11
g12
g13
g25
tp1895
I0
s(g22
g24
g10
g4
g5
g6
g17
tp1896
F0.0
s(g9
g2
g3
g4
g29
g13
g17
tp1897
I0
s(g9
g16
g10
g28
g29
g6
g7
tp1898
I0
s(g22
g16
g3
g11
g5
g13
g17
tp1899
I0
s(g22
g16
g10
g4
g29
g13
g42
tp1900
F0.0
s(g22
g16
g3
g28
g5
g6
g7
tp1901
I0
s(g1
g2
g10
g28
g5
g6
g25
tp1902
I0
s(g19
g16
g3
g4
g29
g13
g25
tp1903
F0.0001125
s(g22
g16
g10
g11
g29
g13
g7
tp1904
F0.0
s(g19
g2
g10
g11
g12
g13
g17
tp1905
F0.00075
s(g1
g16
g3
g11
g5
g6
g25
tp1906
I0
s(g9
g24
g10
g28
g29
g13
g25
tp1907
F0.0005625
s(g19
g16
g10
g28
g5
g6
g42
tp1908
I0
s(g19
g24
g3
g4
g12
g13
g17
tp1909
I0
s(g22
g24
g3
g28
g5
g6
g42
tp1910
I0
s(g22
g2
g10
g28
g12
g6
g42
tp1911
I0
s(g9
g2
g3
g28
g12
g13
g25
tp1912
I0
s(g19
g16
g10
g28
g29
g6
g14
tp1913
I0
s(g9
g24
g3
g4
g29
g6
g25
tp1914
F0.01575
s(g22
g16
g10
g4
g12
g13
g25
tp1915
I0
s(g22
g2
g3
g28
g12
g6
g25
tp1916
I0
s(g1
g16
g10
g11
g29
g6
g25
tp1917
F0.008749999999999999
s(g22
g16
g10
g11
g12
g6
g25
tp1918
I0
s(g1
g24
g3
g28
g12
g6
g14
tp1919
I0
s(g22
g2
g3
g4
g12
g6
g14
tp1920
I0
s(g22
g16
g10
g28
g12
g13
g25
tp1921
I0
s(g9
g2
g10
g11
g29
g6
g25
tp1922
F0.0525
s(g1
g2
g10
g11
g12
g13
g42
tp1923
I0
s(g19
g2
g10
g11
g5
g13
g17
tp1924
F0.001875
s(g22
g24
g10
g11
g29
g6
g42
tp1925
I0
s(g9
g24
g10
g4
g5
g13
g25
tp1926
I0
s(g22
g24
g10
g11
g12
g13
g42
tp1927
I0
s(g9
g24
g3
g28
g12
g13
g25
tp1928
I0
s(g22
g2
g10
g11
g29
g13
g42
tp1929
I0
s(g19
g16
g3
g28
g5
g6
g14
tp1930
I0
s(g19
g24
g3
g11
g5
g6
g17
tp1931
I0
s(g22
g24
g10
g4
g29
g6
g42
tp1932
F0.0
s(g9
g16
g3
g4
g12
g6
g17
tp1933
I0
s(g19
g16
g10
g4
g12
g13
g17
tp1934
F4.5e-05
s(g1
g16
g3
g4
g12
g6
g25
tp1935
I0
s(g22
g2
g10
g4
g5
g13
g17
tp1936
F0.0
s(g22
g2
g10
g4
g12
g6
g17
tp1937
F0.0
s(g9
g2
g3
g11
g29
g13
g25
tp1938
F0.00375
s(g19
g24
g3
g4
g29
g6
g14
tp1939
I0
s(g9
g2
g10
g11
g29
g13
g42
tp1940
I0
s(g22
g2
g3
g28
g29
g13
g42
tp1941
I0
s(g19
g24
g3
g11
g29
g6
g7
tp1942
I0
s(g22
g16
g10
g4
g5
g13
g17
tp1943
F0.0
s(g22
g2
g10
g11
g12
g13
g17
tp1944
F0.0
s(g22
g2
g10
g28
g5
g6
g17
tp1945
F0.0
s(g22
g16
g3
g11
g29
g13
g14
tp1946
F0.0
s(g9
g2
g3
g4
g5
g13
g14
tp1947
I0
s(g1
g16
g3
g28
g12
g13
g42
tp1948
I0
s(g22
g16
g3
g11
g12
g6
g14
tp1949
F0.0
s(g9
g24
g10
g11
g12
g6
g42
tp1950
I0
s(g9
g16
g10
g28
g29
g13
g14
tp1951
I0
s(g9
g24
g3
g28
g29
g13
g14
tp1952
I0
s(g19
g2
g3
g28
g29
g13
g25
tp1953
F0.0005625
s(g19
g24
g3
g28
g5
g6
g17
tp1954
I0
s(g22
g16
g3
g4
g5
g13
g7
tp1955
I0
s(g22
g16
g10
g28
g5
g13
g25
tp1956
I0
s(g19
g16
g3
g28
g12
g13
g7
tp1957
I0
s(g22
g16
g3
g28
g12
g13
g7
tp1958
I0
s(g22
g16
g10
g28
g12
g6
g17
tp1959
F0.0
s(g1
g16
g3
g28
g29
g6
g42
tp1960
I0
s(g19
g2
g10
g11
g29
g13
g25
tp1961
F0.001875
s(g19
g24
g3
g28
g29
g6
g42
tp1962
I0
s(g22
g16
g10
g4
g5
g13
g25
tp1963
I0
s(g1
g24
g3
g28
g5
g6
g7
tp1964
I0
s(g19
g16
g10
g4
g29
g6
g17
tp1965
F0.0015749999999999998
s(g22
g2
g10
g11
g5
g13
g25
tp1966
I0
s(g22
g16
g10
g4
g29
g13
g7
tp1967
I0
s(g1
g24
g3
g4
g12
g6
g25
tp1968
I0
s(g22
g2
g3
g4
g5
g13
g17
tp1969
I0
s(g19
g2
g10
g11
g12
g6
g17
tp1970
F0.010499999999999999
s(g9
g24
g3
g11
g29
g13
g7
tp1971
I0
s(g19
g16
g3
g28
g12
g13
g17
tp1972
I0
s(g19
g16
g10
g11
g12
g13
g17
tp1973
F7.500000000000001e-05
s(g22
g16
g10
g11
g5
g13
g7
tp1974
F0.0
s(g1
g16
g10
g4
g12
g13
g17
tp1975
F0.00015000000000000001
s(g19
g2
g10
g4
g12
g13
g25
tp1976
I0
s(g22
g16
g10
g28
g29
g13
g7
tp1977
I0
s(g19
g2
g10
g11
g5
g6
g7
tp1978
F0.02625
s(g22
g2
g3
g4
g12
g13
g7
tp1979
I0
s(g9
g2
g3
g4
g5
g13
g42
tp1980
F0.00405
s(g9
g24
g3
g11
g5
g13
g42
tp1981
I0
s(g1
g2
g3
g11
g12
g13
g25
tp1982
I0
s(g9
g2
g3
g4
g12
g6
g14
tp1983
I0
s(g9
g24
g3
g4
g12
g13
g17
tp1984
I0
s(g1
g2
g3
g4
g29
g13
g17
tp1985
I0
s(g9
g2
g10
g28
g5
g13
g25
tp1986
I0
s(g19
g2
g3
g28
g29
g6
g25
tp1987
F0.007875
s(g9
g2
g10
g11
g5
g6
g25
tp1988
I0
s(g19
g2
g10
g4
g29
g13
g17
tp1989
F0.001125
s(g22
g2
g10
g28
g5
g13
g17
tp1990
F0.0
s(g1
g24
g10
g11
g5
g6
g42
tp1991
I0
s(g1
g16
g3
g11
g12
g13
g14
tp1992
F0.0005000000000000001
s(g22
g16
g10
g4
g29
g6
g42
tp1993
F0.0
s(g22
g16
g3
g4
g12
g13
g17
tp1994
I0
s(g22
g16
g3
g4
g5
g6
g17
tp1995
I0
s(g22
g2
g3
g28
g12
g13
g7
tp1996
I0
s(g9
g16
g10
g11
g29
g6
g42
tp1997
I0
s(g22
g24
g3
g4
g29
g6
g17
tp1998
I0
s(g19
g2
g3
g11
g5
g6
g42
tp1999
I0
s(g9
g16
g3
g4
g5
g6
g17
tp2000
I0
s(g9
g24
g10
g28
g12
g13
g7
tp2001
I0
s(g22
g16
g10
g11
g5
g6
g42
tp2002
I0
s(g19
g2
g10
g11
g12
g13
g42
tp2003
I0
s(g19
g2
g10
g11
g12
g13
g7
tp2004
F0.00075
s(g19
g2
g3
g11
g29
g13
g14
tp2005
F0.00375
s(g19
g2
g3
g11
g12
g6
g25
tp2006
I0
s(g9
g16
g3
g28
g5
g13
g17
tp2007
I0
s(g1
g24
g3
g11
g29
g6
g7
tp2008
I0
s(g22
g16
g10
g4
g29
g13
g17
tp2009
F0.0
s(g1
g24
g3
g4
g5
g13
g14
tp2010
I0
s(g22
g24
g10
g4
g5
g13
g25
tp2011
I0
s(g1
g2
g3
g4
g12
g13
g14
tp2012
I0
s(g22
g2
g10
g28
g5
g13
g14
tp2013
I0
s(g19
g16
g10
g11
g5
g6
g17
tp2014
F0.0026249999999999997
s(g19
g16
g10
g28
g12
g6
g42
tp2015
I0
s(g22
g16
g10
g28
g29
g13
g17
tp2016
F0.0
s(g22
g16
g10
g11
g29
g13
g25
tp2017
F0.0
s(g19
g2
g10
g4
g5
g13
g14
tp2018
I0
s(g9
g24
g10
g4
g5
g6
g25
tp2019
I0
s(g22
g2
g3
g11
g5
g13
g7
tp2020
I0
s(g1
g2
g10
g4
g5
g13
g42
tp2021
F0.00675
s(g1
g16
g10
g28
g29
g6
g17
tp2022
F0.0026249999999999997
s(g9
g24
g3
g28
g12
g6
g42
tp2023
I0
s(g1
g2
g10
g11
g5
g13
g42
tp2024
I0
s(g22
g2
g10
g4
g29
g6
g25
tp2025
F0.0
s(g1
g2
g10
g28
g29
g13
g25
tp2026
F0.001875
s(g9
g2
g3
g28
g29
g13
g25
tp2027
F0.001125
s(g19
g16
g10
g4
g5
g13
g42
tp2028
F0.0002025
s(g19
g24
g10
g28
g12
g6
g42
tp2029
I0
s(g1
g24
g10
g11
g5
g6
g14
tp2030
F0.0875
s(g1
g24
g3
g4
g12
g13
g14
tp2031
I0
s(g22
g2
g10
g28
g29
g6
g17
tp2032
F0.0
s(g22
g24
g3
g11
g5
g13
g7
tp2033
I0
s(g19
g2
g10
g11
g5
g6
g42
tp2034
I0
s(g9
g2
g3
g4
g5
g13
g17
tp2035
I0
s(g9
g24
g3
g28
g12
g6
g17
tp2036
I0
s(g19
g24
g10
g28
g5
g13
g7
tp2037
I0
s(g19
g16
g10
g11
g12
g6
g42
tp2038
I0
s(g19
g24
g10
g28
g12
g13
g42
tp2039
I0
s(g9
g24
g3
g4
g5
g13
g25
tp2040
I0
s(g9
g24
g10
g28
g29
g6
g25
tp2041
F0.007875
s(g19
g24
g3
g11
g12
g13
g42
tp2042
I0
s(g19
g2
g3
g4
g5
g6
g42
tp2043
F0.02835
s(g1
g16
g10
g28
g5
g13
g17
tp2044
F0.0001875
s(g1
g16
g10
g28
g29
g6
g42
tp2045
I0
s(g1
g16
g3
g28
g29
g13
g7
tp2046
I0
s(g9
g2
g3
g11
g12
g6
g14
tp2047
F0.041999999999999996
s(g9
g24
g10
g11
g12
g6
g17
tp2048
F0.010499999999999999
s(g19
g2
g10
g28
g12
g6
g17
tp2049
F0.0031499999999999996
s(g1
g24
g10
g11
g12
g13
g25
tp2050
I0
s(g19
g24
g3
g28
g12
g6
g7
tp2051
I0
s(g19
g16
g10
g28
g12
g6
g17
tp2052
F0.00031499999999999996
s(g9
g16
g3
g4
g5
g6
g42
tp2053
F0.00567
s(g1
g2
g3
g28
g5
g13
g7
tp2054
I0
s(g19
g2
g10
g4
g5
g13
g42
tp2055
F0.002025
s(g1
g2
g10
g4
g29
g6
g7
tp2056
I0
s(g9
g24
g10
g11
g12
g6
g7
tp2057
F0.010499999999999999
s(g22
g16
g10
g11
g5
g13
g17
tp2058
F0.0
s(g9
g16
g3
g28
g5
g13
g42
tp2059
I0
s(g9
g16
g10
g28
g5
g6
g14
tp2060
I0
s(g9
g2
g3
g11
g29
g6
g25
tp2061
F0.0525
s(g1
g2
g10
g28
g29
g6
g17
tp2062
F0.02625
s(g9
g24
g10
g28
g29
g6
g42
tp2063
I0
s(g1
g2
g3
g11
g12
g6
g25
tp2064
I0
s(g9
g2
g3
g4
g5
g6
g25
tp2065
I0
s(g19
g16
g10
g11
g5
g13
g7
tp2066
F0.0001875
s(g9
g24
g3
g11
g12
g6
g17
tp2067
I0
s(g1
g24
g3
g28
g12
g13
g25
tp2068
I0
s(g1
g16
g10
g11
g12
g6
g25
tp2069
I0
s(g19
g16
g10
g11
g29
g13
g14
tp2070
F0.000375
s(g22
g24
g10
g28
g5
g6
g42
tp2071
I0
s(g19
g16
g10
g28
g29
g6
g17
tp2072
F0.0007874999999999999
s(g9
g2
g3
g11
g5
g13
g7
tp2073
I0
s(g22
g24
g10
g28
g5
g6
g7
tp2074
I0
s(g22
g16
g10
g4
g29
g6
g17
tp2075
F0.0
s(g22
g16
g10
g4
g5
g6
g17
tp2076
F0.0
s(g1
g16
g3
g4
g5
g13
g42
tp2077
F0.000675
s(g9
g16
g3
g28
g12
g6
g14
tp2078
I0
s(g9
g24
g10
g4
g5
g6
g7
tp2079
I0
s(g22
g16
g3
g28
g12
g13
g17
tp2080
I0
s(g22
g24
g10
g11
g5
g13
g14
tp2081
F0.0
s(g1
g24
g10
g11
g5
g13
g42
tp2082
I0
s(g22
g24
g10
g4
g29
g6
g14
tp2083
I0
s(g22
g2
g10
g11
g29
g6
g17
tp2084
F0.0
s(g19
g16
g3
g28
g5
g13
g42
tp2085
I0
s(g1
g24
g10
g11
g29
g6
g25
tp2086
F0.04375
s(g22
g24
g10
g28
g5
g13
g42
tp2087
I0
s(g1
g24
g3
g4
g12
g6
g7
tp2088
I0
s(g9
g16
g3
g4
g29
g13
g42
tp2089
F0.000405
s(g9
g2
g3
g11
g12
g13
g14
tp2090
F0.003
s(g22
g16
g3
g11
g12
g6
g42
tp2091
I0
s(g19
g2
g3
g11
g29
g6
g42
tp2092
I0
s(g22
g2
g10
g4
g12
g6
g7
tp2093
I0
s(g19
g2
g10
g11
g12
g6
g42
tp2094
I0
s(g19
g24
g3
g4
g12
g6
g17
tp2095
I0
s(g1
g24
g10
g4
g12
g13
g7
tp2096
I0
s(g9
g2
g10
g11
g5
g6
g7
tp2097
F0.0525
s(g22
g2
g3
g28
g12
g13
g42
tp2098
I0
s(g9
g24
g3
g28
g5
g13
g42
tp2099
I0
s(g1
g24
g10
g28
g12
g13
g42
tp2100
I0
s(g19
g24
g3
g11
g5
g13
g25
tp2101
I0
s(g1
g2
g10
g28
g5
g13
g42
tp2102
I0
s(g19
g16
g10
g28
g29
g13
g42
tp2103
I0
s(g9
g16
g3
g28
g29
g6
g14
tp2104
I0
s(g19
g2
g3
g28
g12
g6
g25
tp2105
I0
s(g22
g2
g3
g28
g5
g13
g42
tp2106
I0
s(g9
g16
g10
g28
g12
g6
g25
tp2107
I0
s(g1
g2
g10
g4
g5
g6
g42
tp2108
F0.0945
s(g1
g16
g10
g4
g5
g13
g17
tp2109
F0.000375
s(g9
g2
g10
g4
g12
g13
g17
tp2110
F0.0009
s(g9
g16
g3
g4
g5
g13
g42
tp2111
F0.000405
s(g19
g2
g3
g11
g12
g13
g7
tp2112
I0
s(g19
g16
g3
g4
g12
g6
g42
tp2113
F0.0011339999999999998
s(g22
g24
g3
g11
g5
g6
g7
tp2114
I0
s(g19
g24
g3
g28
g12
g6
g25
tp2115
I0
s(g19
g24
g10
g28
g12
g13
g14
tp2116
I0
s(g19
g2
g10
g11
g5
g13
g14
tp2117
F0.00375
s(g9
g2
g3
g4
g29
g6
g42
tp2118
F0.0567
s(g19
g2
g3
g11
g12
g13
g25
tp2119
I0
s(g9
g2
g10
g28
g29
g13
g17
tp2120
F0.001125
s(g19
g2
g10
g11
g5
g6
g17
tp2121
F0.02625
s(g22
g24
g3
g4
g12
g6
g42
tp2122
F0.0
s(g1
g16
g3
g11
g29
g13
g7
tp2123
I0
s(g9
g16
g3
g11
g5
g13
g14
tp2124
F0.00075
s(g9
g2
g10
g4
g5
g13
g25
tp2125
I0
s(g22
g2
g10
g11
g5
g13
g7
tp2126
F0.0
s(g22
g24
g10
g11
g12
g6
g7
tp2127
F0.0
s(g19
g2
g10
g28
g5
g6
g25
tp2128
I0
s(g19
g24
g3
g28
g5
g6
g42
tp2129
I0
s(g1
g2
g3
g4
g5
g6
g17
tp2130
I0
s(g22
g16
g3
g28
g29
g6
g42
tp2131
I0
s(g19
g2
g3
g11
g5
g13
g7
tp2132
I0
s(g1
g16
g10
g11
g29
g6
g7
tp2133
F0.008749999999999999
s(g1
g2
g3
g11
g29
g13
g7
tp2134
I0
s(g22
g24
g3
g28
g12
g6
g25
tp2135
I0
s(g9
g2
g10
g28
g29
g13
g42
tp2136
I0
s(g1
g16
g3
g4
g29
g6
g42
tp2137
F0.00945
s(g9
g24
g3
g11
g5
g6
g14
tp2138
F0.0525
s(g1
g16
g10
g4
g5
g6
g14
tp2139
I0
s(g19
g2
g3
g4
g12
g6
g14
tp2140
I0
s(g22
g24
g3
g11
g12
g13
g14
tp2141
F0.0
s(g19
g24
g3
g28
g12
g13
g25
tp2142
I0
s(g9
g24
g3
g4
g29
g6
g14
tp2143
I0
s(g9
g24
g10
g11
g12
g13
g14
tp2144
F0.0015
s(g1
g16
g3
g4
g5
g6
g17
tp2145
I0
s(g19
g2
g3
g11
g29
g13
g42
tp2146
I0
s(g22
g24
g3
g28
g29
g6
g17
tp2147
I0
s(g9
g24
g3
g28
g12
g13
g7
tp2148
I0
s(g9
g24
g10
g28
g29
g6
g7
tp2149
I0
s(g1
g24
g3
g28
g12
g6
g25
tp2150
I0
s(g9
g24
g10
g28
g5
g6
g25
tp2151
I0
s(g19
g16
g3
g4
g12
g13
g7
tp2152
I0
s(g19
g2
g10
g11
g29
g6
g14
tp2153
F0.0525
s(g9
g24
g3
g11
g29
g6
g42
tp2154
I0
s(g9
g24
g10
g4
g29
g13
g25
tp2155
F0.001125
s(g22
g24
g3
g28
g5
g6
g14
tp2156
I0
s(g19
g2
g3
g28
g12
g13
g17
tp2157
I0
s(g19
g24
g10
g28
g5
g6
g7
tp2158
I0
s(g1
g24
g3
g11
g12
g6
g25
tp2159
I0
s(g22
g16
g10
g11
g12
g13
g25
tp2160
I0
s(g22
g2
g10
g4
g29
g13
g7
tp2161
I0
s(g9
g24
g3
g28
g5
g6
g14
tp2162
I0
s(g19
g24
g3
g11
g5
g13
g14
tp2163
F0.001875
s(g22
g24
g3
g28
g29
g6
g7
tp2164
I0
s(g9
g2
g10
g4
g12
g13
g42
tp2165
F0.00162
s(g9
g16
g10
g4
g5
g13
g25
tp2166
I0
s(g1
g24
g10
g4
g29
g13
g17
tp2167
F0.001875
s(g9
g2
g10
g4
g29
g13
g17
tp2168
F0.00225
s(g1
g24
g3
g11
g29
g13
g7
tp2169
I0
s(g9
g24
g3
g11
g12
g13
g42
tp2170
I0
s(g19
g24
g3
g11
g29
g13
g14
tp2171
F0.001875
s(g19
g2
g3
g28
g12
g13
g42
tp2172
I0
s(g19
g2
g10
g28
g12
g13
g14
tp2173
I0
s(g9
g16
g3
g28
g29
g13
g14
tp2174
I0
s(g1
g2
g10
g4
g29
g13
g7
tp2175
I0
s(g22
g16
g3
g11
g29
g6
g17
tp2176
I0
s(g1
g16
g3
g4
g12
g13
g7
tp2177
I0
s(g9
g2
g3
g11
g12
g6
g17
tp2178
I0
s(g22
g2
g3
g28
g5
g6
g14
tp2179
I0
s(g9
g2
g10
g28
g12
g6
g42
tp2180
I0
s(g22
g24
g3
g4
g5
g13
g17
tp2181
I0
s(g9
g2
g3
g4
g12
g13
g14
tp2182
I0
s.