(dp0
(S'beaver energy zero'
p1
S'marsh energy med'
p2
S'no lumber'
p3
S'at tree'
p4
S'see marsh'
p5
S'none wolf'
p6
tp7
I418
s(g1
g2
g3
S'none tree'
p8
g5
g6
tp9
I424
s(S'beaver energy low'
p10
g2
g3
S'see tree'
p11
S'none marsh'
p12
g6
tp13
I212
s(g1
S'marsh energy low'
p14
g3
g4
S'at marsh'
p15
S'see wolf'
p16
tp17
I379
s(S'beaver energy med'
p18
S'marsh energy high'
p19
g3
g11
g5
g6
tp20
I250
s(g1
g19
S'has lumber'
p21
g11
g5
g16
tp22
I341
s(g18
g19
g21
g11
g12
g6
tp23
I230
s(g18
g2
g21
g11
g15
g6
tp24
I300
s(S'beaver energy high'
p25
g19
g3
g4
g15
g6
tp26
I18
s(g1
g14
g3
g4
g5
g16
tp27
I383
s(g1
g14
g3
g11
g5
g6
tp28
I394
s(g25
g2
g21
g4
g5
g6
tp29
I76
s(g25
g14
g21
g11
g15
g6
tp30
I48
s(g25
g2
g3
g4
g5
g16
tp31
I95
s(g18
g2
g3
g11
g12
g16
tp32
I321
s(g1
g14
g3
g8
g12
g6
tp33
I386
s(g25
g2
g21
g11
g5
g6
tp34
I88
s(g25
g19
g21
g11
g5
g6
tp35
I16
s(g10
g14
g3
g8
g5
g16
tp36
I173
s(g10
g2
g21
g8
g5
g6
tp37
I190
s(g1
g19
g21
g4
g5
g16
tp38
I329
s(g18
g2
g21
g8
g15
g16
tp39
I295
s(g1
g19
g3
g4
g15
g6
tp40
I342
s(g25
g19
g21
g8
g15
g6
tp41
I6
s(g18
g14
g3
g8
g15
g6
tp42
I276
s(g1
g19
g3
g8
g15
g6
tp43
I348
s(g1
g14
g21
g11
g5
g6
tp44
I376
s(g10
g2
g3
g8
g15
g6
tp45
I204
s(g10
g19
g21
g4
g5
g16
tp46
I113
s(g10
g19
g21
g11
g15
g16
tp47
I121
s(g10
g2
g21
g11
g15
g16
tp48
I193
s(g10
g19
g3
g8
g12
g6
tp49
I134
s(g18
g19
g3
g8
g15
g6
tp50
I240
s(g1
g19
g21
g4
g12
g6
tp51
I326
s(g10
g14
g21
g11
g15
g16
tp52
I157
s(g25
g14
g3
g8
g15
g6
tp53
I60
s(g25
g14
g21
g4
g15
g6
tp54
I36
s(g18
g14
g21
g8
g5
g6
tp55
I262
s(g1
g14
g21
g8
g12
g6
tp56
I368
s(g1
g2
g21
g4
g12
g16
tp57
I399
s(g1
g19
g21
g8
g5
g6
tp58
I334
s(g18
g2
g3
g4
g15
g6
tp59
I306
s(g18
g19
g21
g4
g12
g6
tp60
I218
s(g25
g2
g21
g8
g15
g6
tp61
I78
s(g10
g2
g3
g4
g5
g16
tp62
I203
s(g10
g2
g21
g8
g15
g16
tp63
I187
s(g10
g19
g3
g8
g15
g16
tp64
I133
s(g25
g2
g3
g8
g15
g16
tp65
I97
s(g25
g14
g3
g8
g5
g16
tp66
I65
s(g18
g19
g3
g4
g5
g6
tp67
I238
s(g10
g14
g3
g8
g15
g16
tp68
I169
s(g10
g19
g21
g4
g12
g16
tp69
I111
s(g1
g14
g3
g11
g12
g6
tp70
I392
s(g1
g14
g21
g4
g12
g6
tp71
I362
s(g18
g19
g3
g4
g12
g6
tp72
I236
s(g25
g2
g21
g4
g12
g6
tp73
I74
s(g1
g2
g21
g11
g15
g6
tp74
I408
s(g10
g14
g3
g11
g5
g6
tp75
I178
s(g10
g2
g3
g8
g5
g16
tp76
I209
s(g25
g14
g21
g4
g12
g6
tp77
I38
s(g18
g14
g3
g11
g15
g6
tp78
I282
s(g25
g2
g3
g11
g12
g6
tp79
I104
s(g18
g14
g21
g4
g5
g16
tp80
I257
s(g18
g14
g3
g4
g12
g16
tp81
I273
s(g10
g14
g21
g4
g15
g16
tp82
I145
s(g18
g2
g3
g11
g15
g6
tp83
I318
s(g25
g14
g21
g8
g15
g16
tp84
I43
s(g1
g14
g21
g8
g15
g16
tp85
I367
s(g10
g14
g3
g4
g5
g6
tp86
I166
s(g1
g14
g3
g11
g15
g16
tp87
I391
s(g25
g2
g3
g8
g5
g6
tp88
I100
s(g1
g2
g21
g8
g12
g6
tp89
I404
s(g18
g19
g3
g8
g12
g6
tp90
I242
s(g10
g19
g21
g8
g15
g6
tp91
I114
s(g1
g14
g21
g8
g5
g6
tp92
I370
s(g1
g19
g21
g8
g12
g6
tp93
I332
s(g18
g2
g21
g8
g5
g6
tp94
I298
s(g10
g2
g3
g8
g12
g16
tp95
I207
s(g10
g2
g21
g8
g12
g6
tp96
I188
s(g25
g2
g21
g8
g12
g6
tp97
I80
s(g1
g19
g3
g11
g12
g16
tp98
I357
s(g25
g19
g21
g8
g12
g16
tp99
I9
s(g1
g2
g3
g4
g15
g16
tp100
I415
s(g25
g14
g3
g11
g5
g16
tp101
I71
s(g18
g2
g3
g8
g5
g16
tp102
I317
s(g1
g14
g21
g11
g15
g16
tp103
I373
s(g18
g14
g3
g8
g15
g16
tp104
I277
s(g1
g19
g21
g11
g5
g6
tp105
I340
s(g18
g14
g3
g4
g5
g16
tp106
I275
s(g1
g19
g21
g11
g12
g16
tp107
I339
s(g18
g2
g3
g8
g15
g16
tp108
I313
s(g18
g19
g3
g11
g12
g6
tp109
I248
s(g18
g14
g21
g4
g12
g6
tp110
I254
s(g25
g19
g21
g11
g15
g16
tp111
I13
s(g18
g14
g21
g4
g15
g6
tp112
I252
s(g10
g19
g3
g11
g12
g6
tp113
I140
s(g18
g14
g21
g11
g12
g6
tp114
I266
s(g10
g2
g21
g4
g12
g16
tp115
I183
s(g10
g14
g3
g11
g12
g6
tp116
I176
s(g1
g19
g21
g4
g5
g6
tp117
I328
s(g1
g2
g3
g11
g15
g6
tp118
I426
s(g18
g19
g21
g8
g12
g6
tp119
I224
s(g25
g19
g21
g4
g15
g6
tp120
I0
s(g1
g14
g21
g4
g15
g16
tp121
I361
s(g10
g14
g3
g8
g5
g6
tp122
I172
s(g1
g14
g3
g8
g15
g6
tp123
I384
s(g1
g14
g3
g4
g12
g16
tp124
I381
s(g10
g2
g3
g4
g12
g16
tp125
I201
s(g18
g14
g21
g11
g12
g16
tp126
I267
s(g1
g2
g3
g8
g15
g16
tp127
I421
s(g18
g2
g21
g8
g15
g6
tp128
I294
s(g10
g2
g3
g11
g12
g16
tp129
I213
s(g18
g2
g3
g4
g12
g16
tp130
I309
s(g18
g19
g21
g11
g15
g6
tp131
I228
s(g1
g2
g21
g4
g12
g6
tp132
I398
s(g25
g14
g21
g8
g12
g6
tp133
I44
s(g25
g2
g21
g11
g15
g6
tp134
I84
s(g25
g19
g3
g4
g15
g16
tp135
I19
s(g10
g19
g21
g8
g5
g6
tp136
I118
s(g1
g19
g3
g8
g5
g16
tp137
I353
s(g25
g2
g21
g8
g15
g16
tp138
I79
s(g10
g19
g3
g8
g5
g16
tp139
I137
s(g1
g19
g3
g4
g5
g6
tp140
I346
s(g18
g14
g21
g11
g15
g16
tp141
I265
s(g25
g19
g21
g11
g5
g16
tp142
I17
s(g18
g14
g3
g11
g5
g6
tp143
I286
s(g10
g14
g21
g8
g15
g6
tp144
I150
s(g18
g19
g3
g4
g5
g16
tp145
I239
s(g18
g19
g21
g8
g5
g16
tp146
I227
s(g18
g2
g21
g8
g5
g16
tp147
I299
s(g1
g2
g3
g8
g12
g6
tp148
I422
s(g25
g14
g3
g11
g12
g16
tp149
I69
s(g25
g14
g21
g11
g12
g6
tp150
I50
s(g18
g19
g3
g11
g5
g16
tp151
I251
s(g1
g19
g21
g11
g15
g6
tp152
I336
s(g10
g19
g21
g8
g12
g16
tp153
I117
s(g10
g19
g3
g4
g15
g6
tp154
I126
s(g1
g14
g3
g4
g5
g6
tp155
I382
s(g18
g14
g3
g4
g12
g6
tp156
I272
s(g18
g19
g3
g8
g15
g16
tp157
I241
s(g18
g2
g3
g4
g5
g6
tp158
I310
s(g18
g19
g21
g11
g5
g16
tp159
I233
s(g25
g2
g3
g4
g15
g16
tp160
I91
s(g18
g19
g21
g4
g12
g16
tp161
I219
s(g25
g19
g3
g8
g15
g6
tp162
I24
s(g1
g2
g3
g11
g5
g6
tp163
I430
s(g25
g19
g3
g4
g5
g6
tp164
I22
s(g1
g19
g3
g11
g15
g6
tp165
I354
s(g25
g14
g3
g8
g5
g6
tp166
I64
s(g10
g2
g3
g8
g12
g6
tp167
I206
s(g18
g2
g21
g4
g5
g6
tp168
I292
s(g10
g2
g21
g8
g12
g16
tp169
I189
s(g1
g14
g21
g11
g12
g6
tp170
I374
s(g18
g2
g3
g8
g12
g16
tp171
I315
s(g10
g19
g21
g4
g5
g6
tp172
I112
s(g25
g19
g3
g11
g15
g16
tp173
I31
s(g1
g2
g21
g11
g15
g16
tp174
I409
s(g10
g19
g3
g11
g5
g16
tp175
I143
s(g25
g14
g3
g4
g12
g16
tp176
I57
s(g10
g2
g21
g11
g15
g6
tp177
I192
s(g25
g14
g21
g4
g12
g16
tp178
I39
s(g1
g19
g3
g11
g5
g6
tp179
I358
s(g18
g14
g3
g8
g5
g6
tp180
I280
s(g25
g14
g3
g8
g15
g16
tp181
I61
s(g10
g2
g21
g4
g5
g16
tp182
I185
s(g25
g2
g3
g11
g15
g6
tp183
I102
s(g18
g19
g21
g4
g5
g16
tp184
I221
s(g1
g19
g3
g4
g12
g16
tp185
I345
s(g10
g14
g21
g4
g15
g6
tp186
I144
s(g18
g14
g3
g8
g5
g16
tp187
I281
s(g10
g14
g3
g4
g15
g6
tp188
I162
s(g18
g2
g3
g11
g12
g6
tp189
I320
s(g10
g14
g21
g4
g5
g6
tp190
I148
s(g10
g19
g21
g4
g15
g6
tp191
I108
s(g10
g14
g21
g11
g12
g6
tp192
I158
s(g25
g14
g21
g8
g15
g6
tp193
I42
s(g10
g14
g3
g4
g5
g16
tp194
I167
s(g25
g14
g3
g8
g12
g6
tp195
I62
s(g1
g19
g3
g4
g5
g16
tp196
I347
s(g10
g2
g21
g4
g15
g16
tp197
I181
s(g25
g19
g3
g8
g5
g6
tp198
I28
s(g10
g14
g3
g11
g5
g16
tp199
I179
s(g1
g14
g21
g8
g5
g16
tp200
I371
s(g1
g19
g3
g4
g15
g16
tp201
I343
s(g1
g19
g3
g8
g15
g16
tp202
I349
s(g10
g2
g21
g11
g5
g16
tp203
I197
s(g18
g14
g3
g8
g12
g16
tp204
I279
s(g1
g19
g3
g11
g12
g6
tp205
I356
s(g1
g2
g3
g4
g15
g6
tp206
I414
s(g25
g2
g3
g11
g12
g16
tp207
I105
s(g25
g14
g21
g8
g12
g16
tp208
I45
s(g18
g19
g3
g8
g5
g16
tp209
I245
s(g1
g19
g3
g8
g5
g6
tp210
I352
s(g25
g14
g21
g8
g5
g6
tp211
I46
s(g1
g14
g21
g8
g15
g6
tp212
I366
s(g18
g14
g21
g4
g12
g16
tp213
I255
s(g10
g14
g3
g8
g12
g16
tp214
I171
s(g25
g2
g3
g11
g5
g6
tp215
I106
s(g25
g14
g21
g4
g15
g16
tp216
I37
s(g18
g19
g21
g8
g12
g16
tp217
I225
s(g1
g14
g3
g11
g12
g16
tp218
I393
s(g25
g19
g21
g8
g12
g6
tp219
I8
s(g1
g14
g3
g8
g15
g16
tp220
I385
s(g25
g14
g3
g11
g5
g6
tp221
I70
s(g10
g19
g21
g11
g12
g6
tp222
I122
s(g1
g19
g3
g8
g12
g16
tp223
I351
s(g10
g19
g3
g4
g5
g6
tp224
I130
s(g1
g2
g3
g11
g12
g6
tp225
I428
s(g10
g2
g3
g4
g12
g6
tp226
I200
s(g18
g2
g21
g11
g5
g6
tp227
I304
s(g18
g2
g3
g11
g5
g6
tp228
I322
s(g10
g19
g21
g8
g12
g6
tp229
I116
s(g18
g2
g21
g8
g12
g6
tp230
I296
s(g18
g14
g3
g4
g15
g16
tp231
I271
s(g10
g14
g3
g8
g12
g6
tp232
I170
s(g18
g14
g21
g4
g5
g6
tp233
I256
s(g1
g2
g3
g11
g12
g16
tp234
I429
s(g18
g2
g3
g4
g5
g16
tp235
I311
s(g10
g19
g3
g11
g15
g6
tp236
I138
s(g10
g2
g3
g11
g5
g16
tp237
I215
s(g10
g19
g3
g11
g12
g16
tp238
I141
s(g18
g2
g3
g11
g15
g16
tp239
I319
s(g18
g2
g21
g4
g15
g16
tp240
I289
s(g25
g19
g21
g4
g12
g16
tp241
I3
s(g10
g19
g3
g4
g12
g16
tp242
I129
s(g1
g14
g21
g4
g15
g6
tp243
I360
s(g18
g2
g21
g11
g12
g16
tp244
I303
s(g10
g14
g21
g8
g12
g6
tp245
I152
s(g1
g14
g21
g11
g12
g16
tp246
I375
s(g18
g2
g3
g8
g12
g6
tp247
I314
s(g10
g19
g3
g11
g5
g6
tp248
I142
s(g10
g14
g21
g4
g5
g16
tp249
I149
s(g18
g2
g3
g4
g12
g6
tp250
I308
s(g10
g19
g3
g8
g15
g6
tp251
I132
s(g10
g19
g21
g8
g5
g16
tp252
I119
s(g18
g19
g3
g11
g12
g16
tp253
I249
s(g18
g14
g21
g8
g15
g16
tp254
I259
s(g18
g19
g3
g11
g15
g16
tp255
I247
s(g18
g19
g21
g11
g5
g6
tp256
I232
s(g10
g2
g21
g4
g12
g6
tp257
I182
s(g10
g19
g3
g8
g5
g6
tp258
I136
s(g10
g2
g21
g4
g15
g6
tp259
I180
s(g18
g2
g3
g8
g15
g6
tp260
I312
s(g1
g2
g3
g8
g12
g16
tp261
I423
s(g18
g14
g3
g11
g5
g16
tp262
I287
s(g10
g19
g3
g4
g12
g6
tp263
I128
s(g10
g2
g3
g4
g15
g16
tp264
I199
s(g25
g19
g21
g11
g12
g16
tp265
I15
s(g1
g14
g3
g4
g12
g6
tp266
I380
s(g25
g19
g3
g11
g12
g16
tp267
I33
s(g10
g2
g21
g11
g5
g6
tp268
I196
s(g1
g19
g21
g4
g15
g6
tp269
I324
s(g10
g14
g21
g11
g5
g16
tp270
I161
s(g1
g2
g21
g8
g15
g16
tp271
I403
s(g25
g19
g3
g11
g12
g6
tp272
I32
s(g25
g19
g3
g11
g5
g16
tp273
I35
s(g25
g2
g3
g11
g15
g16
tp274
I103
s(g1
g2
g3
g4
g12
g16
tp275
I417
s(g25
g14
g3
g4
g15
g16
tp276
I55
s(g25
g2
g21
g11
g15
g16
tp277
I85
s(g1
g2
g21
g11
g12
g16
tp278
I411
s(g25
g2
g3
g4
g15
g6
tp279
I90
s(g1
g19
g3
g4
g12
g6
tp280
I344
s(g10
g19
g21
g11
g5
g6
tp281
I124
s(g1
g14
g3
g8
g5
g16
tp282
I389
s(g10
g14
g3
g4
g15
g16
tp283
I163
s(g18
g14
g21
g8
g15
g6
tp284
I258
s(g25
g14
g21
g4
g5
g6
tp285
I40
s(g1
g14
g21
g4
g5
g6
tp286
I364
s(g10
g19
g21
g4
g15
g16
tp287
I109
s(g18
g19
g21
g8
g15
g6
tp288
I222
s(g10
g14
g21
g8
g15
g16
tp289
I151
s(g18
g19
g21
g8
g5
g6
tp290
I226
s(g10
g2
g21
g11
g12
g6
tp291
I194
s(g25
g14
g3
g4
g12
g6
tp292
I56
s(g25
g14
g21
g11
g12
g16
tp293
I51
s(g1
g2
g21
g4
g5
g16
tp294
I401
s(g10
g2
g21
g4
g5
g6
tp295
I184
s(g1
g19
g21
g11
g15
g16
tp296
I337
s(g10
g2
g3
g11
g15
g16
tp297
I211
s(g18
g14
g21
g8
g12
g6
tp298
I260
s(g25
g2
g3
g4
g12
g16
tp299
I93
s(g18
g19
g3
g4
g15
g16
tp300
I235
s(g18
g2
g21
g4
g15
g6
tp301
I288
s(g25
g14
g21
g8
g5
g16
tp302
I47
s(g18
g14
g3
g8
g12
g6
tp303
I278
s(g25
g19
g3
g8
g15
g16
tp304
I25
s(g10
g14
g21
g8
g12
g16
tp305
I153
s(g1
g19
g21
g8
g15
g16
tp306
I331
s(g25
g2
g21
g8
g5
g16
tp307
I83
s(g25
g19
g3
g11
g15
g6
tp308
I30
s(g25
g14
g3
g4
g5
g6
tp309
I58
s(g18
g2
g21
g4
g5
g16
tp310
I293
s(g10
g14
g21
g8
g5
g16
tp311
I155
s(g10
g14
g3
g4
g12
g6
tp312
I164
s(g18
g2
g3
g8
g5
g6
tp313
I316
s(g25
g19
g3
g4
g12
g6
tp314
I20
s(g25
g2
g21
g11
g12
g6
tp315
I86
s(g1
g19
g3
g8
g12
g6
tp316
I350
s(g25
g2
g21
g4
g15
g6
tp317
I72
s(g1
g19
g3
g11
g5
g16
tp318
I359
s(g18
g2
g21
g8
g12
g16
tp319
I297
s(g18
g14
g3
g4
g15
g6
tp320
I270
s(g25
g2
g21
g4
g5
g16
tp321
I77
s(g18
g19
g21
g4
g5
g6
tp322
I220
s(g1
g14
g3
g8
g12
g16
tp323
I387
s(g18
g19
g21
g4
g15
g6
tp324
I216
s(g1
g2
g21
g11
g5
g16
tp325
I413
s(g25
g14
g21
g11
g5
g16
tp326
I53
s(g10
g2
g3
g11
g5
g6
tp327
I214
s(g1
g2
g21
g4
g15
g16
tp328
I397
s(g10
g14
g21
g11
g12
g16
tp329
I159
s(g10
g19
g21
g11
g15
g6
tp330
I120
s(g25
g14
g3
g8
g12
g16
tp331
I63
s(g18
g2
g21
g11
g12
g6
tp332
I302
s(g25
g19
g3
g4
g5
g16
tp333
I23
s(g25
g19
g21
g8
g15
g16
tp334
I7
s(g10
g2
g3
g4
g15
g6
tp335
I198
s(g25
g19
g21
g4
g5
g16
tp336
I5
s(g18
g2
g21
g4
g12
g6
tp337
I290
s(g10
g19
g3
g4
g5
g16
tp338
I131
s(g10
g2
g21
g8
g15
g6
tp339
I186
s(g18
g14
g21
g11
g5
g16
tp340
I269
s(g10
g19
g21
g11
g12
g16
tp341
I123
s(g1
g2
g3
g4
g12
g6
tp342
I416
s(g1
g14
g21
g8
g12
g16
tp343
I369
s(g18
g2
g3
g4
g15
g16
tp344
I307
s(g25
g2
g21
g4
g12
g16
tp345
I75
s(g1
g2
g21
g8
g5
g16
tp346
I407
s(g10
g2
g3
g4
g5
g6
tp347
I202
s(g10
g14
g3
g11
g15
g16
tp348
I175
s(g25
g14
g3
g11
g15
g6
tp349
I66
s(g18
g19
g3
g11
g15
g6
tp350
I246
s(g25
g2
g3
g11
g5
g16
tp351
I107
s(g18
g19
g21
g8
g15
g16
tp352
I223
s(g25
g14
g3
g11
g12
g6
tp353
I68
s(g10
g14
g3
g8
g15
g6
tp354
I168
s(g1
g14
g21
g4
g12
g16
tp355
I363
s(g1
g2
g3
g4
g5
g16
tp356
I419
s(g1
g14
g3
g11
g5
g16
tp357
I395
s(g25
g19
g21
g11
g12
g6
tp358
I14
s(g18
g14
g21
g11
g5
g6
tp359
I268
s(g1
g14
g3
g4
g15
g6
tp360
I378
s(g1
g14
g21
g11
g5
g16
tp361
I377
s(g18
g2
g21
g11
g5
g16
tp362
I305
s(g18
g2
g3
g11
g5
g16
tp363
I323
s(g25
g19
g3
g8
g12
g6
tp364
I26
s(g10
g14
g21
g11
g5
g6
tp365
I160
s(g10
g14
g21
g11
g15
g6
tp366
I156
s(g10
g19
g3
g8
g12
g16
tp367
I135
s(g1
g2
g21
g8
g15
g6
tp368
I402
s(g25
g2
g3
g4
g5
g6
tp369
I94
s(g10
g19
g21
g8
g15
g16
tp370
I115
s(g25
g19
g3
g8
g12
g16
tp371
I27
s(g10
g19
g3
g11
g15
g16
tp372
I139
s(g10
g19
g21
g11
g5
g16
tp373
I125
s(g25
g2
g3
g8
g5
g16
tp374
I101
s(g18
g19
g3
g8
g12
g16
tp375
I243
s(g25
g19
g21
g4
g12
g6
tp376
I2
s(g1
g19
g21
g8
g15
g6
tp377
I330
s(g1
g14
g21
g4
g5
g16
tp378
I365
s(g25
g14
g3
g4
g5
g16
tp379
I59
s(g10
g14
g21
g8
g5
g6
tp380
I154
s(g10
g14
g3
g4
g12
g16
tp381
I165
s(g25
g19
g21
g8
g5
g6
tp382
I10
s(g10
g2
g3
g8
g15
g16
tp383
I205
s(g10
g2
g3
g8
g5
g6
tp384
I208
s(g1
g2
g3
g8
g5
g16
tp385
I425
s(g25
g2
g21
g4
g15
g16
tp386
I73
s(g1
g19
g21
g4
g12
g16
tp387
I327
s(g25
g19
g3
g11
g5
g6
tp388
I34
s(g1
g2
g21
g4
g5
g6
tp389
I400
s(g18
g14
g3
g11
g15
g16
tp390
I283
s(g18
g14
g21
g8
g5
g16
tp391
I263
s(g18
g19
g21
g11
g12
g16
tp392
I231
s(g18
g2
g21
g11
g15
g16
tp393
I301
s(g1
g2
g21
g8
g5
g6
tp394
I406
s(g18
g19
g21
g4
g15
g16
tp395
I217
s(g18
g14
g21
g8
g12
g16
tp396
I261
s(g1
g14
g3
g8
g5
g6
tp397
I388
s(g25
g19
g21
g11
g15
g6
tp398
I12
s(g25
g2
g21
g11
g5
g16
tp399
I89
s(g1
g14
g3
g11
g15
g6
tp400
I390
s(g10
g19
g3
g4
g15
g16
tp401
I127
s(g10
g2
g21
g8
g5
g16
tp402
I191
s(g10
g2
g21
g11
g12
g16
tp403
I195
s(g25
g2
g3
g8
g12
g16
tp404
I99
s(g1
g19
g3
g11
g15
g16
tp405
I355
s(g1
g2
g3
g8
g15
g6
tp406
I420
s(g25
g2
g21
g8
g12
g16
tp407
I81
s(g10
g14
g21
g4
g12
g6
tp408
I146
s(g1
g19
g21
g4
g15
g16
tp409
I325
s(g18
g19
g21
g11
g15
g16
tp410
I229
s(g18
g14
g3
g4
g5
g6
tp411
I274
s(g1
g19
g21
g11
g12
g6
tp412
I338
s(g25
g14
g3
g11
g15
g16
tp413
I67
s(g1
g19
g21
g8
g5
g16
tp414
I335
s(g25
g14
g3
g4
g15
g6
tp415
I54
s(g10
g14
g21
g4
g12
g16
tp416
I147
s(g1
g2
g21
g11
g12
g6
tp417
I410
s(g25
g14
g21
g11
g5
g6
tp418
I52
s(g25
g14
g21
g4
g5
g16
tp419
I41
s(g1
g2
g21
g4
g15
g6
tp420
I396
s(g25
g2
g3
g8
g15
g6
tp421
I96
s(g10
g14
g3
g11
g12
g16
tp422
I177
s(g1
g19
g21
g8
g12
g16
tp423
I333
s(g18
g14
g21
g11
g15
g6
tp424
I264
s(g25
g19
g21
g4
g15
g16
tp425
I1
s(g10
g19
g21
g4
g12
g6
tp426
I110
s(g18
g19
g3
g4
g12
g16
tp427
I237
s(g25
g14
g21
g11
g15
g16
tp428
I49
s(g25
g19
g3
g4
g12
g16
tp429
I21
s(g25
g2
g21
g11
g12
g16
tp430
I87
s(g1
g14
g21
g11
g15
g6
tp431
I372
s(g18
g19
g3
g8
g5
g6
tp432
I244
s(g1
g2
g3
g11
g5
g16
tp433
I431
s(g10
g2
g3
g11
g15
g6
tp434
I210
s(g1
g2
g21
g11
g5
g6
tp435
I412
s(g18
g14
g21
g4
g15
g16
tp436
I253
s(g18
g14
g3
g11
g12
g16
tp437
I285
s(g25
g2
g3
g4
g12
g6
tp438
I92
s(g25
g2
g3
g8
g12
g6
tp439
I98
s(g18
g19
g3
g4
g15
g6
tp440
I234
s(g1
g2
g3
g11
g15
g16
tp441
I427
s(g10
g14
g3
g11
g15
g6
tp442
I174
s(g1
g2
g21
g8
g12
g16
tp443
I405
s(g18
g14
g3
g11
g12
g6
tp444
I284
s(g25
g2
g21
g8
g5
g6
tp445
I82
s(g25
g19
g21
g4
g5
g6
tp446
I4
s(g25
g19
g21
g8
g5
g16
tp447
I11
s(g18
g2
g21
g4
g12
g16
tp448
I291
s(g25
g19
g3
g8
g5
g16
tp449
I29
s.