(dp0
(S'beaver energy high'
p1
S'marsh energy high'
p2
S'no lumber'
p3
S'see tree'
p4
S'at marsh'
p5
S'none wolf'
p6
S'pick up lumber'
p7
tp8
I134
s(S'beaver energy med'
p9
g2
S'has lumber'
p10
S'at tree'
p11
S'none marsh'
p12
S'see wolf'
p13
S'eat'
p14
tp15
I966
s(g1
S'marsh energy low'
p16
g3
g11
g12
g13
S'drop lumber'
p17
tp18
I245
s(g9
g2
g10
g4
g5
g6
g14
tp19
I1011
s(S'beaver energy zero'
p20
g16
g3
g4
g12
g13
g14
tp21
I1746
s(g20
S'marsh energy med'
p22
g10
g4
g12
g13
S'move towards marsh'
p23
tp24
I1827
s(g1
g2
g3
S'none tree'
p25
S'see marsh'
p26
g6
g17
tp27
I120
s(g9
g22
g3
g11
g12
g13
g7
tp28
I1369
s(g9
g2
g3
g25
g12
g6
g23
tp29
I1072
s(g20
g16
g10
g25
g5
g13
g14
tp30
I1626
s(g1
g2
g10
g11
g12
g13
g23
tp31
I7
s(g20
g22
g10
g25
g5
g13
g7
tp32
I1789
s(g1
g16
g3
g11
g12
g6
g14
tp33
I241
s(g9
g22
g3
g11
g26
g6
g14
tp34
I1371
s(g9
g16
g10
g4
g5
g6
g23
tp35
I1172
s(S'beaver energy low'
p36
g22
g10
g11
g26
g6
g23
tp37
I812
s(g1
g22
g3
g11
g12
g13
g23
tp38
I407
s(g20
g22
g3
g11
g12
g6
S'move towards tree'
p39
tp40
I1843
s(g9
g2
g10
g11
g26
g13
g7
tp41
I979
s(g20
g16
g10
g4
g12
g13
g39
tp42
I1668
s(g36
g16
g3
g4
g12
g13
g39
tp43
I788
s(g20
g22
g10
g4
g5
g6
g23
tp44
I1812
s(g20
g16
g10
g25
g12
g13
g7
tp45
I1639
s(g36
g16
g3
g11
g26
g13
g14
tp46
I736
s(g20
g22
g3
g11
g26
g6
g14
tp47
I1851
s(g9
g2
g10
g4
g26
g13
g39
tp48
I1038
s(g9
g2
g3
g4
g26
g13
g7
tp49
I1119
s(g1
g22
g10
g25
g12
g6
g14
tp50
I351
s(g1
g2
g10
g4
g12
g6
g39
tp51
I63
s(g1
g16
g3
g11
g12
g6
g7
tp52
I244
s(g36
g2
g10
g25
g26
g6
g7
tp53
I524
s(g1
g22
g10
g11
g12
g13
g7
tp54
I329
s(g1
g2
g10
g4
g12
g6
g7
tp55
I64
s(g36
g16
g10
g25
g12
g13
g23
tp56
I677
s(g1
g2
g3
g11
g26
g6
g14
tp57
I91
s(g9
g2
g10
g25
g5
g13
g14
tp58
I986
s(g1
g16
g3
g11
g12
g6
g23
tp59
I242
s(g9
g22
g10
g4
g5
g13
g39
tp60
I1338
s(g9
g16
g3
g25
g5
g6
g17
tp61
I1220
s(g36
g22
g3
g25
g5
g6
g14
tp62
I901
s(g20
g22
g10
g25
g12
g13
g14
tp63
I1796
s(g20
g22
g10
g4
g5
g13
g7
tp64
I1819
s(g36
g2
g10
g25
g26
g6
g17
tp65
I520
s(g9
g16
g10
g25
g5
g13
g39
tp66
I1148
s(g20
g22
g3
g4
g12
g6
g7
tp67
I1904
s(g20
g2
g3
g25
g12
g6
g17
tp68
I1550
s(g20
g2
g10
g11
g26
g6
g7
tp69
I1454
s(g9
g16
g10
g25
g26
g6
g23
tp70
I1162
s(g36
g16
g10
g4
g12
g13
g14
tp71
I706
s(g9
g22
g10
g25
g5
g6
g17
tp72
I1300
s(g1
g16
g10
g11
g12
g6
g7
tp73
I164
s(g1
g16
g10
g25
g5
g6
g14
tp74
I181
s(g9
g22
g10
g4
g12
g6
g23
tp75
I1342
s(g9
g22
g10
g25
g26
g13
g14
tp76
I1326
s(g1
g22
g10
g25
g26
g6
g17
tp77
I360
s(g20
g16
g10
g25
g26
g6
g17
tp78
I1640
s(g20
g16
g3
g25
g26
g6
g17
tp79
I1720
s(g9
g22
g3
g25
g5
g13
g14
tp80
I1386
s(g1
g22
g3
g11
g12
g13
g7
tp81
I409
s(g9
g22
g3
g11
g26
g13
g39
tp82
I1378
s(g36
g22
g10
g4
g5
g13
g39
tp83
I858
s(g36
g16
g3
g4
g26
g6
g23
tp84
I792
s(g9
g16
g3
g25
g12
g13
g14
tp85
I1236
s(g36
g2
g10
g4
g5
g6
g23
tp86
I532
s(g36
g2
g3
g25
g5
g13
g23
tp87
I587
s(g20
g2
g10
g25
g26
g13
g17
tp88
I1485
s(g1
g22
g10
g4
g26
g13
g14
tp89
I396
s(g20
g22
g10
g4
g12
g6
g23
tp90
I1822
s(g20
g16
g3
g11
g12
g6
g23
tp91
I1682
s(g36
g2
g10
g4
g26
g13
g14
tp92
I556
s(g20
g2
g10
g4
g26
g6
g14
tp93
I1511
s(g1
g22
g3
g25
g5
g6
g39
tp94
I423
s(g9
g2
g3
g4
g12
g13
g39
tp95
I1108
s(g1
g2
g10
g25
g5
g13
g23
tp96
I27
s(g36
g2
g3
g25
g26
g13
g14
tp97
I606
s(g1
g22
g10
g4
g5
g13
g23
tp98
I377
s(g9
g16
g10
g25
g5
g13
g14
tp99
I1146
s(g36
g22
g10
g4
g12
g6
g7
tp100
I864
s(g20
g2
g10
g4
g12
g13
g23
tp101
I1507
s(g1
g22
g10
g4
g5
g6
g17
tp102
I370
s(g36
g2
g3
g11
g26
g6
g7
tp103
I574
s(g1
g2
g3
g4
g5
g13
g7
tp104
I139
s(g1
g2
g3
g4
g26
g6
g39
tp105
I153
s(g20
g2
g3
g11
g12
g13
g17
tp106
I1525
s(g1
g16
g10
g11
g12
g13
g23
tp107
I167
s(g1
g2
g3
g11
g12
g13
g39
tp108
I88
s(g1
g2
g10
g11
g26
g13
g17
tp109
I15
s(g20
g16
g3
g25
g12
g6
g14
tp110
I1711
s(g36
g2
g3
g4
g26
g6
g14
tp111
I631
s(g1
g16
g10
g25
g12
g6
g7
tp112
I194
s(g9
g22
g10
g25
g5
g13
g23
tp113
I1307
s(g36
g2
g3
g4
g12
g6
g17
tp114
I620
s(g9
g16
g10
g25
g12
g13
g14
tp115
I1156
s(g1
g16
g3
g11
g26
g6
g39
tp116
I253
s(g9
g22
g3
g11
g26
g6
g17
tp117
I1370
s(g36
g2
g3
g25
g5
g13
g39
tp118
I588
s(g36
g2
g3
g11
g12
g13
g14
tp119
I566
s(g1
g22
g3
g25
g5
g6
g17
tp120
I420
s(g1
g16
g3
g4
g26
g13
g14
tp121
I316
s(g9
g2
g3
g25
g26
g13
g39
tp122
I1088
s(g9
g22
g10
g11
g26
g13
g23
tp123
I1297
s(g9
g2
g10
g25
g5
g6
g39
tp124
I983
s(g36
g2
g3
g25
g26
g6
g14
tp125
I601
s(g9
g22
g3
g4
g5
g6
g23
tp126
I1412
s(g20
g22
g3
g11
g12
g13
g39
tp127
I1848
s(g1
g16
g10
g25
g5
g6
g17
tp128
I180
s(g20
g22
g3
g4
g26
g6
g14
tp129
I1911
s(g9
g2
g3
g25
g26
g6
g39
tp130
I1083
s(g9
g16
g10
g11
g26
g13
g14
tp131
I1136
s(g20
g2
g3
g11
g12
g6
g23
tp132
I1522
s(g9
g2
g3
g11
g12
g6
g39
tp133
I1043
s(g20
g22
g10
g4
g26
g13
g17
tp134
I1835
s(g36
g2
g10
g25
g12
g13
g17
tp135
I515
s(g20
g2
g10
g25
g26
g13
g39
tp136
I1488
s(g36
g22
g3
g4
g12
g13
g23
tp137
I947
s(g1
g2
g3
g4
g26
g6
g7
tp138
I154
s(g1
g16
g3
g25
g26
g6
g17
tp139
I280
s(g20
g16
g10
g11
g26
g6
g7
tp140
I1614
s(g36
g2
g3
g4
g5
g6
g23
tp141
I612
s(g1
g16
g3
g11
g12
g13
g39
tp142
I248
s(g36
g22
g3
g25
g26
g13
g7
tp143
I929
s(g20
g22
g3
g25
g5
g13
g17
tp144
I1865
s(g20
g16
g3
g4
g26
g13
g7
tp145
I1759
s(g1
g22
g3
g4
g5
g13
g23
tp146
I457
s(g1
g2
g10
g25
g26
g13
g39
tp147
I48
s(g36
g2
g10
g4
g5
g13
g23
tp148
I537
s(g36
g2
g3
g25
g12
g13
g14
tp149
I596
s(g36
g16
g3
g4
g12
g6
g7
tp150
I784
s(g36
g2
g3
g4
g12
g13
g14
tp151
I626
s(g9
g16
g3
g25
g26
g13
g39
tp152
I1248
s(g36
g22
g10
g4
g5
g13
g7
tp153
I859
s(g20
g2
g3
g4
g26
g13
g39
tp154
I1598
s(g20
g2
g3
g25
g12
g13
g14
tp155
I1556
s(g9
g16
g3
g11
g26
g6
g14
tp156
I1211
s(g36
g22
g3
g4
g26
g13
g7
tp157
I959
s(g36
g16
g3
g4
g5
g13
g7
tp158
I779
s(g1
g16
g10
g4
g12
g6
g39
tp159
I223
s(g1
g2
g10
g4
g5
g13
g14
tp160
I56
s(g1
g16
g10
g25
g5
g13
g7
tp161
I189
s(g20
g22
g3
g4
g26
g13
g14
tp162
I1916
s(g9
g16
g3
g11
g12
g6
g7
tp163
I1204
s(g36
g2
g10
g4
g12
g6
g17
tp164
I540
s(g1
g2
g3
g25
g12
g13
g17
tp165
I115
s(g9
g16
g3
g4
g26
g13
g7
tp166
I1279
s(g9
g22
g3
g11
g26
g13
g17
tp167
I1375
s(g20
g22
g3
g11
g26
g13
g23
tp168
I1857
s(g36
g22
g3
g4
g5
g6
g14
tp169
I931
s(g9
g2
g10
g4
g5
g6
g39
tp170
I1013
s(g1
g16
g3
g4
g12
g6
g14
tp171
I301
s(g20
g16
g3
g4
g5
g13
g23
tp172
I1737
s(g9
g16
g10
g4
g26
g13
g39
tp173
I1198
s(g36
g22
g10
g11
g26
g13
g14
tp174
I816
s(g1
g16
g3
g11
g26
g6
g14
tp175
I251
s(g1
g16
g3
g4
g5
g13
g7
tp176
I299
s(g1
g2
g10
g11
g12
g6
g14
tp177
I1
s(g36
g2
g10
g4
g12
g6
g39
tp178
I543
s(g1
g16
g3
g25
g5
g6
g39
tp179
I263
s(g20
g22
g10
g25
g5
g6
g23
tp180
I1782
s(g20
g22
g3
g25
g12
g13
g39
tp181
I1878
s(g36
g22
g10
g4
g12
g13
g39
tp182
I868
s(g9
g2
g10
g4
g12
g6
g23
tp183
I1022
s(g9
g22
g3
g25
g26
g13
g23
tp184
I1407
s(g1
g16
g3
g4
g5
g13
g23
tp185
I297
s(g1
g22
g10
g25
g12
g13
g23
tp186
I357
s(g36
g2
g10
g25
g5
g6
g14
tp187
I501
s(g20
g2
g10
g25
g5
g6
g7
tp188
I1464
s(g1
g16
g3
g11
g26
g13
g39
tp189
I258
s(g20
g16
g10
g4
g26
g6
g7
tp190
I1674
s(g20
g2
g3
g25
g5
g13
g23
tp191
I1547
s(g20
g22
g3
g11
g12
g6
g7
tp192
I1844
s(g1
g22
g10
g11
g26
g6
g39
tp193
I333
s(g9
g16
g3
g25
g26
g6
g17
tp194
I1240
s(g9
g22
g10
g25
g12
g13
g17
tp195
I1315
s(g36
g22
g10
g4
g12
g6
g23
tp196
I862
s(g36
g22
g3
g25
g12
g6
g39
tp197
I913
s(g1
g22
g3
g25
g26
g6
g23
tp198
I442
s(g1
g16
g10
g4
g12
g6
g7
tp199
I224
s(g36
g2
g3
g11
g26
g6
g23
tp200
I572
s(g36
g2
g10
g25
g26
g13
g23
tp201
I527
s(g9
g22
g3
g25
g26
g6
g7
tp202
I1404
s(g9
g22
g10
g25
g5
g13
g7
tp203
I1309
s(g9
g2
g10
g11
g26
g13
g17
tp204
I975
s(g9
g2
g3
g11
g26
g6
g7
tp205
I1054
s(g36
g2
g3
g11
g12
g13
g39
tp206
I568
s(g36
g2
g3
g25
g5
g6
g17
tp207
I580
s(g20
g16
g10
g25
g5
g6
g17
tp208
I1620
s(g1
g22
g3
g25
g26
g13
g14
tp209
I446
s(g1
g16
g3
g25
g5
g13
g23
tp210
I267
s(g20
g22
g3
g25
g12
g6
g23
tp211
I1872
s(g20
g2
g3
g4
g12
g13
g17
tp212
I1585
s(g9
g16
g10
g25
g12
g6
g39
tp213
I1153
s(g20
g2
g3
g4
g26
g6
g7
tp214
I1594
s(g9
g2
g10
g11
g26
g6
g7
tp215
I974
s(g9
g22
g3
g25
g26
g6
g39
tp216
I1403
s(g20
g22
g10
g11
g26
g13
g7
tp217
I1779
s(g9
g2
g10
g25
g26
g13
g7
tp218
I1009
s(g20
g22
g3
g25
g26
g13
g17
tp219
I1885
s(g36
g2
g10
g11
g12
g6
g7
tp220
I484
s(g20
g16
g10
g4
g5
g6
g14
tp221
I1651
s(g36
g22
g10
g25
g26
g13
g23
tp222
I847
s(g9
g22
g10
g4
g12
g6
g7
tp223
I1344
s(g9
g22
g10
g4
g26
g6
g23
tp224
I1352
s(g1
g2
g10
g11
g26
g6
g23
tp225
I12
s(g9
g22
g10
g25
g12
g6
g14
tp226
I1311
s(g9
g16
g3
g25
g12
g13
g17
tp227
I1235
s(g20
g16
g3
g11
g26
g6
g7
tp228
I1694
s(g36
g2
g3
g11
g26
g13
g23
tp229
I577
s(g20
g16
g10
g25
g12
g6
g39
tp230
I1633
s(g1
g2
g10
g4
g12
g13
g7
tp231
I69
s(g36
g22
g10
g11
g12
g13
g14
tp232
I806
s(g9
g2
g10
g25
g12
g13
g14
tp233
I996
s(g36
g22
g10
g11
g12
g6
g39
tp234
I803
s(g9
g2
g10
g4
g5
g13
g39
tp235
I1018
s(g20
g2
g10
g25
g12
g13
g39
tp236
I1478
s(g1
g2
g3
g25
g26
g6
g14
tp237
I121
s(g36
g22
g3
g4
g5
g6
g39
tp238
I933
s(g1
g22
g10
g4
g26
g6
g14
tp239
I391
s(g9
g2
g10
g4
g12
g6
g7
tp240
I1024
s(g9
g16
g3
g4
g26
g6
g7
tp241
I1274
s(g20
g22
g10
g4
g26
g13
g14
tp242
I1836
s(g36
g2
g10
g25
g5
g13
g39
tp243
I508
s(g20
g22
g10
g11
g26
g6
g7
tp244
I1774
s(g9
g2
g3
g25
g26
g13
g14
tp245
I1086
s(g9
g16
g3
g4
g26
g6
g23
tp246
I1272
s(g36
g22
g3
g25
g12
g13
g39
tp247
I918
s(g1
g16
g3
g4
g26
g6
g23
tp248
I312
s(g9
g22
g3
g4
g26
g13
g14
tp249
I1436
s(g1
g16
g3
g4
g5
g6
g7
tp250
I294
s(g1
g2
g3
g25
g26
g13
g17
tp251
I125
s(g9
g16
g3
g25
g5
g13
g7
tp252
I1229
s(g9
g2
g10
g25
g12
g6
g23
tp253
I992
s(g20
g16
g3
g11
g12
g13
g7
tp254
I1689
s(g36
g2
g3
g4
g26
g13
g39
tp255
I638
s(g36
g22
g3
g11
g12
g13
g17
tp256
I885
s(g9
g16
g10
g4
g26
g6
g39
tp257
I1193
s(g1
g16
g10
g25
g12
g13
g17
tp258
I195
s(g20
g22
g3
g25
g12
g13
g17
tp259
I1875
s(g9
g22
g10
g4
g26
g13
g39
tp260
I1358
s(g36
g22
g10
g11
g12
g6
g14
tp261
I801
s(g1
g16
g3
g25
g5
g6
g17
tp262
I260
s(g9
g2
g10
g4
g26
g13
g14
tp263
I1036
s(g20
g22
g10
g25
g5
g13
g14
tp264
I1786
s(g20
g16
g10
g11
g12
g13
g39
tp265
I1608
s(g36
g2
g10
g11
g26
g6
g17
tp266
I490
s(g20
g22
g10
g11
g12
g6
g17
tp267
I1760
s(g36
g22
g10
g25
g26
g13
g7
tp268
I849
s(g1
g2
g3
g11
g12
g6
g7
tp269
I84
s(g9
g16
g3
g4
g5
g13
g7
tp270
I1259
s(g9
g22
g3
g11
g12
g13
g23
tp271
I1367
s(g9
g2
g3
g25
g5
g13
g23
tp272
I1067
s(g1
g2
g10
g4
g26
g13
g23
tp273
I77
s(g20
g16
g3
g4
g12
g6
g14
tp274
I1741
s(g9
g16
g10
g25
g26
g6
g14
tp275
I1161
s(g36
g2
g10
g4
g5
g6
g7
tp276
I534
s(g36
g22
g3
g4
g12
g6
g39
tp277
I943
s(g9
g16
g10
g4
g5
g13
g14
tp278
I1176
s(g20
g22
g3
g25
g5
g13
g39
tp279
I1868
s(g36
g2
g3
g4
g26
g13
g14
tp280
I636
s(g1
g22
g3
g4
g5
g6
g7
tp281
I454
s(g36
g22
g3
g4
g26
g13
g17
tp282
I955
s(g36
g22
g10
g11
g26
g6
g39
tp283
I813
s(g1
g16
g3
g25
g5
g6
g23
tp284
I262
s(g1
g16
g3
g25
g12
g13
g17
tp285
I275
s(g36
g2
g10
g25
g12
g6
g7
tp286
I514
s(g20
g22
g3
g4
g26
g6
g39
tp287
I1913
s(g9
g2
g10
g11
g12
g13
g17
tp288
I965
s(g36
g16
g3
g25
g26
g6
g17
tp289
I760
s(g1
g22
g3
g4
g26
g13
g7
tp290
I479
s(g36
g16
g3
g25
g26
g13
g17
tp291
I765
s(g36
g16
g10
g4
g12
g6
g14
tp292
I701
s(g36
g16
g10
g4
g12
g13
g39
tp293
I708
s(g36
g16
g10
g25
g26
g6
g7
tp294
I684
s(g20
g22
g3
g11
g12
g6
g23
tp295
I1842
s(g1
g22
g3
g25
g26
g6
g7
tp296
I444
s(g20
g16
g3
g25
g26
g13
g23
tp297
I1727
s(g9
g16
g10
g25
g5
g13
g23
tp298
I1147
s(g1
g22
g3
g25
g12
g6
g7
tp299
I434
s(g36
g16
g3
g25
g26
g13
g7
tp300
I769
s(g1
g2
g3
g4
g26
g13
g39
tp301
I158
s(g9
g22
g10
g25
g12
g6
g17
tp302
I1310
s(g36
g16
g3
g4
g12
g13
g23
tp303
I787
s(g9
g2
g3
g11
g12
g13
g23
tp304
I1047
s(g36
g22
g3
g11
g26
g6
g17
tp305
I890
s(g36
g16
g10
g4
g26
g13
g7
tp306
I719
s(g1
g22
g3
g25
g5
g13
g17
tp307
I425
s(g9
g16
g10
g4
g5
g6
g14
tp308
I1171
s(g36
g2
g10
g4
g12
g6
g14
tp309
I541
s(g1
g2
g10
g4
g12
g6
g23
tp310
I62
s(g36
g2
g3
g25
g5
g13
g7
tp311
I589
s(g9
g16
g10
g4
g12
g13
g23
tp312
I1187
s(g9
g22
g3
g4
g12
g13
g39
tp313
I1428
s(g9
g2
g3
g4
g5
g6
g14
tp314
I1091
s(g20
g22
g10
g25
g26
g6
g7
tp315
I1804
s(g36
g2
g10
g4
g26
g6
g7
tp316
I554
s(g36
g2
g3
g25
g12
g6
g14
tp317
I591
s(g36
g22
g3
g4
g5
g13
g39
tp318
I938
s(g1
g2
g3
g11
g26
g13
g17
tp319
I95
s(g20
g2
g3
g4
g5
g13
g39
tp320
I1578
s(g9
g2
g3
g4
g12
g13
g23
tp321
I1107
s(g1
g22
g10
g25
g5
g6
g7
tp322
I344
s(g9
g2
g10
g25
g26
g6
g14
tp323
I1001
s(g20
g2
g3
g4
g26
g6
g39
tp324
I1593
s(g36
g22
g10
g11
g26
g6
g7
tp325
I814
s(g20
g2
g10
g4
g12
g13
g39
tp326
I1508
s(g9
g16
g10
g4
g12
g6
g7
tp327
I1184
s(g1
g22
g10
g11
g26
g13
g7
tp328
I339
s(g20
g16
g3
g25
g5
g13
g14
tp329
I1706
s(g9
g16
g10
g4
g12
g6
g23
tp330
I1182
s(g20
g22
g3
g4
g12
g13
g14
tp331
I1906
s(g9
g22
g10
g25
g5
g13
g39
tp332
I1308
s(g36
g22
g10
g4
g5
g13
g23
tp333
I857
s(g20
g2
g10
g4
g12
g6
g39
tp334
I1503
s(g20
g2
g10
g11
g12
g13
g39
tp335
I1448
s(g20
g16
g3
g4
g12
g6
g39
tp336
I1743
s(g20
g2
g3
g25
g26
g6
g7
tp337
I1564
s(g9
g16
g10
g25
g5
g6
g17
tp338
I1140
s(g36
g16
g10
g4
g5
g13
g7
tp339
I699
s(g20
g16
g10
g25
g26
g6
g7
tp340
I1644
s(g9
g2
g10
g4
g12
g13
g7
tp341
I1029
s(g20
g16
g3
g4
g26
g13
g39
tp342
I1758
s(g1
g22
g10
g4
g5
g13
g39
tp343
I378
s(g36
g2
g10
g4
g26
g6
g39
tp344
I553
s(g1
g22
g10
g11
g12
g6
g17
tp345
I320
s(g9
g22
g3
g25
g12
g6
g7
tp346
I1394
s(g1
g16
g10
g4
g12
g13
g39
tp347
I228
s(g20
g22
g3
g11
g12
g13
g23
tp348
I1847
s(g36
g2
g3
g11
g12
g6
g14
tp349
I561
s(g1
g16
g10
g11
g12
g13
g39
tp350
I168
s(g20
g22
g10
g11
g12
g13
g14
tp351
I1766
s(g36
g16
g10
g4
g26
g13
g23
tp352
I717
s(g1
g2
g10
g4
g5
g13
g17
tp353
I55
s(g9
g22
g3
g25
g5
g6
g17
tp354
I1380
s(g36
g22
g3
g25
g26
g6
g17
tp355
I920
s(g9
g2
g3
g4
g12
g6
g17
tp356
I1100
s(g36
g22
g10
g4
g5
g6
g17
tp357
I850
s(g1
g2
g3
g4
g12
g6
g14
tp358
I141
s(g20
g16
g10
g25
g26
g13
g23
tp359
I1647
s(g9
g22
g10
g11
g26
g13
g7
tp360
I1299
s(g9
g16
g10
g4
g26
g13
g7
tp361
I1199
s(g9
g2
g10
g25
g5
g6
g14
tp362
I981
s(g9
g16
g10
g25
g26
g13
g7
tp363
I1169
s(g20
g16
g10
g4
g12
g6
g17
tp364
I1660
s(g9
g22
g3
g4
g5
g6
g7
tp365
I1414
s(g1
g22
g3
g11
g26
g6
g17
tp366
I410
s(g36
g16
g10
g11
g26
g6
g17
tp367
I650
s(g9
g16
g3
g25
g26
g13
g23
tp368
I1247
s(g9
g2
g10
g4
g26
g6
g7
tp369
I1034
s(g20
g16
g3
g4
g5
g13
g14
tp370
I1736
s(g36
g22
g10
g11
g26
g13
g23
tp371
I817
s(g9
g2
g3
g25
g26
g6
g7
tp372
I1084
s(g1
g22
g3
g4
g5
g6
g23
tp373
I452
s(g20
g22
g10
g25
g26
g13
g39
tp374
I1808
s(g9
g22
g3
g11
g12
g6
g7
tp375
I1364
s(g36
g22
g3
g4
g26
g6
g17
tp376
I950
s(g20
g2
g3
g25
g26
g6
g39
tp377
I1563
s(g36
g22
g10
g4
g26
g13
g7
tp378
I879
s(g9
g22
g10
g11
g12
g13
g23
tp379
I1287
s(g20
g22
g3
g4
g5
g6
g23
tp380
I1892
s(g20
g16
g10
g4
g26
g13
g14
tp381
I1676
s(g20
g16
g3
g25
g5
g6
g14
tp382
I1701
s(g36
g2
g10
g4
g12
g13
g14
tp383
I546
s(g36
g16
g3
g25
g12
g6
g14
tp384
I751
s(g1
g16
g10
g25
g12
g6
g23
tp385
I192
s(g20
g2
g3
g4
g5
g13
g14
tp386
I1576
s(g20
g16
g3
g25
g5
g6
g23
tp387
I1702
s(g36
g22
g10
g25
g26
g6
g23
tp388
I842
s(g1
g22
g3
g11
g12
g6
g14
tp389
I401
s(g20
g22
g10
g25
g5
g13
g17
tp390
I1785
s(g36
g2
g10
g4
g26
g13
g39
tp391
I558
s(g1
g16
g10
g11
g26
g13
g14
tp392
I176
s(g36
g22
g3
g4
g12
g13
g39
tp393
I948
s(g20
g16
g3
g4
g5
g13
g39
tp394
I1738
s(g20
g2
g3
g4
g12
g6
g17
tp395
I1580
s(g20
g2
g3
g11
g26
g6
g23
tp396
I1532
s(g1
g16
g3
g11
g12
g13
g7
tp397
I249
s(g36
g2
g10
g25
g26
g13
g7
tp398
I529
s(g36
g22
g10
g25
g5
g13
g17
tp399
I825
s(g20
g16
g3
g25
g5
g6
g17
tp400
I1700
s(g36
g22
g10
g25
g12
g6
g17
tp401
I830
s(g9
g16
g3
g11
g26
g13
g39
tp402
I1218
s(g9
g2
g10
g11
g12
g6
g23
tp403
I962
s(g36
g2
g3
g25
g5
g6
g7
tp404
I584
s(g36
g22
g3
g25
g12
g6
g14
tp405
I911
s(g36
g2
g10
g11
g12
g13
g14
tp406
I486
s(g20
g22
g10
g11
g26
g13
g23
tp407
I1777
s(g1
g22
g3
g11
g26
g6
g14
tp408
I411
s(g20
g22
g3
g25
g12
g13
g7
tp409
I1879
s(g20
g16
g10
g4
g12
g6
g7
tp410
I1664
s(g9
g16
g10
g11
g26
g13
g23
tp411
I1137
s(g20
g2
g3
g25
g12
g6
g14
tp412
I1551
s(g1
g16
g10
g4
g26
g13
g17
tp413
I235
s(g20
g2
g3
g11
g26
g13
g7
tp414
I1539
s(g1
g22
g3
g25
g26
g6
g39
tp415
I443
s(g20
g2
g10
g25
g12
g13
g7
tp416
I1479
s(g20
g22
g3
g25
g26
g13
g7
tp417
I1889
s(g1
g22
g10
g11
g12
g6
g39
tp418
I323
s(g9
g2
g3
g4
g26
g6
g14
tp419
I1111
s(g9
g22
g3
g25
g5
g13
g17
tp420
I1385
s(g20
g2
g10
g11
g26
g13
g7
tp421
I1459
s(g20
g2
g3
g11
g12
g13
g7
tp422
I1529
s(g1
g22
g3
g4
g26
g6
g17
tp423
I470
s(g9
g16
g3
g4
g5
g6
g7
tp424
I1254
s(g1
g2
g10
g4
g26
g13
g14
tp425
I76
s(g20
g2
g10
g25
g12
g6
g14
tp426
I1471
s(g36
g22
g10
g25
g12
g13
g17
tp427
I835
s(g20
g22
g10
g11
g12
g13
g17
tp428
I1765
s(g36
g22
g3
g11
g12
g6
g23
tp429
I882
s(g1
g16
g10
g11
g26
g6
g17
tp430
I170
s(g1
g22
g10
g11
g26
g13
g17
tp431
I335
s(g9
g16
g3
g4
g26
g13
g17
tp432
I1275
s(g1
g16
g10
g4
g26
g13
g39
tp433
I238
s(g9
g22
g10
g4
g26
g6
g39
tp434
I1353
s(g1
g22
g10
g25
g5
g6
g17
tp435
I340
s(g1
g22
g10
g25
g5
g13
g7
tp436
I349
s(g9
g16
g3
g11
g26
g6
g39
tp437
I1213
s(g36
g22
g10
g11
g12
g6
g23
tp438
I802
s(g36
g22
g3
g4
g12
g6
g14
tp439
I941
s(g36
g16
g3
g11
g12
g13
g39
tp440
I728
s(g1
g2
g10
g25
g12
g6
g39
tp441
I33
s(g9
g2
g3
g11
g26
g13
g17
tp442
I1055
s(g1
g16
g10
g4
g5
g13
g7
tp443
I219
s(g1
g16
g3
g4
g26
g13
g17
tp444
I315
s(g1
g22
g3
g25
g5
g13
g7
tp445
I429
s(g20
g2
g10
g25
g5
g6
g23
tp446
I1462
s(g36
g16
g3
g4
g12
g6
g17
tp447
I780
s(g9
g16
g3
g25
g12
g6
g17
tp448
I1230
s(g1
g2
g10
g11
g26
g6
g39
tp449
I13
s(g9
g2
g10
g4
g5
g6
g23
tp450
I1012
s(g36
g16
g10
g25
g26
g13
g17
tp451
I685
s(g20
g22
g10
g25
g5
g6
g14
tp452
I1781
s(g20
g16
g10
g25
g12
g6
g23
tp453
I1632
s(g9
g2
g3
g25
g12
g6
g14
tp454
I1071
s(g36
g2
g3
g4
g26
g13
g23
tp455
I637
s(g9
g16
g3
g25
g12
g6
g7
tp456
I1234
s(g1
g2
g3
g25
g12
g6
g14
tp457
I111
s(g36
g22
g10
g4
g26
g13
g23
tp458
I877
s(g1
g16
g10
g25
g12
g13
g14
tp459
I196
s(g1
g2
g3
g11
g26
g13
g14
tp460
I96
s(g9
g16
g3
g11
g12
g6
g17
tp461
I1200
s(g9
g22
g10
g4
g26
g13
g7
tp462
I1359
s(g1
g2
g10
g25
g5
g6
g17
tp463
I20
s(g1
g22
g10
g4
g12
g6
g23
tp464
I382
s(g9
g16
g10
g4
g26
g6
g17
tp465
I1190
s(g9
g2
g3
g11
g12
g13
g7
tp466
I1049
s(g1
g22
g10
g25
g12
g6
g39
tp467
I353
s(g1
g2
g3
g4
g12
g6
g39
tp468
I143
s(g9
g22
g3
g11
g26
g6
g23
tp469
I1372
s(g36
g16
g10
g25
g5
g13
g7
tp470
I669
s(g20
g16
g10
g4
g12
g13
g7
tp471
I1669
s(g9
g22
g3
g4
g12
g6
g39
tp472
I1423
s(g9
g2
g3
g25
g5
g13
g39
tp473
I1068
s(g9
g2
g3
g25
g12
g13
g17
tp474
I1075
s(g9
g22
g3
g4
g5
g13
g14
tp475
I1416
s(g20
g22
g3
g11
g26
g6
g23
tp476
I1852
s(g1
g2
g10
g25
g12
g6
g17
tp477
I30
s(g20
g16
g3
g25
g26
g6
g14
tp478
I1721
s(g9
g16
g10
g11
g12
g13
g39
tp479
I1128
s(g20
g2
g10
g25
g5
g13
g23
tp480
I1467
s(g36
g22
g3
g11
g26
g6
g14
tp481
I891
s(g20
g16
g10
g11
g26
g6
g14
tp482
I1611
s(g20
g2
g10
g4
g26
g13
g23
tp483
I1517
s(g20
g16
g3
g4
g12
g13
g23
tp484
I1747
s(g1
g22
g10
g25
g5
g13
g17
tp485
I345
s(g20
g2
g3
g4
g5
g6
g17
tp486
I1570
s(g1
g16
g3
g4
g26
g6
g14
tp487
I311
s(g36
g2
g3
g4
g5
g13
g17
tp488
I615
s(g20
g16
g3
g25
g5
g6
g39
tp489
I1703
s(g20
g22
g3
g4
g26
g6
g23
tp490
I1912
s(g36
g16
g3
g25
g12
g6
g39
tp491
I753
s(g20
g22
g10
g4
g12
g13
g39
tp492
I1828
s(g36
g16
g10
g25
g5
g6
g23
tp493
I662
s(g1
g22
g10
g11
g26
g13
g39
tp494
I338
s(g36
g22
g3
g4
g12
g13
g14
tp495
I946
s(g9
g22
g10
g11
g12
g13
g39
tp496
I1288
s(g36
g16
g10
g4
g12
g13
g23
tp497
I707
s(g9
g2
g3
g25
g26
g6
g23
tp498
I1082
s(g1
g2
g3
g25
g12
g13
g39
tp499
I118
s(g1
g16
g3
g4
g12
g6
g17
tp500
I300
s(g20
g16
g10
g25
g5
g13
g7
tp501
I1629
s(g36
g2
g3
g4
g26
g6
g17
tp502
I630
s(g36
g22
g3
g4
g5
g13
g7
tp503
I939
s(g1
g2
g10
g25
g5
g6
g7
tp504
I24
s(g9
g22
g3
g4
g12
g6
g7
tp505
I1424
s(g36
g22
g3
g25
g26
g6
g14
tp506
I921
s(g36
g16
g3
g25
g12
g13
g23
tp507
I757
s(g20
g2
g10
g25
g12
g6
g7
tp508
I1474
s(g1
g22
g10
g4
g26
g6
g23
tp509
I392
s(g9
g16
g10
g4
g12
g13
g39
tp510
I1188
s(g36
g16
g10
g25
g12
g13
g14
tp511
I676
s(g36
g2
g3
g25
g26
g13
g17
tp512
I605
s(g9
g2
g3
g11
g26
g13
g14
tp513
I1056
s(g20
g22
g3
g4
g12
g13
g23
tp514
I1907
s(g20
g22
g10
g11
g26
g6
g23
tp515
I1772
s(g36
g16
g3
g4
g5
g6
g7
tp516
I774
s(g9
g22
g3
g25
g12
g13
g39
tp517
I1398
s(g20
g2
g10
g25
g12
g6
g23
tp518
I1472
s(g20
g22
g10
g25
g12
g13
g23
tp519
I1797
s(g1
g22
g3
g4
g26
g13
g17
tp520
I475
s(g20
g22
g3
g25
g5
g6
g23
tp521
I1862
s(g20
g22
g3
g4
g12
g13
g39
tp522
I1908
s(g9
g16
g3
g11
g12
g13
g17
tp523
I1205
s(g20
g16
g3
g25
g12
g6
g23
tp524
I1712
s(g1
g22
g3
g4
g12
g6
g17
tp525
I460
s(g20
g16
g10
g25
g5
g6
g14
tp526
I1621
s(g20
g2
g10
g11
g12
g6
g7
tp527
I1444
s(g20
g2
g10
g4
g5
g13
g39
tp528
I1498
s(g1
g2
g3
g4
g5
g13
g17
tp529
I135
s(g9
g2
g3
g4
g26
g13
g14
tp530
I1116
s(g9
g22
g10
g25
g26
g13
g17
tp531
I1325
s(g9
g16
g10
g11
g26
g6
g7
tp532
I1134
s(g20
g22
g10
g25
g26
g6
g17
tp533
I1800
s(g20
g16
g10
g4
g5
g13
g14
tp534
I1656
s(g20
g22
g3
g11
g26
g13
g17
tp535
I1855
s(g9
g22
g10
g11
g12
g6
g23
tp536
I1282
s(g36
g16
g3
g11
g12
g13
g17
tp537
I725
s(g1
g22
g10
g11
g12
g13
g17
tp538
I325
s(g9
g22
g3
g4
g12
g13
g23
tp539
I1427
s(g1
g2
g3
g4
g12
g13
g7
tp540
I149
s(g20
g2
g3
g25
g5
g6
g17
tp541
I1540
s(g1
g2
g10
g25
g26
g13
g7
tp542
I49
s(g36
g16
g3
g25
g5
g6
g17
tp543
I740
s(g1
g2
g3
g4
g5
g13
g39
tp544
I138
s(g9
g16
g3
g11
g12
g13
g14
tp545
I1206
s(g20
g2
g10
g11
g26
g13
g23
tp546
I1457
s(g36
g16
g3
g4
g26
g6
g14
tp547
I791
s(g9
g22
g3
g4
g26
g13
g23
tp548
I1437
s(g20
g22
g10
g4
g26
g6
g23
tp549
I1832
s(g1
g22
g10
g25
g26
g6
g7
tp550
I364
s(g1
g2
g3
g25
g12
g13
g14
tp551
I116
s(g20
g2
g3
g25
g5
g6
g7
tp552
I1544
s(g36
g16
g10
g25
g5
g6
g7
tp553
I664
s(g9
g2
g3
g11
g26
g6
g17
tp554
I1050
s(g9
g2
g3
g4
g12
g13
g7
tp555
I1109
s(g36
g16
g3
g11
g12
g13
g7
tp556
I729
s(g9
g22
g3
g11
g12
g6
g23
tp557
I1362
s(g20
g2
g10
g4
g12
g13
g14
tp558
I1506
s(g9
g22
g10
g25
g26
g6
g17
tp559
I1320
s(g1
g22
g3
g4
g12
g13
g7
tp560
I469
s(g20
g16
g10
g11
g12
g6
g7
tp561
I1604
s(g1
g16
g3
g25
g12
g6
g7
tp562
I274
s(g1
g2
g10
g25
g12
g13
g7
tp563
I39
s(g20
g2
g10
g4
g5
g6
g23
tp564
I1492
s(g1
g22
g10
g4
g12
g6
g7
tp565
I384
s(g1
g16
g10
g4
g5
g6
g17
tp566
I210
s(g1
g22
g10
g11
g26
g6
g17
tp567
I330
s(g36
g22
g10
g4
g26
g6
g17
tp568
I870
s(g20
g2
g10
g11
g12
g13
g23
tp569
I1447
s(g20
g16
g10
g4
g5
g13
g39
tp570
I1658
s(g20
g2
g3
g11
g26
g13
g17
tp571
I1535
s(g9
g16
g10
g25
g5
g13
g7
tp572
I1149
s(g9
g2
g3
g11
g12
g6
g7
tp573
I1044
s(g9
g16
g10
g11
g26
g6
g23
tp574
I1132
s(g36
g22
g3
g25
g5
g6
g23
tp575
I902
s(g9
g16
g10
g11
g12
g13
g17
tp576
I1125
s(g20
g16
g3
g25
g5
g13
g23
tp577
I1707
s(g20
g2
g10
g4
g12
g6
g14
tp578
I1501
s(g9
g22
g10
g4
g5
g13
g7
tp579
I1339
s(g1
g2
g10
g4
g12
g6
g14
tp580
I61
s(g9
g2
g3
g25
g5
g6
g17
tp581
I1060
s(g20
g16
g3
g25
g12
g6
g7
tp582
I1714
s(g9
g2
g3
g4
g5
g13
g23
tp583
I1097
s(g20
g2
g3
g11
g26
g13
g39
tp584
I1538
s(g36
g2
g3
g4
g26
g6
g7
tp585
I634
s(g1
g2
g3
g4
g26
g13
g14
tp586
I156
s(g9
g16
g3
g4
g12
g13
g17
tp587
I1265
s(g20
g16
g10
g25
g26
g13
g39
tp588
I1648
s(g36
g16
g10
g25
g12
g6
g14
tp589
I671
s(g9
g22
g3
g4
g5
g13
g17
tp590
I1415
s(g36
g2
g3
g25
g26
g6
g39
tp591
I603
s(g1
g16
g10
g25
g12
g6
g39
tp592
I193
s(g1
g2
g3
g25
g5
g6
g17
tp593
I100
s(g36
g16
g10
g4
g5
g13
g23
tp594
I697
s(g36
g2
g3
g11
g12
g13
g17
tp595
I565
s(g36
g2
g10
g4
g26
g13
g23
tp596
I557
s(g36
g2
g3
g4
g12
g13
g23
tp597
I627
s(g1
g16
g10
g4
g12
g13
g14
tp598
I226
s(g20
g16
g10
g11
g12
g6
g23
tp599
I1602
s(g20
g16
g10
g25
g12
g13
g17
tp600
I1635
s(g1
g16
g3
g4
g12
g13
g17
tp601
I305
s(g20
g22
g10
g4
g12
g6
g14
tp602
I1821
s(g1
g2
g10
g25
g26
g6
g23
tp603
I42
s(g9
g2
g3
g25
g12
g13
g7
tp604
I1079
s(g20
g2
g3
g11
g12
g6
g14
tp605
I1521
s(g20
g22
g10
g25
g26
g13
g14
tp606
I1806
s(g1
g22
g10
g4
g26
g13
g7
tp607
I399
s(g36
g2
g10
g4
g26
g13
g7
tp608
I559
s(g1
g22
g10
g4
g12
g13
g14
tp609
I386
s(g36
g16
g10
g11
g12
g6
g7
tp610
I644
s(g20
g2
g10
g25
g12
g13
g17
tp611
I1475
s(g20
g2
g10
g4
g26
g6
g39
tp612
I1513
s(g20
g2
g10
g4
g5
g13
g17
tp613
I1495
s(g20
g22
g3
g25
g12
g6
g14
tp614
I1871
s(g20
g16
g10
g11
g26
g13
g17
tp615
I1615
s(g1
g16
g3
g25
g26
g6
g39
tp616
I283
s(g1
g2
g3
g25
g5
g6
g39
tp617
I103
s(g36
g16
g3
g11
g26
g6
g23
tp618
I732
s(g1
g16
g10
g25
g12
g6
g14
tp619
I191
s(g36
g16
g10
g11
g26
g13
g17
tp620
I655
s(g1
g22
g3
g11
g12
g6
g17
tp621
I400
s(g20
g16
g10
g4
g12
g13
g17
tp622
I1665
s(g9
g22
g10
g4
g12
g13
g17
tp623
I1345
s(g36
g16
g10
g11
g26
g13
g7
tp624
I659
s(g9
g16
g3
g11
g26
g13
g23
tp625
I1217
s(g36
g16
g3
g4
g5
g6
g17
tp626
I770
s(g1
g2
g3
g11
g26
g6
g23
tp627
I92
s(g1
g16
g3
g25
g5
g13
g39
tp628
I268
s(g20
g16
g3
g25
g5
g13
g7
tp629
I1709
s(g1
g2
g10
g25
g26
g6
g7
tp630
I44
s(g20
g22
g10
g25
g26
g13
g23
tp631
I1807
s(g20
g22
g3
g25
g12
g6
g39
tp632
I1873
s(g1
g22
g3
g4
g26
g6
g14
tp633
I471
s(g1
g16
g10
g4
g5
g13
g23
tp634
I217
s(g36
g22
g3
g11
g12
g6
g39
tp635
I883
s(g36
g16
g3
g4
g5
g6
g39
tp636
I773
s(g36
g22
g10
g4
g12
g13
g14
tp637
I866
s(g20
g22
g3
g25
g12
g6
g7
tp638
I1874
s(g9
g16
g10
g25
g12
g13
g39
tp639
I1158
s(g1
g2
g3
g11
g12
g13
g17
tp640
I85
s(g20
g2
g10
g4
g5
g6
g7
tp641
I1494
s(g1
g16
g10
g4
g5
g6
g23
tp642
I212
s(g9
g22
g3
g4
g26
g6
g7
tp643
I1434
s(g36
g22
g3
g4
g5
g6
g17
tp644
I930
s(g20
g16
g3
g4
g26
g6
g17
tp645
I1750
s(g36
g16
g3
g4
g12
g13
g14
tp646
I786
s(g1
g22
g3
g11
g12
g13
g17
tp647
I405
s(g36
g22
g10
g25
g26
g6
g14
tp648
I841
s(g20
g22
g10
g25
g26
g6
g23
tp649
I1802
s(g9
g2
g3
g4
g5
g6
g17
tp650
I1090
s(g36
g22
g10
g4
g5
g13
g14
tp651
I856
s(g1
g2
g3
g4
g12
g13
g17
tp652
I145
s(g9
g16
g3
g25
g12
g13
g39
tp653
I1238
s(g20
g22
g3
g25
g26
g6
g14
tp654
I1881
s(g36
g16
g3
g25
g5
g13
g23
tp655
I747
s(g9
g16
g10
g25
g12
g6
g7
tp656
I1154
s(g9
g16
g10
g25
g26
g13
g17
tp657
I1165
s(g1
g2
g10
g4
g5
g6
g7
tp658
I54
s(g1
g16
g10
g25
g26
g6
g14
tp659
I201
s(g36
g22
g10
g25
g12
g13
g7
tp660
I839
s(g9
g16
g10
g4
g26
g13
g17
tp661
I1195
s(g36
g22
g3
g11
g26
g13
g7
tp662
I899
s(g36
g2
g10
g25
g12
g13
g7
tp663
I519
s(g36
g16
g3
g25
g5
g6
g14
tp664
I741
s(g1
g16
g10
g4
g26
g13
g7
tp665
I239
s(g1
g2
g10
g25
g12
g13
g17
tp666
I35
s(g20
g2
g3
g4
g5
g6
g7
tp667
I1574
s(g20
g22
g3
g4
g26
g13
g7
tp668
I1919
s(g1
g22
g3
g11
g26
g13
g39
tp669
I418
s(g36
g16
g10
g25
g5
g13
g17
tp670
I665
s(g1
g2
g3
g25
g26
g13
g7
tp671
I129
s(g1
g2
g3
g4
g5
g6
g14
tp672
I131
s(g20
g22
g3
g4
g12
g6
g23
tp673
I1902
s(g9
g16
g10
g11
g12
g13
g7
tp674
I1129
s(g1
g22
g10
g25
g26
g13
g17
tp675
I365
s(g9
g22
g3
g11
g12
g13
g14
tp676
I1366
s(g36
g16
g10
g25
g5
g13
g39
tp677
I668
s(g36
g22
g3
g11
g26
g6
g39
tp678
I893
s(g1
g2
g3
g4
g12
g6
g23
tp679
I142
s(g1
g22
g10
g11
g12
g6
g7
tp680
I324
s(g9
g16
g10
g4
g5
g13
g17
tp681
I1175
s(g1
g16
g3
g4
g5
g13
g14
tp682
I296
s(g9
g22
g3
g11
g26
g6
g7
tp683
I1374
s(g1
g2
g3
g25
g5
g6
g14
tp684
I101
s(g36
g2
g3
g4
g12
g6
g7
tp685
I624
s(g36
g22
g10
g11
g12
g13
g7
tp686
I809
s(g9
g22
g3
g4
g12
g6
g23
tp687
I1422
s(g1
g22
g3
g25
g12
g6
g39
tp688
I433
s(g1
g2
g10
g11
g12
g13
g7
tp689
I9
s(g1
g22
g3
g4
g12
g13
g17
tp690
I465
s(g1
g22
g10
g4
g26
g6
g7
tp691
I394
s(g20
g22
g3
g11
g12
g6
g14
tp692
I1841
s(g1
g2
g3
g11
g26
g13
g39
tp693
I98
s(g1
g2
g3
g25
g26
g6
g23
tp694
I122
s(g36
g16
g10
g4
g12
g6
g23
tp695
I702
s(g36
g22
g3
g25
g26
g13
g23
tp696
I927
s(g9
g2
g3
g25
g12
g6
g17
tp697
I1070
s(g9
g2
g10
g25
g26
g6
g17
tp698
I1000
s(g20
g16
g3
g25
g12
g13
g39
tp699
I1718
s(g20
g2
g3
g4
g26
g13
g23
tp700
I1597
s(g20
g2
g10
g4
g12
g13
g17
tp701
I1505
s(g36
g16
g3
g25
g12
g6
g23
tp702
I752
s(g9
g2
g10
g25
g26
g13
g23
tp703
I1007
s(g1
g16
g3
g4
g5
g6
g14
tp704
I291
s(g1
g16
g10
g11
g12
g13
g17
tp705
I165
s(g36
g2
g10
g25
g5
g6
g17
tp706
I500
s(g1
g2
g3
g11
g12
g6
g17
tp707
I80
s(g20
g2
g10
g4
g5
g13
g23
tp708
I1497
s(g1
g2
g10
g25
g12
g6
g7
tp709
I34
s(g20
g22
g10
g25
g26
g13
g7
tp710
I1809
s(g1
g16
g10
g11
g26
g13
g23
tp711
I177
s(g20
g2
g10
g11
g26
g6
g14
tp712
I1451
s(g20
g22
g10
g11
g26
g13
g17
tp713
I1775
s(g9
g22
g10
g11
g26
g6
g17
tp714
I1290
s(g1
g16
g3
g25
g12
g6
g39
tp715
I273
s(g9
g2
g3
g4
g12
g6
g23
tp716
I1102
s(g20
g16
g10
g4
g5
g6
g23
tp717
I1652
s(g36
g2
g10
g11
g26
g13
g7
tp718
I499
s(g1
g22
g10
g25
g26
g13
g14
tp719
I366
s(g36
g22
g3
g25
g12
g13
g17
tp720
I915
s(g1
g16
g3
g4
g12
g13
g39
tp721
I308
s(g1
g16
g3
g25
g26
g13
g17
tp722
I285
s(g9
g22
g3
g25
g5
g13
g7
tp723
I1389
s(g36
g22
g10
g11
g12
g13
g17
tp724
I805
s(g9
g2
g3
g25
g5
g6
g14
tp725
I1061
s(g1
g16
g3
g25
g5
g13
g14
tp726
I266
s(g20
g16
g3
g11
g26
g6
g14
tp727
I1691
s(g36
g2
g3
g25
g12
g13
g23
tp728
I597
s(g36
g2
g3
g25
g26
g13
g7
tp729
I609
s(g9
g2
g10
g25
g26
g6
g39
tp730
I1003
s(g36
g2
g3
g4
g26
g13
g7
tp731
I639
s(g20
g22
g10
g4
g26
g13
g23
tp732
I1837
s(g36
g16
g3
g11
g26
g13
g7
tp733
I739
s(g1
g2
g3
g4
g5
g13
g14
tp734
I136
s(g36
g2
g10
g25
g12
g6
g14
tp735
I511
s(g9
g2
g10
g4
g26
g13
g23
tp736
I1037
s(g1
g22
g10
g25
g12
g6
g7
tp737
I354
s(g36
g22
g10
g25
g5
g6
g23
tp738
I822
s(g36
g22
g3
g4
g5
g13
g17
tp739
I935
s(g9
g2
g3
g25
g12
g6
g39
tp740
I1073
s(g1
g2
g3
g25
g5
g13
g39
tp741
I108
s(g1
g16
g3
g11
g12
g6
g39
tp742
I243
s(g20
g22
g3
g4
g26
g13
g17
tp743
I1915
s(g20
g22
g10
g25
g12
g13
g7
tp744
I1799
s(g20
g22
g10
g25
g12
g13
g39
tp745
I1798
s(g9
g22
g3
g4
g26
g13
g39
tp746
I1438
s(g1
g22
g3
g25
g26
g6
g14
tp747
I441
s(g20
g16
g10
g4
g12
g6
g39
tp748
I1663
s(g9
g16
g10
g4
g5
g6
g39
tp749
I1173
s(g20
g16
g3
g4
g5
g6
g7
tp750
I1734
s(g9
g16
g10
g25
g26
g13
g14
tp751
I1166
s(g20
g16
g3
g25
g12
g6
g39
tp752
I1713
s(g36
g22
g3
g11
g12
g6
g14
tp753
I881
s(g20
g22
g3
g11
g12
g13
g17
tp754
I1845
s(g36
g2
g10
g11
g26
g13
g17
tp755
I495
s(g1
g2
g10
g11
g12
g13
g14
tp756
I6
s(g36
g22
g10
g11
g12
g6
g7
tp757
I804
s(g36
g16
g10
g4
g12
g13
g7
tp758
I709
s(g1
g16
g3
g25
g5
g6
g14
tp759
I261
s(g1
g2
g10
g11
g12
g6
g23
tp760
I2
s(g20
g22
g3
g4
g26
g6
g7
tp761
I1914
s(g9
g22
g10
g4
g12
g6
g39
tp762
I1343
s(g9
g16
g3
g4
g12
g13
g14
tp763
I1266
s(g36
g16
g10
g25
g12
g13
g39
tp764
I678
s(g9
g16
g3
g4
g5
g13
g14
tp765
I1256
s(g9
g16
g10
g11
g12
g6
g23
tp766
I1122
s(g36
g2
g10
g4
g26
g6
g17
tp767
I550
s(g9
g22
g10
g25
g5
g13
g17
tp768
I1305
s(g20
g16
g10
g25
g26
g13
g14
tp769
I1646
s(g9
g22
g3
g11
g26
g13
g23
tp770
I1377
s(g9
g16
g10
g11
g12
g6
g7
tp771
I1124
s(g20
g2
g3
g25
g26
g13
g17
tp772
I1565
s(g36
g2
g10
g4
g5
g6
g39
tp773
I533
s(g36
g2
g3
g4
g5
g6
g7
tp774
I614
s(g1
g22
g3
g25
g5
g6
g23
tp775
I422
s(g36
g22
g10
g4
g12
g6
g14
tp776
I861
s(g20
g22
g10
g4
g12
g13
g7
tp777
I1829
s(g9
g22
g10
g4
g12
g13
g14
tp778
I1346
s(g1
g22
g10
g11
g26
g13
g14
tp779
I336
s(g9
g16
g10
g25
g26
g6
g39
tp780
I1163
s(g9
g16
g3
g25
g5
g6
g23
tp781
I1222
s(g36
g2
g3
g25
g12
g13
g7
tp782
I599
s(g36
g2
g3
g4
g12
g13
g7
tp783
I629
s(g9
g22
g3
g4
g5
g6
g17
tp784
I1410
s(g20
g2
g10
g11
g12
g6
g23
tp785
I1442
s(g36
g22
g10
g4
g26
g13
g39
tp786
I878
s(g36
g2
g10
g25
g26
g6
g23
tp787
I522
s(g20
g16
g3
g25
g26
g13
g14
tp788
I1726
s(g20
g2
g3
g4
g5
g13
g7
tp789
I1579
s(g20
g2
g10
g4
g26
g13
g39
tp790
I1518
s(g20
g22
g3
g11
g26
g13
g14
tp791
I1856
s(g1
g22
g10
g4
g12
g13
g23
tp792
I387
s(g9
g16
g10
g25
g26
g6
g17
tp793
I1160
s(g36
g22
g3
g25
g5
g13
g17
tp794
I905
s(g1
g2
g10
g4
g5
g13
g7
tp795
I59
s(g1
g16
g10
g25
g5
g13
g14
tp796
I186
s(g1
g22
g10
g4
g26
g6
g39
tp797
I393
s(g20
g22
g10
g4
g12
g6
g39
tp798
I1823
s(g1
g16
g3
g4
g26
g13
g7
tp799
I319
s(g20
g16
g10
g25
g26
g6
g23
tp800
I1642
s(g9
g22
g10
g4
g12
g6
g17
tp801
I1340
s(g1
g2
g10
g4
g26
g6
g23
tp802
I72
s(g1
g22
g10
g25
g26
g6
g23
tp803
I362
s(g9
g22
g10
g11
g26
g13
g39
tp804
I1298
s(g36
g2
g10
g11
g26
g6
g39
tp805
I493
s(g20
g2
g10
g4
g5
g13
g7
tp806
I1499
s(g36
g16
g3
g4
g26
g6
g17
tp807
I790
s(g36
g16
g10
g25
g5
g13
g23
tp808
I667
s(g9
g16
g10
g25
g5
g6
g39
tp809
I1143
s(g36
g22
g3
g11
g12
g13
g14
tp810
I886
s(g9
g2
g3
g4
g5
g6
g7
tp811
I1094
s(g20
g16
g3
g4
g26
g6
g14
tp812
I1751
s(g1
g2
g10
g25
g26
g6
g39
tp813
I43
s(g1
g22
g10
g4
g5
g13
g17
tp814
I375
s(g1
g22
g10
g25
g5
g13
g14
tp815
I346
s(g1
g16
g10
g25
g26
g13
g17
tp816
I205
s(g1
g16
g3
g11
g26
g6
g23
tp817
I252
s(g36
g22
g3
g25
g26
g13
g14
tp818
I926
s(g20
g16
g3
g4
g26
g13
g14
tp819
I1756
s(g20
g22
g3
g4
g5
g6
g14
tp820
I1891
s(g9
g2
g10
g25
g26
g6
g7
tp821
I1004
s(g36
g22
g10
g4
g26
g13
g17
tp822
I875
s(g20
g2
g3
g25
g12
g6
g7
tp823
I1554
s(g36
g2
g10
g25
g5
g6
g7
tp824
I504
s(g36
g22
g10
g25
g26
g6
g39
tp825
I843
s(g1
g22
g10
g4
g5
g13
g7
tp826
I379
s(g9
g2
g10
g25
g5
g6
g23
tp827
I982
s(g1
g16
g10
g4
g26
g6
g23
tp828
I232
s(g9
g2
g10
g11
g12
g13
g39
tp829
I968
s(g9
g2
g10
g4
g26
g6
g14
tp830
I1031
s(g36
g2
g3
g11
g26
g13
g17
tp831
I575
s(g1
g16
g10
g25
g5
g13
g39
tp832
I188
s(g36
g2
g3
g4
g12
g13
g39
tp833
I628
s(g1
g16
g10
g4
g26
g6
g7
tp834
I234
s(g9
g2
g3
g4
g12
g6
g39
tp835
I1103
s(g1
g16
g3
g25
g5
g13
g17
tp836
I265
s(g1
g2
g10
g4
g12
g13
g39
tp837
I68
s(g36
g22
g3
g4
g26
g13
g14
tp838
I956
s(g20
g2
g3
g11
g12
g6
g39
tp839
I1523
s(g36
g16
g10
g4
g5
g13
g14
tp840
I696
s(g1
g2
g3
g25
g5
g13
g14
tp841
I106
s(g9
g22
g10
g25
g5
g13
g14
tp842
I1306
s(g36
g16
g3
g25
g12
g6
g7
tp843
I754
s(g1
g22
g10
g25
g12
g13
g7
tp844
I359
s(g9
g22
g3
g25
g5
g6
g39
tp845
I1383
s(g9
g2
g10
g4
g12
g6
g17
tp846
I1020
s(g1
g22
g3
g25
g26
g13
g7
tp847
I449
s(g36
g16
g10
g4
g26
g6
g14
tp848
I711
s(g36
g2
g10
g25
g5
g13
g17
tp849
I505
s(g1
g22
g3
g11
g12
g6
g7
tp850
I404
s(g9
g16
g10
g25
g26
g13
g39
tp851
I1168
s(g36
g16
g10
g25
g26
g13
g14
tp852
I686
s(g20
g22
g10
g25
g12
g6
g7
tp853
I1794
s(g9
g2
g3
g25
g5
g13
g14
tp854
I1066
s(g1
g22
g10
g25
g12
g6
g17
tp855
I350
s(g36
g22
g3
g25
g26
g13
g39
tp856
I928
s(g36
g22
g3
g4
g12
g13
g17
tp857
I945
s(g1
g16
g3
g25
g26
g6
g23
tp858
I282
s(g20
g2
g3
g25
g12
g13
g17
tp859
I1555
s(g9
g22
g10
g25
g12
g13
g23
tp860
I1317
s(g20
g2
g3
g11
g26
g6
g7
tp861
I1534
s(g1
g22
g3
g25
g26
g13
g17
tp862
I445
s(g9
g2
g10
g4
g26
g6
g17
tp863
I1030
s(g20
g16
g3
g4
g12
g6
g17
tp864
I1740
s(g1
g22
g3
g25
g26
g6
g17
tp865
I440
s(g36
g2
g10
g25
g26
g13
g17
tp866
I525
s(g36
g2
g3
g11
g26
g6
g14
tp867
I571
s(g1
g2
g10
g4
g5
g6
g17
tp868
I50
s(g36
g2
g10
g4
g5
g13
g17
tp869
I535
s(g9
g2
g10
g4
g12
g6
g39
tp870
I1023
s(g9
g2
g10
g25
g5
g6
g7
tp871
I984
s(g20
g22
g10
g4
g12
g6
g17
tp872
I1820
s(g20
g2
g10
g25
g5
g6
g14
tp873
I1461
s(g1
g16
g3
g11
g26
g13
g23
tp874
I257
s(g20
g16
g10
g4
g12
g6
g14
tp875
I1661
s(g20
g2
g3
g4
g5
g6
g23
tp876
I1572
s(g36
g2
g3
g4
g5
g13
g7
tp877
I619
s(g1
g2
g10
g11
g26
g6
g7
tp878
I14
s(g20
g22
g10
g11
g26
g6
g14
tp879
I1771
s(g9
g22
g3
g11
g12
g6
g14
tp880
I1361
s(g36
g16
g3
g11
g26
g13
g39
tp881
I738
s(g1
g2
g3
g11
g12
g13
g7
tp882
I89
s(g36
g2
g10
g4
g12
g13
g7
tp883
I549
s(g36
g16
g3
g4
g5
g13
g23
tp884
I777
s(g36
g2
g10
g4
g12
g6
g23
tp885
I542
s(g36
g16
g10
g4
g26
g6
g7
tp886
I714
s(g20
g16
g10
g25
g5
g6
g7
tp887
I1624
s(g36
g22
g10
g4
g12
g13
g23
tp888
I867
s(g1
g22
g3
g25
g26
g13
g39
tp889
I448
s(g36
g22
g10
g4
g26
g6
g14
tp890
I871
s(g36
g16
g10
g4
g5
g6
g17
tp891
I690
s(g9
g22
g10
g4
g26
g6
g14
tp892
I1351
s(g36
g16
g3
g11
g12
g6
g14
tp893
I721
s(g1
g2
g3
g4
g26
g6
g23
tp894
I152
s(g9
g2
g3
g4
g26
g6
g17
tp895
I1110
s(g9
g22
g10
g11
g26
g13
g17
tp896
I1295
s(g9
g2
g3
g11
g12
g13
g17
tp897
I1045
s(g36
g22
g3
g11
g26
g6
g23
tp898
I892
s(g9
g22
g3
g25
g26
g6
g23
tp899
I1402
s(g36
g22
g10
g25
g26
g13
g39
tp900
I848
s(g36
g16
g10
g4
g5
g6
g39
tp901
I693
s(g9
g22
g10
g25
g12
g6
g7
tp902
I1314
s(g36
g2
g3
g25
g5
g6
g14
tp903
I581
s(g20
g2
g3
g25
g5
g6
g39
tp904
I1543
s(g1
g2
g3
g25
g26
g13
g23
tp905
I127
s(g1
g22
g3
g11
g26
g13
g23
tp906
I417
s(g1
g22
g10
g11
g26
g6
g7
tp907
I334
s(g9
g16
g10
g4
g5
g13
g7
tp908
I1179
s(g9
g16
g3
g4
g12
g6
g7
tp909
I1264
s(g20
g16
g10
g11
g26
g6
g39
tp910
I1613
s(g1
g22
g3
g25
g12
g13
g7
tp911
I439
s(g20
g22
g10
g25
g26
g6
g39
tp912
I1803
s(g1
g2
g3
g11
g26
g13
g23
tp913
I97
s(g1
g16
g3
g4
g5
g6
g39
tp914
I293
s(g36
g16
g3
g4
g26
g13
g14
tp915
I796
s(g36
g2
g3
g4
g5
g13
g39
tp916
I618
s(g36
g22
g3
g25
g12
g13
g7
tp917
I919
s(g36
g16
g10
g11
g12
g6
g17
tp918
I640
s(g20
g22
g10
g11
g12
g6
g23
tp919
I1762
s(g1
g22
g3
g11
g26
g6
g39
tp920
I413
s(g36
g16
g10
g4
g5
g13
g17
tp921
I695
s(g20
g2
g3
g25
g26
g6
g14
tp922
I1561
s(g1
g2
g3
g25
g12
g6
g7
tp923
I114
s(g9
g16
g3
g4
g26
g6
g39
tp924
I1273
s(g20
g2
g3
g4
g12
g6
g39
tp925
I1583
s(g9
g2
g10
g4
g26
g6
g39
tp926
I1033
s(g36
g16
g10
g25
g12
g13
g7
tp927
I679
s(g36
g22
g3
g11
g26
g13
g17
tp928
I895
s(g1
g16
g10
g11
g12
g13
g7
tp929
I169
s(g36
g16
g10
g11
g12
g13
g23
tp930
I647
s(g36
g16
g10
g4
g26
g13
g14
tp931
I716
s(g36
g16
g10
g11
g12
g13
g7
tp932
I649
s(g20
g16
g3
g4
g26
g13
g17
tp933
I1755
s(g36
g22
g10
g25
g26
g13
g17
tp934
I845
s(g1
g2
g3
g25
g26
g6
g39
tp935
I123
s(g36
g2
g3
g25
g5
g13
g14
tp936
I586
s(g20
g16
g3
g11
g26
g6
g39
tp937
I1693
s(g1
g2
g10
g25
g5
g6
g39
tp938
I23
s(g36
g16
g3
g4
g26
g13
g39
tp939
I798
s(g36
g16
g10
g25
g5
g13
g14
tp940
I666
s(g1
g16
g3
g25
g26
g6
g7
tp941
I284
s(g9
g2
g10
g11
g26
g6
g39
tp942
I973
s(g36
g16
g3
g25
g26
g13
g23
tp943
I767
s(g36
g2
g3
g25
g12
g6
g7
tp944
I594
s(g1
g16
g3
g4
g26
g6
g39
tp945
I313
s(g36
g2
g10
g25
g5
g13
g14
tp946
I506
s(g9
g22
g10
g25
g12
g6
g23
tp947
I1312
s(g36
g16
g3
g11
g26
g6
g14
tp948
I731
s(g1
g2
g10
g25
g26
g13
g14
tp949
I46
s(g9
g22
g10
g4
g5
g13
g17
tp950
I1335
s(g20
g2
g3
g25
g12
g6
g39
tp951
I1553
s(g1
g22
g3
g4
g5
g6
g14
tp952
I451
s(g20
g16
g10
g11
g12
g6
g39
tp953
I1603
s(g36
g2
g3
g11
g12
g6
g17
tp954
I560
s(g9
g16
g3
g4
g12
g6
g23
tp955
I1262
s(g9
g16
g3
g4
g26
g6
g17
tp956
I1270
s(g36
g16
g3
g11
g26
g13
g17
tp957
I735
s(g20
g16
g10
g4
g26
g13
g23
tp958
I1677
s(g36
g16
g3
g11
g12
g6
g17
tp959
I720
s(g36
g22
g3
g4
g12
g13
g7
tp960
I949
s(g9
g22
g10
g25
g26
g13
g39
tp961
I1328
s(g1
g16
g10
g25
g12
g13
g23
tp962
I197
s(g9
g16
g3
g11
g26
g6
g17
tp963
I1210
s(g20
g2
g10
g4
g26
g6
g17
tp964
I1510
s(g20
g22
g10
g4
g5
g6
g14
tp965
I1811
s(g9
g22
g3
g4
g26
g6
g39
tp966
I1433
s(g20
g22
g10
g4
g26
g13
g39
tp967
I1838
s(g9
g2
g10
g11
g26
g13
g23
tp968
I977
s(g9
g2
g3
g11
g12
g13
g39
tp969
I1048
s(g9
g2
g3
g4
g26
g13
g23
tp970
I1117
s(g20
g16
g10
g25
g5
g6
g23
tp971
I1622
s(g20
g22
g3
g4
g5
g6
g17
tp972
I1890
s(g9
g16
g10
g4
g5
g6
g7
tp973
I1174
s(g1
g2
g3
g25
g12
g6
g39
tp974
I113
s(g36
g2
g10
g4
g12
g6
g7
tp975
I544
s(g9
g22
g10
g25
g5
g6
g14
tp976
I1301
s(g36
g16
g10
g4
g26
g6
g23
tp977
I712
s(g9
g22
g3
g4
g12
g13
g14
tp978
I1426
s(g36
g2
g3
g4
g26
g6
g39
tp979
I633
s(g36
g16
g3
g4
g5
g6
g14
tp980
I771
s(g36
g16
g3
g4
g26
g13
g17
tp981
I795
s(g20
g22
g10
g11
g12
g13
g23
tp982
I1767
s(g9
g2
g3
g25
g12
g13
g39
tp983
I1078
s(g20
g16
g3
g11
g12
g13
g23
tp984
I1687
s(g1
g2
g10
g4
g26
g6
g39
tp985
I73
s(g36
g2
g10
g4
g26
g6
g14
tp986
I551
s(g1
g22
g10
g4
g5
g6
g7
tp987
I374
s(g36
g2
g10
g4
g12
g13
g17
tp988
I545
s(g20
g22
g3
g4
g5
g13
g7
tp989
I1899
s(g36
g2
g10
g11
g26
g13
g39
tp990
I498
s(g1
g2
g3
g25
g12
g6
g17
tp991
I110
s(g36
g16
g3
g25
g5
g6
g7
tp992
I744
s(g20
g22
g10
g4
g5
g13
g17
tp993
I1815
s(g36
g16
g10
g11
g26
g13
g39
tp994
I658
s(g20
g16
g3
g25
g26
g13
g39
tp995
I1728
s(g1
g16
g3
g4
g12
g6
g39
tp996
I303
s(g1
g2
g10
g11
g26
g6
g17
tp997
I10
s(g9
g16
g10
g4
g26
g13
g14
tp998
I1196
s(g1
g2
g3
g4
g26
g13
g23
tp999
I157
s(g9
g22
g3
g4
g26
g6
g17
tp1000
I1430
s(g9
g2
g3
g11
g26
g13
g39
tp1001
I1058
s(g9
g16
g10
g4
g12
g6
g14
tp1002
I1181
s(g20
g16
g10
g4
g5
g13
g7
tp1003
I1659
s(g20
g2
g3
g4
g26
g6
g23
tp1004
I1592
s(g36
g2
g3
g25
g26
g6
g17
tp1005
I600
s(g20
g16
g10
g11
g26
g6
g23
tp1006
I1612
s(g20
g22
g3
g11
g12
g6
g17
tp1007
I1840
s(g20
g16
g3
g11
g12
g6
g7
tp1008
I1684
s(g9
g2
g3
g25
g26
g6
g14
tp1009
I1081
s(g36
g16
g3
g4
g26
g6
g7
tp1010
I794
s(g20
g16
g10
g25
g5
g13
g39
tp1011
I1628
s(g36
g16
g3
g4
g12
g13
g17
tp1012
I785
s(g36
g16
g3
g25
g12
g13
g14
tp1013
I756
s(g36
g22
g10
g4
g26
g6
g39
tp1014
I873
s(g1
g16
g10
g11
g12
g6
g17
tp1015
I160
s(g9
g22
g3
g25
g12
g13
g17
tp1016
I1395
s(g36
g22
g3
g25
g26
g6
g23
tp1017
I922
s(g20
g2
g3
g11
g26
g6
g14
tp1018
I1531
s(g20
g16
g10
g4
g26
g6
g23
tp1019
I1672
s(g1
g16
g10
g25
g5
g6
g39
tp1020
I183
s(g36
g22
g3
g25
g5
g13
g14
tp1021
I906
s(g36
g2
g3
g11
g12
g6
g23
tp1022
I562
s(g36
g22
g3
g4
g5
g13
g14
tp1023
I936
s(g20
g16
g10
g25
g26
g6
g39
tp1024
I1643
s(g9
g16
g10
g4
g12
g13
g17
tp1025
I1185
s(g20
g16
g10
g11
g12
g6
g14
tp1026
I1601
s(g9
g16
g3
g25
g5
g6
g14
tp1027
I1221
s(g20
g16
g3
g11
g12
g6
g17
tp1028
I1680
s(g1
g22
g10
g25
g26
g6
g39
tp1029
I363
s(g9
g22
g10
g4
g5
g6
g17
tp1030
I1330
s(g36
g16
g3
g4
g5
g13
g39
tp1031
I778
s(g36
g2
g10
g4
g12
g13
g39
tp1032
I548
s(g36
g16
g10
g11
g26
g6
g23
tp1033
I652
s(g9
g2
g3
g11
g26
g13
g7
tp1034
I1059
s(g1
g22
g10
g4
g12
g6
g14
tp1035
I381
s(g1
g16
g3
g25
g12
g6
g23
tp1036
I272
s(g9
g2
g10
g25
g12
g13
g39
tp1037
I998
s(g20
g22
g10
g4
g5
g13
g39
tp1038
I1818
s(g9
g2
g3
g25
g26
g13
g17
tp1039
I1085
s(g9
g2
g10
g25
g5
g13
g39
tp1040
I988
s(g20
g22
g10
g4
g12
g13
g17
tp1041
I1825
s(g20
g22
g3
g4
g5
g13
g39
tp1042
I1898
s(g36
g2
g3
g11
g12
g6
g7
tp1043
I564
s(g9
g22
g10
g4
g5
g6
g39
tp1044
I1333
s(g1
g16
g10
g25
g26
g13
g14
tp1045
I206
s(g1
g16
g10
g25
g12
g6
g17
tp1046
I190
s(g9
g22
g3
g11
g12
g13
g17
tp1047
I1365
s(g9
g22
g3
g25
g12
g6
g23
tp1048
I1392
s(g1
g2
g10
g11
g26
g13
g7
tp1049
I19
s(g36
g2
g10
g11
g12
g13
g23
tp1050
I487
s(g1
g16
g10
g25
g5
g13
g23
tp1051
I187
s(g1
g16
g10
g4
g12
g13
g23
tp1052
I227
s(g20
g16
g3
g11
g26
g13
g7
tp1053
I1699
s(g36
g2
g3
g11
g12
g6
g39
tp1054
I563
s(g9
g16
g10
g25
g5
g6
g23
tp1055
I1142
s(g36
g22
g10
g25
g5
g6
g39
tp1056
I823
s(g9
g16
g3
g11
g26
g13
g14
tp1057
I1216
s(g20
g22
g3
g25
g5
g13
g14
tp1058
I1866
s(g20
g2
g3
g11
g26
g6
g17
tp1059
I1530
s(g9
g22
g3
g25
g26
g13
g7
tp1060
I1409
s(g20
g2
g10
g25
g12
g13
g14
tp1061
I1476
s(g36
g16
g10
g25
g12
g6
g23
tp1062
I672
s(g36
g16
g10
g25
g5
g6
g14
tp1063
I661
s(g9
g2
g10
g4
g5
g13
g7
tp1064
I1019
s(g36
g2
g10
g4
g5
g13
g7
tp1065
I539
s(g20
g16
g10
g25
g26
g13
g17
tp1066
I1645
s(g36
g22
g10
g25
g12
g6
g14
tp1067
I831
s(g20
g22
g10
g25
g12
g6
g39
tp1068
I1793
s(g20
g2
g3
g4
g26
g13
g17
tp1069
I1595
s(g20
g16
g3
g25
g26
g13
g17
tp1070
I1725
s(g1
g16
g3
g25
g12
g6
g14
tp1071
I271
s(g9
g16
g3
g4
g5
g6
g23
tp1072
I1252
s(g1
g22
g3
g25
g12
g13
g17
tp1073
I435
s(g20
g2
g10
g11
g12
g13
g14
tp1074
I1446
s(g36
g2
g3
g25
g5
g13
g17
tp1075
I585
s(g36
g16
g3
g25
g26
g6
g14
tp1076
I761
s(g9
g16
g3
g25
g5
g13
g23
tp1077
I1227
s(g20
g2
g3
g25
g5
g13
g7
tp1078
I1549
s(g9
g2
g3
g11
g26
g6
g39
tp1079
I1053
s(g9
g2
g3
g4
g12
g6
g7
tp1080
I1104
s(g9
g16
g3
g11
g12
g6
g23
tp1081
I1202
s(g1
g2
g3
g11
g12
g6
g39
tp1082
I83
s(g20
g2
g10
g4
g12
g6
g23
tp1083
I1502
s(g9
g22
g10
g4
g12
g13
g39
tp1084
I1348
s(g9
g22
g3
g4
g5
g13
g39
tp1085
I1418
s(g20
g22
g3
g25
g26
g6
g23
tp1086
I1882
s(g1
g2
g10
g25
g5
g13
g14
tp1087
I26
s(g20
g22
g3
g4
g5
g6
g39
tp1088
I1893
s(g9
g16
g3
g25
g26
g6
g39
tp1089
I1243
s(g1
g16
g10
g11
g12
g6
g39
tp1090
I163
s(g9
g16
g3
g25
g26
g13
g17
tp1091
I1245
s(g1
g16
g10
g25
g26
g6
g23
tp1092
I202
s(g1
g16
g3
g25
g26
g13
g14
tp1093
I286
s(g1
g2
g10
g25
g26
g13
g17
tp1094
I45
s(g1
g2
g3
g4
g12
g13
g39
tp1095
I148
s(g36
g22
g3
g4
g12
g6
g23
tp1096
I942
s(g1
g16
g10
g4
g5
g13
g14
tp1097
I216
s(g1
g16
g3
g25
g12
g13
g14
tp1098
I276
s(g1
g2
g10
g4
g26
g6
g14
tp1099
I71
s(g9
g22
g10
g11
g12
g6
g14
tp1100
I1281
s(g36
g2
g3
g11
g26
g13
g7
tp1101
I579
s(g36
g16
g10
g25
g12
g6
g7
tp1102
I674
s(g9
g16
g3
g4
g26
g13
g23
tp1103
I1277
s(g9
g2
g10
g25
g26
g13
g14
tp1104
I1006
s(g20
g2
g3
g11
g26
g13
g14
tp1105
I1536
s(g9
g16
g10
g25
g5
g6
g7
tp1106
I1144
s(g1
g22
g3
g4
g5
g13
g7
tp1107
I459
s(g9
g2
g3
g4
g5
g6
g39
tp1108
I1093
s(g1
g22
g10
g25
g5
g6
g23
tp1109
I342
s(g20
g16
g3
g4
g26
g13
g23
tp1110
I1757
s(g36
g2
g3
g25
g12
g6
g17
tp1111
I590
s(g36
g2
g10
g11
g12
g6
g23
tp1112
I482
s(g20
g16
g3
g11
g26
g13
g23
tp1113
I1697
s(g36
g22
g10
g25
g26
g6
g17
tp1114
I840
s(g9
g16
g10
g25
g12
g13
g17
tp1115
I1155
s(g36
g22
g10
g11
g12
g13
g39
tp1116
I808
s(g20
g2
g3
g11
g12
g13
g14
tp1117
I1526
s(g1
g16
g3
g25
g5
g6
g7
tp1118
I264
s(g20
g16
g10
g25
g12
g6
g14
tp1119
I1631
s(g1
g22
g3
g4
g26
g6
g7
tp1120
I474
s(g36
g2
g10
g25
g12
g6
g23
tp1121
I512
s(g9
g16
g3
g4
g5
g13
g23
tp1122
I1257
s(g20
g22
g10
g4
g12
g6
g7
tp1123
I1824
s(g36
g16
g10
g4
g5
g6
g14
tp1124
I691
s(g36
g2
g3
g25
g5
g6
g39
tp1125
I583
s(g9
g22
g10
g11
g26
g6
g39
tp1126
I1293
s(g36
g16
g3
g4
g12
g6
g23
tp1127
I782
s(g36
g22
g10
g4
g5
g6
g14
tp1128
I851
s(g9
g22
g3
g4
g5
g13
g7
tp1129
I1419
s(g1
g16
g10
g11
g12
g13
g14
tp1130
I166
s(g9
g16
g3
g25
g12
g6
g23
tp1131
I1232
s(g36
g22
g10
g25
g5
g13
g14
tp1132
I826
s(g1
g2
g3
g25
g26
g13
g39
tp1133
I128
s(g20
g22
g3
g4
g26
g13
g39
tp1134
I1918
s(g9
g2
g10
g11
g12
g6
g7
tp1135
I964
s(g36
g22
g3
g4
g12
g6
g7
tp1136
I944
s(g9
g2
g10
g25
g12
g6
g7
tp1137
I994
s(g9
g16
g3
g11
g12
g13
g23
tp1138
I1207
s(g1
g16
g3
g4
g26
g6
g7
tp1139
I314
s(g1
g16
g3
g4
g5
g6
g23
tp1140
I292
s(g36
g2
g3
g25
g12
g6
g39
tp1141
I593
s(g1
g16
g3
g11
g12
g6
g17
tp1142
I240
s(g20
g2
g10
g11
g26
g6
g23
tp1143
I1452
s(g1
g22
g3
g11
g26
g6
g23
tp1144
I412
s(g1
g22
g3
g25
g12
g6
g17
tp1145
I430
s(g9
g22
g10
g11
g26
g6
g14
tp1146
I1291
s(g36
g22
g10
g11
g26
g13
g17
tp1147
I815
s(g36
g2
g10
g11
g26
g13
g14
tp1148
I496
s(g1
g22
g3
g4
g26
g6
g23
tp1149
I472
s(g20
g2
g3
g25
g5
g6
g23
tp1150
I1542
s(g20
g22
g3
g25
g12
g6
g17
tp1151
I1870
s(g1
g2
g10
g25
g5
g6
g14
tp1152
I21
s(g36
g16
g10
g11
g12
g13
g39
tp1153
I648
s(g1
g2
g10
g4
g12
g13
g23
tp1154
I67
s(g1
g22
g10
g25
g5
g13
g23
tp1155
I347
s(g36
g16
g3
g11
g26
g6
g39
tp1156
I733
s(g36
g22
g10
g4
g12
g13
g7
tp1157
I869
s(g20
g16
g3
g11
g26
g6
g23
tp1158
I1692
s(g20
g2
g3
g4
g12
g6
g7
tp1159
I1584
s(g36
g2
g3
g4
g5
g13
g23
tp1160
I617
s(g20
g16
g3
g25
g26
g6
g23
tp1161
I1722
s(g9
g16
g10
g25
g12
g6
g17
tp1162
I1150
s(g20
g22
g10
g25
g5
g13
g23
tp1163
I1787
s(g9
g2
g10
g4
g12
g13
g23
tp1164
I1027
s(g36
g16
g10
g25
g5
g6
g17
tp1165
I660
s(g1
g2
g10
g4
g26
g6
g17
tp1166
I70
s(g20
g16
g3
g25
g12
g13
g23
tp1167
I1717
s(g36
g16
g3
g25
g26
g13
g39
tp1168
I768
s(g36
g22
g3
g25
g12
g6
g17
tp1169
I910
s(g20
g2
g3
g4
g12
g6
g23
tp1170
I1582
s(g1
g16
g10
g4
g5
g6
g39
tp1171
I213
s(g20
g2
g3
g11
g12
g13
g39
tp1172
I1528
s(g20
g16
g3
g25
g26
g6
g7
tp1173
I1724
s(g36
g22
g3
g4
g26
g6
g7
tp1174
I954
s(g9
g16
g10
g4
g5
g6
g17
tp1175
I1170
s(g9
g2
g10
g4
g5
g13
g17
tp1176
I1015
s(g1
g22
g10
g4
g26
g6
g17
tp1177
I390
s(g20
g16
g3
g4
g12
g13
g39
tp1178
I1748
s(g1
g22
g3
g11
g12
g6
g39
tp1179
I403
s(g1
g2
g10
g11
g26
g13
g23
tp1180
I17
s(g1
g22
g10
g4
g12
g6
g39
tp1181
I383
s(g20
g2
g10
g4
g26
g13
g17
tp1182
I1515
s(g1
g2
g3
g4
g5
g6
g23
tp1183
I132
s(g1
g16
g10
g25
g26
g6
g7
tp1184
I204
s(g9
g2
g3
g4
g5
g13
g7
tp1185
I1099
s(g1
g16
g3
g25
g12
g13
g23
tp1186
I277
s(g9
g16
g3
g11
g12
g13
g7
tp1187
I1209
s(g20
g2
g10
g25
g26
g6
g7
tp1188
I1484
s(g36
g22
g3
g4
g26
g13
g39
tp1189
I958
s(g20
g2
g10
g25
g26
g6
g23
tp1190
I1482
s(g9
g16
g10
g11
g26
g13
g17
tp1191
I1135
s(g9
g22
g3
g4
g12
g6
g14
tp1192
I1421
s(g1
g2
g10
g25
g12
g6
g14
tp1193
I31
s(g20
g22
g10
g25
g26
g6
g14
tp1194
I1801
s(g1
g22
g3
g4
g12
g13
g39
tp1195
I468
s(g1
g22
g3
g11
g26
g13
g14
tp1196
I416
s(g1
g22
g3
g11
g12
g13
g39
tp1197
I408
s(g36
g16
g3
g11
g12
g13
g14
tp1198
I726
s(g9
g16
g3
g25
g26
g13
g7
tp1199
I1249
s(g9
g16
g10
g11
g12
g13
g14
tp1200
I1126
s(g9
g2
g10
g25
g12
g13
g7
tp1201
I999
s(g36
g22
g3
g25
g26
g6
g7
tp1202
I924
s(g1
g16
g10
g4
g12
g6
g23
tp1203
I222
s(g9
g16
g3
g4
g12
g6
g14
tp1204
I1261
s(g9
g2
g10
g11
g12
g13
g7
tp1205
I969
s(g9
g22
g3
g11
g26
g13
g14
tp1206
I1376
s(g36
g16
g10
g4
g26
g6
g39
tp1207
I713
s(g20
g22
g10
g11
g12
g6
g14
tp1208
I1761
s(g20
g2
g3
g4
g26
g13
g14
tp1209
I1596
s(g20
g16
g10
g11
g12
g13
g17
tp1210
I1605
s(g20
g2
g3
g4
g12
g13
g14
tp1211
I1586
s(g1
g16
g3
g25
g5
g13
g7
tp1212
I269
s(g36
g22
g3
g11
g12
g6
g17
tp1213
I880
s(g36
g2
g3
g4
g5
g6
g39
tp1214
I613
s(g20
g16
g3
g11
g12
g13
g39
tp1215
I1688
s(g1
g16
g10
g25
g12
g13
g39
tp1216
I198
s(g1
g22
g10
g11
g26
g13
g23
tp1217
I337
s(g1
g22
g10
g4
g26
g13
g23
tp1218
I397
s(g36
g16
g10
g11
g26
g6
g14
tp1219
I651
s(g1
g16
g10
g4
g5
g6
g7
tp1220
I214
s(g20
g22
g3
g11
g12
g13
g7
tp1221
I1849
s(g20
g2
g10
g11
g12
g6
g14
tp1222
I1441
s(g20
g2
g3
g25
g26
g6
g17
tp1223
I1560
s(g20
g22
g10
g4
g5
g6
g39
tp1224
I1813
s(g9
g22
g10
g25
g26
g6
g14
tp1225
I1321
s(g9
g16
g10
g11
g26
g6
g14
tp1226
I1131
s(g9
g2
g3
g4
g26
g13
g39
tp1227
I1118
s(g20
g16
g10
g25
g12
g13
g14
tp1228
I1636
s(g36
g2
g10
g11
g26
g6
g7
tp1229
I494
s(g36
g22
g10
g11
g12
g6
g17
tp1230
I800
s(g1
g2
g3
g4
g26
g13
g7
tp1231
I159
s(g9
g22
g10
g25
g12
g13
g14
tp1232
I1316
s(g20
g16
g3
g4
g26
g6
g7
tp1233
I1754
s(g36
g2
g3
g4
g26
g6
g23
tp1234
I632
s(g20
g22
g10
g25
g12
g6
g23
tp1235
I1792
s(g1
g22
g10
g4
g5
g6
g23
tp1236
I372
s(g36
g22
g10
g4
g26
g6
g23
tp1237
I872
s(g1
g22
g10
g25
g26
g6
g14
tp1238
I361
s(g20
g16
g10
g11
g12
g6
g17
tp1239
I1600
s(g36
g22
g3
g25
g5
g6
g7
tp1240
I904
s(g36
g16
g10
g11
g26
g13
g23
tp1241
I657
s(g1
g22
g3
g25
g5
g6
g14
tp1242
I421
s(g20
g2
g3
g4
g12
g13
g39
tp1243
I1588
s(g1
g16
g3
g25
g26
g13
g39
tp1244
I288
s(g20
g22
g10
g4
g5
g6
g7
tp1245
I1814
s(g20
g22
g10
g11
g26
g6
g17
tp1246
I1770
s(g20
g16
g10
g4
g12
g6
g23
tp1247
I1662
s(g1
g2
g10
g25
g12
g13
g14
tp1248
I36
s(g9
g2
g3
g25
g5
g6
g23
tp1249
I1062
s(g1
g22
g3
g4
g26
g13
g23
tp1250
I477
s(g9
g16
g3
g4
g12
g13
g7
tp1251
I1269
s(g20
g16
g3
g4
g5
g13
g17
tp1252
I1735
s(g1
g16
g10
g25
g5
g6
g7
tp1253
I184
s(g9
g2
g3
g25
g12
g13
g14
tp1254
I1076
s(g9
g16
g3
g4
g12
g13
g23
tp1255
I1267
s(g20
g2
g3
g11
g12
g6
g7
tp1256
I1524
s(g36
g16
g10
g25
g12
g13
g17
tp1257
I675
s(g1
g2
g3
g4
g5
g13
g23
tp1258
I137
s(g36
g2
g3
g4
g5
g6
g14
tp1259
I611
s(g36
g16
g3
g4
g26
g6
g39
tp1260
I793
s(g1
g22
g3
g11
g12
g13
g14
tp1261
I406
s(g20
g22
g10
g25
g5
g6
g17
tp1262
I1780
s(g36
g16
g10
g11
g12
g6
g14
tp1263
I641
s(g9
g16
g3
g25
g12
g13
g7
tp1264
I1239
s(g1
g16
g10
g25
g5
g6
g23
tp1265
I182
s(g9
g2
g10
g11
g26
g13
g14
tp1266
I976
s(g9
g22
g3
g11
g12
g6
g39
tp1267
I1363
s(g20
g2
g3
g11
g12
g6
g17
tp1268
I1520
s(g20
g16
g10
g4
g12
g13
g14
tp1269
I1666
s(g36
g16
g3
g25
g5
g6
g23
tp1270
I742
s(g36
g22
g3
g4
g26
g6
g39
tp1271
I953
s(g9
g2
g10
g25
g12
g13
g17
tp1272
I995
s(g9
g22
g10
g4
g5
g13
g14
tp1273
I1336
s(g9
g22
g10
g25
g5
g6
g23
tp1274
I1302
s(g36
g2
g3
g4
g12
g13
g17
tp1275
I625
s(g9
g22
g3
g4
g26
g13
g17
tp1276
I1435
s(g20
g16
g3
g4
g26
g6
g23
tp1277
I1752
s(g9
g22
g3
g4
g5
g6
g39
tp1278
I1413
s(g20
g16
g3
g25
g26
g13
g7
tp1279
I1729
s(g20
g2
g10
g25
g26
g13
g7
tp1280
I1489
s(g20
g2
g10
g4
g5
g6
g39
tp1281
I1493
s(g9
g2
g10
g25
g12
g13
g23
tp1282
I997
s(g1
g22
g10
g11
g12
g13
g14
tp1283
I326
s(g20
g2
g10
g25
g26
g6
g14
tp1284
I1481
s(g36
g2
g3
g11
g26
g6
g17
tp1285
I570
s(g9
g2
g3
g11
g12
g6
g23
tp1286
I1042
s(g20
g22
g3
g4
g5
g13
g23
tp1287
I1897
s(g20
g2
g10
g25
g5
g13
g7
tp1288
I1469
s(g36
g2
g10
g4
g5
g6
g17
tp1289
I530
s(g1
g16
g3
g11
g12
g13
g23
tp1290
I247
s(g1
g2
g10
g25
g26
g6
g14
tp1291
I41
s(g1
g22
g3
g4
g5
g13
g39
tp1292
I458
s(g1
g2
g10
g11
g12
g13
g17
tp1293
I5
s(g1
g16
g10
g4
g12
g13
g7
tp1294
I229
s(g36
g22
g3
g11
g12
g13
g7
tp1295
I889
s(g1
g16
g10
g11
g12
g6
g14
tp1296
I161
s(g20
g22
g3
g25
g26
g13
g23
tp1297
I1887
s(g20
g2
g3
g11
g26
g13
g23
tp1298
I1537
s(g20
g16
g10
g25
g5
g13
g17
tp1299
I1625
s(g9
g16
g3
g25
g5
g13
g39
tp1300
I1228
s(g20
g2
g10
g4
g5
g6
g14
tp1301
I1491
s(g9
g16
g3
g11
g12
g6
g39
tp1302
I1203
s(g1
g22
g3
g4
g12
g6
g14
tp1303
I461
s(g9
g16
g10
g11
g26
g13
g7
tp1304
I1139
s(g20
g22
g3
g4
g5
g6
g7
tp1305
I1894
s(g9
g22
g10
g4
g12
g13
g23
tp1306
I1347
s(g20
g22
g3
g4
g12
g13
g17
tp1307
I1905
s(g1
g2
g3
g25
g12
g13
g23
tp1308
I117
s(g36
g2
g3
g4
g12
g6
g23
tp1309
I622
s(g1
g2
g3
g4
g26
g6
g14
tp1310
I151
s(g20
g22
g10
g4
g12
g13
g14
tp1311
I1826
s(g20
g22
g10
g25
g12
g13
g17
tp1312
I1795
s(g9
g2
g3
g25
g26
g6
g17
tp1313
I1080
s(g1
g22
g10
g4
g5
g13
g14
tp1314
I376
s(g36
g16
g10
g25
g26
g6
g23
tp1315
I682
s(g20
g16
g3
g25
g12
g6
g17
tp1316
I1710
s(g36
g22
g3
g11
g26
g13
g39
tp1317
I898
s(g36
g22
g3
g25
g5
g13
g39
tp1318
I908
s(g20
g16
g10
g11
g12
g13
g14
tp1319
I1606
s(g36
g16
g3
g4
g12
g6
g14
tp1320
I781
s(g1
g2
g10
g4
g5
g6
g14
tp1321
I51
s(g1
g22
g10
g25
g12
g13
g17
tp1322
I355
s(g1
g2
g3
g25
g5
g6
g7
tp1323
I104
s(g20
g2
g3
g4
g5
g6
g39
tp1324
I1573
s(g1
g2
g10
g25
g5
g13
g17
tp1325
I25
s(g1
g16
g10
g4
g26
g13
g14
tp1326
I236
s(g1
g22
g10
g25
g5
g6
g39
tp1327
I343
s(g36
g2
g10
g25
g12
g13
g23
tp1328
I517
s(g20
g2
g3
g4
g26
g13
g7
tp1329
I1599
s(g20
g22
g3
g25
g26
g6
g39
tp1330
I1883
s(g36
g22
g3
g11
g12
g13
g23
tp1331
I887
s(g9
g16
g3
g25
g26
g6
g23
tp1332
I1242
s(g36
g2
g3
g4
g5
g6
g17
tp1333
I610
s(g20
g22
g10
g4
g26
g6
g17
tp1334
I1830
s(g20
g22
g3
g25
g12
g13
g23
tp1335
I1877
s(g36
g22
g10
g4
g5
g6
g39
tp1336
I853
s(g1
g2
g3
g11
g26
g6
g39
tp1337
I93
s(g20
g2
g3
g25
g26
g13
g7
tp1338
I1569
s(g9
g2
g3
g25
g5
g13
g7
tp1339
I1069
s(g9
g22
g3
g25
g26
g13
g39
tp1340
I1408
s(g1
g16
g3
g25
g12
g6
g17
tp1341
I270
s(g36
g16
g3
g25
g5
g13
g7
tp1342
I749
s(g1
g22
g3
g4
g5
g13
g17
tp1343
I455
s(g1
g2
g3
g4
g12
g13
g23
tp1344
I147
s(g1
g16
g10
g11
g26
g13
g17
tp1345
I175
s(g1
g16
g3
g11
g26
g13
g14
tp1346
I256
s(g1
g16
g10
g25
g26
g13
g39
tp1347
I208
s(g1
g2
g3
g4
g12
g6
g7
tp1348
I144
s(g36
g16
g3
g25
g5
g13
g17
tp1349
I745
s(g36
g2
g3
g25
g5
g6
g23
tp1350
I582
s(g1
g22
g10
g11
g12
g6
g14
tp1351
I321
s(g9
g22
g10
g4
g5
g6
g14
tp1352
I1331
s(g9
g22
g10
g11
g26
g6
g23
tp1353
I1292
s(g9
g16
g10
g25
g26
g13
g23
tp1354
I1167
s(g9
g2
g10
g11
g26
g6
g17
tp1355
I970
s(g20
g22
g10
g4
g26
g6
g7
tp1356
I1834
s(g36
g22
g3
g4
g5
g6
g7
tp1357
I934
s(g9
g2
g10
g4
g5
g13
g14
tp1358
I1016
s(g9
g16
g10
g4
g26
g13
g23
tp1359
I1197
s(g1
g16
g10
g11
g26
g6
g14
tp1360
I171
s(g20
g2
g10
g4
g5
g6
g17
tp1361
I1490
s(g36
g22
g10
g11
g26
g13
g7
tp1362
I819
s(g1
g22
g3
g25
g12
g13
g23
tp1363
I437
s(g9
g16
g3
g25
g12
g6
g39
tp1364
I1233
s(g9
g16
g3
g4
g12
g6
g39
tp1365
I1263
s(g9
g16
g3
g4
g5
g13
g17
tp1366
I1255
s(g36
g22
g10
g11
g12
g13
g23
tp1367
I807
s(g36
g22
g10
g25
g26
g6
g7
tp1368
I844
s(g9
g22
g3
g25
g12
g13
g14
tp1369
I1396
s(g36
g2
g10
g25
g12
g6
g39
tp1370
I513
s(g9
g16
g10
g11
g26
g6
g17
tp1371
I1130
s(g20
g16
g3
g25
g5
g13
g17
tp1372
I1705
s(g9
g16
g3
g25
g12
g13
g23
tp1373
I1237
s(g20
g22
g3
g25
g5
g6
g7
tp1374
I1864
s(g9
g16
g10
g25
g12
g6
g14
tp1375
I1151
s(g1
g16
g10
g4
g5
g13
g39
tp1376
I218
s(g36
g16
g3
g4
g5
g6
g23
tp1377
I772
s(g9
g16
g3
g25
g26
g6
g7
tp1378
I1244
s(g36
g22
g10
g4
g12
g6
g39
tp1379
I863
s(g9
g22
g3
g25
g5
g6
g7
tp1380
I1384
s(g1
g22
g10
g25
g12
g13
g14
tp1381
I356
s(g20
g16
g3
g4
g5
g6
g39
tp1382
I1733
s(g36
g16
g3
g11
g12
g6
g39
tp1383
I723
s(g9
g16
g3
g11
g26
g6
g7
tp1384
I1214
s(g36
g22
g10
g25
g5
g13
g39
tp1385
I828
s(g36
g16
g3
g4
g5
g13
g14
tp1386
I776
s(g1
g2
g10
g25
g12
g13
g39
tp1387
I38
s(g1
g2
g3
g25
g26
g13
g14
tp1388
I126
s(g9
g2
g10
g4
g5
g6
g17
tp1389
I1010
s(g20
g22
g3
g4
g26
g13
g23
tp1390
I1917
s(g36
g22
g10
g4
g26
g6
g7
tp1391
I874
s(g9
g2
g3
g11
g26
g6
g14
tp1392
I1051
s(g20
g2
g10
g25
g26
g6
g39
tp1393
I1483
s(g9
g22
g10
g4
g26
g6
g7
tp1394
I1354
s(g1
g16
g3
g4
g12
g13
g14
tp1395
I306
s(g9
g22
g3
g25
g26
g13
g17
tp1396
I1405
s(g9
g16
g3
g11
g12
g13
g39
tp1397
I1208
s(g1
g16
g3
g4
g5
g13
g17
tp1398
I295
s(g1
g22
g10
g25
g26
g13
g7
tp1399
I369
s(g1
g16
g3
g4
g26
g6
g17
tp1400
I310
s(g36
g22
g3
g4
g5
g6
g23
tp1401
I932
s(g9
g2
g10
g25
g12
g6
g17
tp1402
I990
s(g20
g2
g10
g11
g26
g6
g39
tp1403
I1453
s(g9
g16
g3
g4
g26
g13
g14
tp1404
I1276
s(g20
g16
g3
g4
g12
g13
g7
tp1405
I1749
s(g9
g2
g10
g11
g26
g6
g14
tp1406
I971
s(g20
g22
g3
g25
g5
g13
g23
tp1407
I1867
s(g36
g22
g10
g4
g12
g6
g17
tp1408
I860
s(g9
g16
g10
g4
g26
g6
g7
tp1409
I1194
s(g1
g22
g3
g4
g26
g6
g39
tp1410
I473
s(g20
g2
g3
g11
g12
g13
g23
tp1411
I1527
s(g20
g2
g3
g4
g5
g13
g23
tp1412
I1577
s(g9
g22
g10
g11
g12
g13
g7
tp1413
I1289
s(g20
g2
g10
g11
g26
g13
g14
tp1414
I1456
s(g9
g16
g10
g4
g26
g6
g23
tp1415
I1192
s(g20
g2
g10
g25
g12
g13
g23
tp1416
I1477
s(g1
g22
g10
g25
g5
g13
g39
tp1417
I348
s(g1
g2
g10
g11
g26
g13
g39
tp1418
I18
s(g36
g16
g10
g4
g12
g6
g39
tp1419
I703
s(g36
g22
g10
g25
g5
g6
g14
tp1420
I821
s(g20
g22
g3
g11
g26
g6
g7
tp1421
I1854
s(g9
g2
g10
g11
g26
g6
g23
tp1422
I972
s(g1
g16
g3
g4
g26
g13
g39
tp1423
I318
s(g36
g22
g3
g4
g26
g13
g23
tp1424
I957
s(g36
g16
g3
g11
g26
g6
g17
tp1425
I730
s(g20
g22
g10
g4
g26
g13
g7
tp1426
I1839
s(g9
g2
g10
g25
g5
g13
g7
tp1427
I989
s(g9
g16
g10
g4
g12
g13
g7
tp1428
I1189
s(g20
g16
g3
g4
g5
g6
g23
tp1429
I1732
s(g20
g16
g10
g11
g26
g13
g14
tp1430
I1616
s(g9
g22
g10
g4
g26
g6
g17
tp1431
I1350
s(g1
g16
g10
g4
g12
g6
g14
tp1432
I221
s(g1
g22
g10
g25
g26
g13
g23
tp1433
I367
s(g1
g16
g10
g11
g26
g13
g39
tp1434
I178
s(g36
g16
g3
g25
g26
g6
g23
tp1435
I762
s(g20
g22
g10
g4
g5
g13
g14
tp1436
I1816
s(g36
g16
g10
g11
g12
g13
g14
tp1437
I646
s(g1
g2
g3
g4
g12
g6
g17
tp1438
I140
s(g9
g16
g3
g11
g26
g13
g17
tp1439
I1215
s(g20
g16
g10
g11
g26
g6
g17
tp1440
I1610
s(g20
g16
g3
g25
g12
g13
g14
tp1441
I1716
s(g1
g2
g3
g11
g26
g6
g17
tp1442
I90
s(g20
g22
g3
g4
g12
g6
g14
tp1443
I1901
s(g36
g22
g10
g25
g5
g6
g17
tp1444
I820
s(g20
g16
g10
g4
g5
g6
g39
tp1445
I1653
s(g36
g16
g3
g25
g5
g6
g39
tp1446
I743
s(g9
g2
g10
g4
g5
g6
g7
tp1447
I1014
s(g9
g16
g10
g25
g5
g13
g17
tp1448
I1145
s(g1
g2
g3
g4
g5
g6
g39
tp1449
I133
s(g36
g2
g10
g25
g26
g13
g39
tp1450
I528
s(g20
g2
g10
g4
g5
g13
g14
tp1451
I1496
s(g9
g2
g3
g25
g5
g6
g7
tp1452
I1064
s(g9
g22
g3
g4
g12
g6
g17
tp1453
I1420
s(g36
g22
g10
g25
g26
g13
g14
tp1454
I846
s(g9
g16
g10
g11
g12
g6
g14
tp1455
I1121
s(g1
g22
g3
g25
g5
g13
g23
tp1456
I427
s(g1
g22
g10
g4
g26
g13
g39
tp1457
I398
s(g1
g22
g3
g4
g12
g13
g23
tp1458
I467
s(g36
g2
g10
g25
g5
g13
g7
tp1459
I509
s(g1
g2
g10
g4
g26
g13
g39
tp1460
I78
s(g36
g16
g10
g4
g12
g6
g17
tp1461
I700
s(g20
g16
g3
g25
g5
g13
g39
tp1462
I1708
s(g9
g2
g10
g25
g26
g6
g23
tp1463
I1002
s(g20
g2
g3
g25
g5
g13
g17
tp1464
I1545
s(g36
g22
g10
g25
g12
g6
g7
tp1465
I834
s(g36
g16
g3
g25
g12
g6
g17
tp1466
I750
s(g1
g16
g3
g11
g26
g6
g17
tp1467
I250
s(g1
g2
g10
g4
g12
g13
g14
tp1468
I66
s(g1
g2
g3
g25
g5
g6
g23
tp1469
I102
s(g36
g2
g10
g4
g5
g6
g14
tp1470
I531
s(g36
g22
g3
g25
g12
g13
g14
tp1471
I916
s(g20
g22
g3
g11
g26
g13
g39
tp1472
I1858
s(g1
g2
g3
g25
g26
g6
g7
tp1473
I124
s(g9
g2
g3
g4
g12
g13
g17
tp1474
I1105
s(g20
g16
g3
g4
g26
g6
g39
tp1475
I1753
s(g36
g2
g10
g25
g26
g6
g14
tp1476
I521
s(g9
g16
g3
g4
g26
g6
g14
tp1477
I1271
s(g1
g22
g10
g4
g5
g6
g39
tp1478
I373
s(g9
g2
g3
g25
g5
g13
g17
tp1479
I1065
s(g36
g22
g3
g11
g12
g6
g7
tp1480
I884
s(g1
g2
g10
g4
g26
g13
g17
tp1481
I75
s(g36
g16
g3
g25
g12
g13
g39
tp1482
I758
s(g20
g2
g3
g4
g12
g13
g23
tp1483
I1587
s(g1
g16
g3
g25
g26
g13
g23
tp1484
I287
s(g1
g16
g10
g11
g26
g6
g39
tp1485
I173
s(g36
g22
g10
g4
g5
g13
g17
tp1486
I855
s(g9
g22
g10
g25
g5
g6
g7
tp1487
I1304
s(g9
g16
g10
g4
g26
g6
g14
tp1488
I1191
s(g20
g16
g10
g25
g12
g13
g39
tp1489
I1638
s(g1
g2
g10
g11
g12
g6
g39
tp1490
I3
s(g1
g22
g3
g4
g26
g13
g39
tp1491
I478
s(g20
g22
g3
g4
g12
g6
g17
tp1492
I1900
s(g20
g2
g10
g11
g12
g6
g17
tp1493
I1440
s(g1
g2
g3
g25
g5
g13
g23
tp1494
I107
s(g20
g16
g10
g25
g5
g6
g39
tp1495
I1623
s(g36
g2
g3
g25
g26
g13
g39
tp1496
I608
s(g20
g22
g3
g11
g26
g13
g7
tp1497
I1859
s(g1
g22
g10
g4
g12
g13
g17
tp1498
I385
s(g9
g22
g10
g25
g26
g13
g7
tp1499
I1329
s(g9
g2
g10
g11
g12
g6
g17
tp1500
I960
s(g20
g16
g3
g4
g12
g6
g23
tp1501
I1742
s(g1
g2
g3
g25
g12
g6
g23
tp1502
I112
s(g9
g16
g10
g4
g12
g13
g14
tp1503
I1186
s(g36
g22
g3
g4
g5
g13
g23
tp1504
I937
s(g9
g22
g10
g4
g26
g13
g17
tp1505
I1355
s(g9
g22
g3
g4
g26
g13
g7
tp1506
I1439
s(g20
g16
g3
g4
g12
g6
g7
tp1507
I1744
s(g9
g22
g10
g4
g12
g13
g7
tp1508
I1349
s(g20
g2
g10
g4
g26
g6
g7
tp1509
I1514
s(g1
g2
g3
g25
g5
g13
g17
tp1510
I105
s(g9
g16
g3
g25
g5
g6
g39
tp1511
I1223
s(g1
g16
g10
g4
g26
g6
g14
tp1512
I231
s(g9
g2
g3
g25
g5
g6
g39
tp1513
I1063
s(g1
g2
g10
g4
g12
g6
g17
tp1514
I60
s(g9
g16
g3
g4
g12
g13
g39
tp1515
I1268
s(g9
g16
g10
g11
g12
g6
g39
tp1516
I1123
s(g1
g16
g3
g11
g26
g13
g17
tp1517
I255
s(g9
g16
g10
g4
g12
g6
g39
tp1518
I1183
s(g1
g22
g10
g4
g12
g13
g39
tp1519
I388
s(g1
g22
g3
g4
g26
g13
g14
tp1520
I476
s(g9
g16
g10
g25
g12
g13
g7
tp1521
I1159
s(g20
g22
g3
g11
g26
g6
g17
tp1522
I1850
s(g1
g22
g3
g4
g12
g6
g39
tp1523
I463
s(g9
g2
g10
g4
g12
g13
g14
tp1524
I1026
s(g20
g22
g10
g25
g12
g6
g14
tp1525
I1791
s(g1
g16
g10
g4
g26
g6
g17
tp1526
I230
s(g36
g2
g10
g4
g26
g6
g23
tp1527
I552
s(g36
g22
g3
g4
g26
g6
g23
tp1528
I952
s(g36
g2
g10
g11
g26
g6
g23
tp1529
I492
s(g9
g16
g3
g11
g12
g6
g14
tp1530
I1201
s(g20
g2
g10
g25
g26
g13
g14
tp1531
I1486
s(g9
g22
g10
g25
g5
g6
g39
tp1532
I1303
s(g9
g22
g3
g4
g12
g13
g7
tp1533
I1429
s(g20
g22
g3
g25
g26
g13
g39
tp1534
I1888
s(g20
g2
g10
g11
g12
g6
g39
tp1535
I1443
s(g36
g2
g3
g25
g26
g6
g7
tp1536
I604
s(g36
g22
g10
g11
g26
g13
g39
tp1537
I818
s(g36
g2
g10
g25
g26
g6
g39
tp1538
I523
s(g1
g22
g10
g4
g5
g6
g14
tp1539
I371
s(g36
g16
g10
g4
g26
g13
g39
tp1540
I718
s(g9
g16
g10
g4
g12
g6
g17
tp1541
I1180
s(g1
g16
g10
g4
g12
g6
g17
tp1542
I220
s(g9
g2
g10
g4
g26
g6
g23
tp1543
I1032
s(g1
g16
g10
g25
g26
g13
g7
tp1544
I209
s(g36
g2
g3
g4
g12
g6
g39
tp1545
I623
s(g1
g2
g3
g25
g12
g13
g7
tp1546
I119
s(g1
g16
g3
g11
g26
g6
g7
tp1547
I254
s(g1
g2
g10
g11
g26
g13
g14
tp1548
I16
s(g20
g22
g3
g25
g5
g13
g7
tp1549
I1869
s(g36
g2
g10
g25
g5
g13
g23
tp1550
I507
s(g1
g2
g3
g4
g26
g6
g17
tp1551
I150
s(g1
g22
g10
g25
g5
g6
g14
tp1552
I341
s(g1
g2
g3
g11
g26
g6
g7
tp1553
I94
s(g9
g2
g10
g11
g12
g13
g23
tp1554
I967
s(g1
g22
g3
g11
g26
g13
g17
tp1555
I415
s(g20
g2
g3
g4
g5
g6
g14
tp1556
I1571
s(g36
g22
g10
g11
g26
g6
g14
tp1557
I811
s(g9
g16
g3
g11
g26
g13
g7
tp1558
I1219
s(g36
g22
g3
g25
g5
g13
g23
tp1559
I907
s(g36
g2
g3
g4
g5
g13
g14
tp1560
I616
s(g9
g22
g3
g4
g5
g6
g14
tp1561
I1411
s(g20
g16
g10
g4
g26
g6
g14
tp1562
I1671
s(g36
g16
g10
g25
g26
g6
g39
tp1563
I683
s(g1
g2
g3
g11
g12
g13
g14
tp1564
I86
s(g1
g22
g3
g4
g5
g6
g39
tp1565
I453
s(g36
g16
g10
g4
g26
g13
g17
tp1566
I715
s(g36
g22
g3
g25
g5
g13
g7
tp1567
I909
s(g36
g16
g10
g11
g12
g6
g23
tp1568
I642
s(g20
g16
g10
g11
g26
g13
g39
tp1569
I1618
s(g36
g2
g10
g25
g12
g13
g39
tp1570
I518
s(g20
g16
g3
g11
g26
g13
g17
tp1571
I1695
s(g1
g2
g10
g4
g5
g13
g23
tp1572
I57
s(g36
g22
g10
g4
g26
g13
g14
tp1573
I876
s(g9
g22
g3
g25
g5
g6
g23
tp1574
I1382
s(g9
g16
g3
g25
g5
g6
g7
tp1575
I1224
s(g9
g2
g10
g11
g12
g6
g39
tp1576
I963
s(g36
g22
g10
g4
g5
g6
g23
tp1577
I852
s(g1
g16
g10
g4
g5
g13
g17
tp1578
I215
s(g36
g16
g10
g25
g26
g13
g7
tp1579
I689
s(g20
g16
g10
g25
g26
g6
g14
tp1580
I1641
s(g36
g16
g3
g11
g12
g6
g7
tp1581
I724
s(g1
g16
g10
g4
g26
g6
g39
tp1582
I233
s(g36
g22
g3
g11
g26
g13
g23
tp1583
I897
s(g36
g16
g3
g25
g26
g6
g7
tp1584
I764
s(g1
g16
g10
g25
g26
g13
g23
tp1585
I207
s(g9
g22
g3
g25
g12
g6
g14
tp1586
I1391
s(g1
g2
g10
g11
g12
g6
g17
tp1587
I0
s(g1
g16
g10
g11
g26
g13
g7
tp1588
I179
s(g9
g16
g10
g11
g26
g13
g39
tp1589
I1138
s(g9
g22
g10
g11
g26
g13
g14
tp1590
I1296
s(g20
g2
g3
g11
g26
g6
g39
tp1591
I1533
s(g1
g16
g3
g4
g12
g6
g7
tp1592
I304
s(g1
g22
g3
g4
g5
g6
g17
tp1593
I450
s(g36
g16
g3
g4
g5
g13
g17
tp1594
I775
s(g9
g2
g10
g25
g5
g6
g17
tp1595
I980
s(g9
g16
g10
g11
g12
g6
g17
tp1596
I1120
s(g36
g22
g10
g25
g12
g13
g23
tp1597
I837
s(g36
g2
g10
g11
g12
g6
g14
tp1598
I481
s(g36
g22
g3
g11
g12
g13
g39
tp1599
I888
s(g1
g22
g10
g11
g26
g6
g14
tp1600
I331
s(g20
g2
g3
g25
g26
g13
g23
tp1601
I1567
s(g1
g2
g10
g11
g12
g6
g7
tp1602
I4
s(g36
g22
g10
g25
g12
g6
g23
tp1603
I832
s(g1
g22
g10
g11
g12
g13
g39
tp1604
I328
s(g1
g2
g10
g11
g26
g6
g14
tp1605
I11
s(g9
g22
g10
g25
g12
g13
g39
tp1606
I1318
s(g20
g22
g3
g25
g12
g13
g14
tp1607
I1876
s(g36
g16
g3
g11
g26
g13
g23
tp1608
I737
s(g36
g16
g3
g11
g12
g6
g23
tp1609
I722
s(g36
g22
g10
g25
g5
g13
g23
tp1610
I827
s(g1
g22
g10
g25
g12
g6
g23
tp1611
I352
s(g20
g16
g3
g25
g12
g13
g7
tp1612
I1719
s(g20
g16
g10
g25
g12
g6
g7
tp1613
I1634
s(g1
g22
g3
g25
g12
g13
g39
tp1614
I438
s(g1
g22
g10
g11
g12
g6
g23
tp1615
I322
s(g20
g22
g10
g11
g26
g13
g14
tp1616
I1776
s(g9
g22
g3
g25
g26
g6
g14
tp1617
I1401
s(g1
g22
g3
g25
g26
g13
g23
tp1618
I447
s(g9
g2
g3
g4
g26
g6
g7
tp1619
I1114
s(g9
g16
g3
g11
g26
g6
g23
tp1620
I1212
s(g9
g16
g3
g25
g5
g13
g14
tp1621
I1226
s(g20
g16
g3
g11
g12
g13
g14
tp1622
I1686
s(g36
g16
g10
g4
g5
g6
g7
tp1623
I694
s(g20
g2
g10
g11
g12
g13
g7
tp1624
I1449
s(g36
g16
g10
g25
g26
g13
g23
tp1625
I687
s(g36
g16
g10
g11
g26
g6
g39
tp1626
I653
s(g20
g2
g3
g25
g5
g13
g14
tp1627
I1546
s(g1
g2
g10
g4
g5
g6
g23
tp1628
I52
s(g1
g16
g3
g25
g26
g6
g14
tp1629
I281
s(g36
g2
g3
g4
g26
g13
g17
tp1630
I635
s(g20
g2
g10
g25
g12
g6
g17
tp1631
I1470
s(g20
g2
g3
g4
g26
g6
g14
tp1632
I1591
s(g20
g22
g3
g25
g5
g6
g17
tp1633
I1860
s(g1
g16
g10
g4
g26
g13
g23
tp1634
I237
s(g1
g2
g10
g25
g5
g13
g7
tp1635
I29
s(g1
g2
g3
g11
g12
g6
g14
tp1636
I81
s(g36
g2
g10
g25
g26
g13
g14
tp1637
I526
s(g20
g2
g3
g25
g26
g13
g14
tp1638
I1566
s(g1
g22
g10
g4
g12
g6
g17
tp1639
I380
s(g20
g16
g10
g4
g5
g6
g7
tp1640
I1654
s(g9
g2
g10
g11
g12
g6
g14
tp1641
I961
s(g9
g22
g10
g4
g12
g6
g14
tp1642
I1341
s(g36
g16
g3
g11
g26
g6
g7
tp1643
I734
s(g1
g22
g3
g25
g12
g13
g14
tp1644
I436
s(g20
g22
g10
g11
g26
g13
g39
tp1645
I1778
s(g9
g22
g3
g25
g5
g13
g23
tp1646
I1387
s(g36
g2
g3
g11
g12
g13
g23
tp1647
I567
s(g36
g16
g3
g11
g12
g13
g23
tp1648
I727
s(g36
g16
g3
g4
g26
g13
g7
tp1649
I799
s(g36
g2
g10
g25
g5
g6
g39
tp1650
I503
s(g20
g22
g10
g25
g26
g13
g17
tp1651
I1805
s(g1
g2
g10
g25
g12
g6
g23
tp1652
I32
s(g9
g22
g10
g11
g26
g6
g7
tp1653
I1294
s(g20
g2
g3
g4
g26
g6
g17
tp1654
I1590
s(g9
g22
g10
g11
g12
g13
g17
tp1655
I1285
s(g36
g22
g10
g4
g12
g13
g17
tp1656
I865
s(g20
g2
g10
g25
g5
g6
g39
tp1657
I1463
s(g9
g2
g10
g4
g12
g6
g14
tp1658
I1021
s(g1
g22
g3
g25
g5
g13
g14
tp1659
I426
s(g9
g22
g10
g4
g26
g13
g14
tp1660
I1356
s(g36
g16
g10
g4
g5
g6
g23
tp1661
I692
s(g20
g22
g3
g11
g26
g6
g39
tp1662
I1853
s(g9
g2
g3
g25
g26
g13
g7
tp1663
I1089
s(g9
g2
g3
g4
g26
g6
g23
tp1664
I1112
s(g36
g16
g10
g4
g12
g6
g7
tp1665
I704
s(g20
g16
g3
g11
g26
g13
g39
tp1666
I1698
s(g36
g16
g10
g11
g26
g6
g7
tp1667
I654
s(g9
g22
g3
g25
g26
g6
g17
tp1668
I1400
s(g20
g2
g10
g25
g5
g13
g39
tp1669
I1468
s(g20
g22
g3
g4
g12
g13
g7
tp1670
I1909
s(g9
g2
g3
g25
g12
g6
g7
tp1671
I1074
s(g36
g16
g3
g25
g26
g13
g14
tp1672
I766
s(g20
g22
g10
g25
g12
g6
g17
tp1673
I1790
s(g20
g2
g3
g25
g26
g6
g23
tp1674
I1562
s(g9
g16
g3
g4
g5
g6
g14
tp1675
I1251
s(g1
g16
g10
g25
g12
g13
g7
tp1676
I199
s(g36
g22
g10
g4
g5
g6
g7
tp1677
I854
s(g20
g22
g10
g11
g12
g6
g39
tp1678
I1763
s(g20
g2
g10
g4
g26
g13
g14
tp1679
I1516
s(g1
g16
g3
g4
g26
g13
g23
tp1680
I317
s(g20
g2
g3
g25
g12
g13
g23
tp1681
I1557
s(g9
g16
g10
g4
g5
g13
g39
tp1682
I1178
s(g20
g22
g3
g4
g5
g13
g14
tp1683
I1896
s(g1
g22
g3
g25
g5
g13
g39
tp1684
I428
s(g1
g22
g10
g25
g26
g13
g39
tp1685
I368
s(g9
g22
g10
g25
g12
g6
g39
tp1686
I1313
s(g9
g2
g10
g25
g12
g6
g14
tp1687
I991
s(g36
g16
g3
g25
g26
g6
g39
tp1688
I763
s(g9
g16
g10
g11
g12
g13
g23
tp1689
I1127
s(g20
g22
g10
g4
g5
g6
g17
tp1690
I1810
s(g9
g2
g3
g4
g26
g13
g17
tp1691
I1115
s(g9
g16
g10
g25
g26
g6
g7
tp1692
I1164
s(g1
g2
g10
g25
g12
g13
g23
tp1693
I37
s(g20
g16
g10
g4
g26
g13
g39
tp1694
I1678
s(g20
g16
g3
g25
g5
g6
g7
tp1695
I1704
s(g1
g2
g10
g25
g5
g6
g23
tp1696
I22
s(g36
g16
g3
g4
g26
g13
g23
tp1697
I797
s(g20
g16
g10
g11
g26
g13
g7
tp1698
I1619
s(g36
g2
g10
g11
g12
g13
g17
tp1699
I485
s(g9
g22
g10
g25
g26
g13
g23
tp1700
I1327
s(g36
g16
g10
g25
g5
g6
g39
tp1701
I663
s(g20
g22
g3
g25
g5
g6
g39
tp1702
I1863
s(g20
g2
g10
g25
g12
g6
g39
tp1703
I1473
s(g9
g2
g3
g25
g12
g13
g23
tp1704
I1077
s(g36
g16
g10
g25
g26
g6
g14
tp1705
I681
s(g9
g22
g3
g4
g26
g6
g23
tp1706
I1432
s(g20
g16
g10
g4
g12
g13
g23
tp1707
I1667
s(g20
g2
g3
g25
g12
g6
g23
tp1708
I1552
s(g1
g16
g10
g11
g26
g6
g23
tp1709
I172
s(g20
g2
g10
g11
g26
g13
g17
tp1710
I1455
s(g1
g22
g3
g25
g12
g6
g14
tp1711
I431
s(g20
g2
g3
g4
g12
g6
g14
tp1712
I1581
s(g20
g16
g10
g25
g12
g13
g23
tp1713
I1637
s(g1
g2
g10
g11
g12
g13
g39
tp1714
I8
s(g20
g22
g10
g11
g26
g6
g39
tp1715
I1773
s(g9
g22
g10
g4
g5
g13
g23
tp1716
I1337
s(g20
g22
g10
g11
g12
g13
g39
tp1717
I1768
s(g9
g22
g3
g25
g12
g13
g23
tp1718
I1397
s(g20
g2
g10
g11
g26
g13
g39
tp1719
I1458
s(g9
g2
g10
g4
g26
g13
g7
tp1720
I1039
s(g20
g22
g10
g11
g12
g13
g7
tp1721
I1769
s(g20
g22
g10
g4
g26
g6
g39
tp1722
I1833
s(g9
g16
g3
g4
g12
g6
g17
tp1723
I1260
s(g36
g16
g10
g4
g12
g13
g17
tp1724
I705
s(g1
g16
g3
g4
g12
g6
g23
tp1725
I302
s(g20
g2
g10
g4
g12
g6
g17
tp1726
I1500
s(g9
g2
g3
g11
g26
g13
g23
tp1727
I1057
s(g36
g22
g3
g4
g26
g6
g14
tp1728
I951
s(g9
g2
g10
g11
g26
g13
g39
tp1729
I978
s(g20
g2
g3
g25
g26
g13
g39
tp1730
I1568
s(g36
g22
g3
g11
g26
g6
g7
tp1731
I894
s(g20
g16
g10
g4
g5
g13
g17
tp1732
I1655
s(g20
g2
g10
g11
g12
g13
g17
tp1733
I1445
s(g20
g2
g10
g25
g5
g6
g17
tp1734
I1460
s(g20
g16
g3
g11
g26
g13
g14
tp1735
I1696
s(g9
g2
g3
g4
g5
g13
g14
tp1736
I1096
s(g1
g16
g3
g25
g12
g13
g39
tp1737
I278
s(g20
g16
g3
g11
g12
g6
g14
tp1738
I1681
s(g9
g22
g10
g11
g12
g6
g39
tp1739
I1283
s(g9
g22
g3
g25
g26
g13
g14
tp1740
I1406
s(g36
g2
g3
g25
g26
g13
g23
tp1741
I607
s(g36
g22
g3
g25
g5
g6
g17
tp1742
I900
s(g20
g16
g3
g4
g5
g13
g7
tp1743
I1739
s(g20
g16
g10
g25
g5
g13
g23
tp1744
I1627
s(g36
g16
g3
g25
g12
g13
g7
tp1745
I759
s(g20
g16
g10
g25
g12
g6
g17
tp1746
I1630
s(g20
g2
g3
g25
g12
g13
g7
tp1747
I1559
s(g36
g2
g10
g11
g26
g13
g23
tp1748
I497
s(g36
g22
g3
g25
g26
g6
g39
tp1749
I923
s(g20
g16
g10
g4
g5
g13
g23
tp1750
I1657
s(g1
g22
g3
g25
g5
g6
g7
tp1751
I424
s(g36
g16
g10
g4
g26
g6
g17
tp1752
I710
s(g20
g16
g10
g4
g26
g13
g7
tp1753
I1679
s(g1
g22
g3
g4
g12
g6
g23
tp1754
I462
s(g20
g16
g10
g11
g12
g13
g7
tp1755
I1609
s(g20
g2
g3
g4
g5
g13
g17
tp1756
I1575
s(g36
g2
g10
g11
g12
g6
g17
tp1757
I480
s(g9
g22
g3
g11
g26
g13
g7
tp1758
I1379
s(g36
g16
g3
g25
g12
g13
g17
tp1759
I755
s(g36
g16
g10
g11
g12
g13
g17
tp1760
I645
s(g20
g2
g10
g4
g12
g13
g7
tp1761
I1509
s(g1
g16
g10
g4
g12
g13
g17
tp1762
I225
s(g36
g2
g10
g4
g12
g13
g23
tp1763
I547
s(g20
g16
g10
g25
g26
g13
g7
tp1764
I1649
s(g20
g2
g3
g4
g12
g13
g7
tp1765
I1589
s(g9
g2
g3
g4
g5
g13
g39
tp1766
I1098
s(g1
g2
g3
g11
g12
g13
g23
tp1767
I87
s(g9
g2
g3
g4
g12
g6
g14
tp1768
I1101
s(g9
g22
g3
g4
g12
g13
g17
tp1769
I1425
s(g1
g2
g3
g4
g26
g13
g17
tp1770
I155
s(g9
g2
g10
g25
g5
g13
g23
tp1771
I987
s(g36
g2
g3
g25
g26
g6
g23
tp1772
I602
s(g36
g2
g10
g4
g26
g13
g17
tp1773
I555
s(g20
g2
g10
g25
g5
g13
g17
tp1774
I1465
s(g1
g16
g3
g11
g12
g13
g14
tp1775
I246
s(g20
g16
g10
g4
g26
g6
g39
tp1776
I1673
s(g20
g16
g3
g4
g12
g13
g17
tp1777
I1745
s(g20
g16
g3
g4
g5
g6
g17
tp1778
I1730
s(g9
g16
g10
g11
g26
g6
g39
tp1779
I1133
s(g20
g22
g3
g4
g26
g6
g17
tp1780
I1910
s(g9
g16
g3
g4
g5
g6
g17
tp1781
I1250
s(g9
g22
g10
g25
g12
g13
g7
tp1782
I1319
s(g36
g2
g10
g11
g12
g13
g39
tp1783
I488
s(g36
g2
g10
g11
g12
g13
g7
tp1784
I489
s(g36
g2
g3
g11
g26
g13
g14
tp1785
I576
s(g36
g22
g10
g11
g26
g6
g17
tp1786
I810
s(g9
g16
g3
g25
g5
g13
g17
tp1787
I1225
s(g1
g22
g3
g11
g26
g6
g7
tp1788
I414
s(g20
g16
g10
g4
g26
g13
g17
tp1789
I1675
s(g1
g22
g3
g4
g5
g13
g14
tp1790
I456
s(g20
g22
g10
g4
g5
g13
g23
tp1791
I1817
s(g1
g2
g3
g4
g12
g13
g14
tp1792
I146
s(g20
g2
g10
g25
g5
g13
g14
tp1793
I1466
s(g36
g16
g10
g25
g12
g6
g39
tp1794
I673
s(g20
g2
g10
g25
g26
g13
g23
tp1795
I1487
s(g20
g16
g10
g11
g26
g13
g23
tp1796
I1617
s(g36
g2
g10
g4
g5
g13
g14
tp1797
I536
s(g9
g22
g10
g4
g5
g6
g23
tp1798
I1332
s(g1
g2
g10
g4
g5
g13
g39
tp1799
I58
s(g1
g16
g10
g25
g26
g6
g17
tp1800
I200
s(g9
g22
g3
g25
g12
g6
g39
tp1801
I1393
s(g20
g2
g10
g4
g26
g6
g23
tp1802
I1512
s(g1
g2
g10
g25
g26
g13
g23
tp1803
I47
s(g9
g2
g3
g25
g26
g13
g23
tp1804
I1087
s(g36
g16
g10
g4
g5
g13
g39
tp1805
I698
s(g36
g22
g10
g25
g12
g6
g39
tp1806
I833
s(g1
g22
g3
g4
g12
g13
g14
tp1807
I466
s(g20
g2
g10
g25
g26
g6
g17
tp1808
I1480
s(g9
g2
g3
g4
g5
g13
g17
tp1809
I1095
s(g9
g22
g3
g25
g12
g6
g17
tp1810
I1390
s(g36
g22
g10
g25
g5
g13
g7
tp1811
I829
s(g36
g16
g10
g11
g12
g6
g39
tp1812
I643
s(g36
g22
g10
g25
g12
g13
g39
tp1813
I838
s(g9
g22
g3
g4
g5
g13
g23
tp1814
I1417
s(g36
g2
g3
g25
g12
g13
g17
tp1815
I595
s(g9
g16
g10
g25
g12
g13
g23
tp1816
I1157
s(g1
g16
g10
g25
g5
g13
g17
tp1817
I185
s(g1
g16
g10
g25
g26
g6
g39
tp1818
I203
s(g1
g16
g3
g25
g26
g13
g7
tp1819
I289
s(g9
g2
g3
g11
g12
g6
g14
tp1820
I1041
s(g9
g22
g10
g11
g12
g6
g17
tp1821
I1280
s(g36
g2
g10
g25
g12
g6
g17
tp1822
I510
s(g1
g22
g10
g11
g12
g13
g23
tp1823
I327
s(g36
g22
g3
g25
g12
g6
g7
tp1824
I914
s(g36
g16
g10
g25
g12
g6
g17
tp1825
I670
s(g9
g16
g3
g4
g5
g6
g39
tp1826
I1253
s(g1
g16
g3
g25
g12
g13
g7
tp1827
I279
s(g36
g2
g10
g4
g5
g13
g39
tp1828
I538
s(g1
g2
g10
g4
g26
g6
g7
tp1829
I74
s(g9
g22
g10
g11
g12
g6
g7
tp1830
I1284
s(g1
g16
g3
g4
g12
g13
g23
tp1831
I307
s(g9
g16
g10
g25
g5
g6
g14
tp1832
I1141
s(g9
g2
g3
g11
g26
g6
g23
tp1833
I1052
s(g1
g2
g10
g25
g26
g6
g17
tp1834
I40
s(g9
g22
g10
g25
g26
g6
g39
tp1835
I1323
s(g1
g2
g3
g11
g12
g6
g23
tp1836
I82
s(g9
g2
g3
g4
g5
g6
g23
tp1837
I1092
s(g9
g22
g3
g11
g12
g6
g17
tp1838
I1360
s(g36
g22
g3
g25
g26
g13
g17
tp1839
I925
s(g1
g16
g10
g11
g12
g6
g23
tp1840
I162
s(g36
g16
g10
g11
g26
g13
g14
tp1841
I656
s(g20
g22
g10
g25
g5
g6
g39
tp1842
I1783
s(g36
g16
g10
g25
g26
g6
g17
tp1843
I680
s(g20
g22
g3
g25
g26
g13
g14
tp1844
I1886
s(g20
g22
g10
g25
g5
g6
g7
tp1845
I1784
s(g20
g16
g10
g4
g26
g6
g17
tp1846
I1670
s(g20
g16
g3
g11
g12
g13
g17
tp1847
I1685
s(g20
g16
g10
g4
g5
g6
g17
tp1848
I1650
s(g1
g16
g3
g4
g5
g13
g39
tp1849
I298
s(g20
g16
g3
g4
g5
g6
g14
tp1850
I1731
s(g9
g16
g3
g25
g12
g6
g14
tp1851
I1231
s(g9
g22
g10
g4
g5
g6
g7
tp1852
I1334
s(g20
g16
g3
g25
g12
g13
g17
tp1853
I1715
s(g20
g22
g10
g4
g26
g6
g14
tp1854
I1831
s(g20
g2
g10
g11
g26
g6
g17
tp1855
I1450
s(g36
g16
g3
g25
g5
g13
g39
tp1856
I748
s(g1
g22
g10
g11
g26
g6
g23
tp1857
I332
s(g20
g22
g10
g25
g5
g13
g39
tp1858
I1788
s(g1
g22
g3
g4
g12
g6
g7
tp1859
I464
s(g9
g16
g3
g4
g26
g13
g39
tp1860
I1278
s(g9
g2
g3
g11
g12
g13
g14
tp1861
I1046
s(g20
g16
g3
g11
g12
g6
g39
tp1862
I1683
s(g36
g2
g3
g11
g26
g6
g39
tp1863
I573
s(g20
g2
g10
g4
g12
g6
g7
tp1864
I1504
s(g36
g2
g10
g11
g12
g6
g39
tp1865
I483
s(g36
g22
g3
g4
g12
g6
g17
tp1866
I940
s(g1
g22
g10
g4
g12
g13
g7
tp1867
I389
s(g20
g2
g3
g25
g12
g13
g39
tp1868
I1558
s(g9
g22
g3
g25
g5
g13
g39
tp1869
I1388
s(g1
g22
g10
g25
g12
g13
g39
tp1870
I358
s(g1
g2
g10
g25
g5
g13
g39
tp1871
I28
s(g36
g16
g10
g25
g26
g13
g39
tp1872
I688
s(g9
g16
g3
g25
g26
g6
g14
tp1873
I1241
s(g36
g2
g3
g25
g12
g6
g23
tp1874
I592
s(g20
g2
g3
g25
g5
g13
g39
tp1875
I1548
s(g9
g16
g10
g25
g12
g6
g23
tp1876
I1152
s(g1
g2
g10
g4
g5
g6
g39
tp1877
I53
s(g9
g2
g10
g25
g5
g13
g17
tp1878
I985
s(g9
g2
g10
g4
g12
g13
g17
tp1879
I1025
s(g9
g16
g3
g4
g5
g13
g39
tp1880
I1258
s(g36
g2
g3
g11
g12
g13
g7
tp1881
I569
s(g36
g16
g3
g4
g12
g6
g39
tp1882
I783
s(g36
g22
g3
g25
g12
g6
g23
tp1883
I912
s(g36
g22
g10
g25
g12
g13
g14
tp1884
I836
s(g9
g2
g3
g4
g26
g6
g39
tp1885
I1113
s(g36
g16
g3
g25
g5
g13
g14
tp1886
I746
s(g9
g2
g10
g25
g26
g13
g17
tp1887
I1005
s(g20
g22
g3
g4
g12
g6
g39
tp1888
I1903
s(g1
g16
g3
g11
g26
g13
g7
tp1889
I259
s(g1
g2
g10
g4
g12
g13
g17
tp1890
I65
s(g9
g2
g10
g4
g5
g13
g23
tp1891
I1017
s(g1
g2
g3
g25
g5
g13
g7
tp1892
I109
s(g20
g22
g10
g11
g12
g6
g7
tp1893
I1764
s(g36
g2
g10
g25
g5
g6
g23
tp1894
I502
s(g36
g22
g3
g25
g5
g6
g39
tp1895
I903
s(g1
g2
g3
g4
g5
g6
g17
tp1896
I130
s(g20
g16
g3
g25
g26
g6
g39
tp1897
I1723
s(g1
g16
g10
g11
g26
g6
g7
tp1898
I174
s(g1
g2
g3
g11
g26
g13
g7
tp1899
I99
s(g9
g2
g10
g25
g26
g13
g39
tp1900
I1008
s(g1
g16
g10
g4
g5
g6
g14
tp1901
I211
s(g36
g2
g3
g4
g12
g6
g14
tp1902
I621
s(g20
g22
g3
g11
g12
g13
g14
tp1903
I1846
s(g36
g22
g3
g25
g12
g13
g23
tp1904
I917
s(g9
g22
g3
g4
g26
g6
g14
tp1905
I1431
s(g9
g22
g10
g11
g12
g13
g14
tp1906
I1286
s(g1
g16
g3
g4
g5
g6
g17
tp1907
I290
s(g36
g2
g3
g11
g26
g13
g39
tp1908
I578
s(g20
g22
g3
g25
g26
g6
g17
tp1909
I1880
s(g9
g22
g3
g25
g12
g13
g7
tp1910
I1399
s(g9
g22
g10
g25
g26
g6
g7
tp1911
I1324
s(g1
g22
g3
g25
g12
g6
g23
tp1912
I432
s(g36
g16
g3
g4
g12
g13
g7
tp1913
I789
s(g36
g2
g10
g11
g26
g6
g14
tp1914
I491
s(g9
g22
g3
g11
g26
g6
g39
tp1915
I1373
s(g9
g22
g10
g4
g26
g13
g23
tp1916
I1357
s(g20
g22
g3
g25
g5
g6
g14
tp1917
I1861
s(g9
g22
g10
g25
g26
g6
g23
tp1918
I1322
s(g36
g22
g10
g25
g5
g6
g7
tp1919
I824
s(g1
g22
g3
g11
g12
g6
g23
tp1920
I402
s(g20
g16
g10
g11
g12
g13
g23
tp1921
I1607
s(g20
g2
g10
g4
g26
g13
g7
tp1922
I1519
s(g9
g22
g3
g25
g5
g6
g14
tp1923
I1381
s(g20
g22
g3
g25
g26
g6
g7
tp1924
I1884
s(g9
g2
g10
g4
g12
g13
g39
tp1925
I1028
s(g9
g16
g10
g4
g5
g13
g23
tp1926
I1177
s(g1
g22
g10
g4
g26
g13
g17
tp1927
I395
s(g9
g2
g10
g4
g26
g13
g17
tp1928
I1035
s(g1
g22
g3
g11
g26
g13
g7
tp1929
I419
s(g9
g22
g3
g11
g12
g13
g39
tp1930
I1368
s(g36
g22
g3
g11
g26
g13
g14
tp1931
I896
s(g36
g2
g3
g25
g12
g13
g39
tp1932
I598
s(g36
g2
g10
g25
g12
g13
g14
tp1933
I516
s(g9
g16
g3
g25
g26
g13
g14
tp1934
I1246
s(g1
g2
g10
g4
g26
g13
g7
tp1935
I79
s(g20
g16
g3
g11
g26
g6
g17
tp1936
I1690
s(g1
g16
g3
g4
g12
g13
g7
tp1937
I309
s(g9
g2
g3
g11
g12
g6
g17
tp1938
I1040
s(g20
g2
g3
g25
g5
g6
g14
tp1939
I1541
s(g9
g2
g10
g25
g12
g6
g39
tp1940
I993
s(g20
g22
g3
g4
g5
g13
g17
tp1941
I1895
s(g9
g2
g3
g4
g12
g13
g14
tp1942
I1106
s.